 line   address	contents
    1                      ; Linked by DLX-LD.
    2                      ; MemSize 90112
    3                      ; Data size: 32696
    4                      ; Text size: 42244
    5                      ; Stack size: 8192
    6  00000000          	.text 0x1000
    7  00001000          	.data 0xc000
    8                      ;;; 
    9                      ;;; Initialization code for programs running in the DLX simulator.
   10                      ;;; Copyright (c) 1999 by Ethan Miller
   11                      ;;; 
   12                      ;;;
   14  0000c000          	.text
   15  00001000          	.align 2
   17                      ;;;----------------------------------------------------------------------
   18                      ;;; osinit
   19                      ;;;
   20                      ;;; This is the first function called by the simulator, even before main.
   21                      ;;; Since it's called BEFORE any "real" routines, we can use any registers
   22                      ;;; we want as long as we don't mess up the stack or frame pointers.
   23                      ;;;
   24                      ;;; This routine loads the interrupt vector to point to the interrupt
   25                      ;;; handler later in this file.  It should never return, because _main
   26                      ;;; should call exitsim() or exit() rather than returning here.
   27                      ;;; 
   28                      ;;; After initialization is done, this routine jumps to _main to start the
   29                      ;;; C code portion of the operating system.
   30                      ;;;----------------------------------------------------------------------
   31  00001000          	.proc _osinit
   32  00001000          	.global _osinit
   33  00001000          	_osinit:
   34                      ;; Set up the interrupt handler
   35  00001000  3c010000	lhi	r1,(_intrhandler>>16)&0xffff
   36  00001004  24211010	addui	r1,r1,_intrhandler&0xffff
   37  00001008  00204030	movi2s	intrvec,r1
   38                      ;; Never returns because exitsim is called first
   39  0000100c  08006084	j	_main
   40  00001010          	.endproc _osinit
   42                      ;;;----------------------------------------------------------------------
   43                      ;;; intrhandler
   44                      ;;;
   45                      ;;; Called when an interrupt or trap is received by the CPU.  It stores the
   46                      ;;; current register set on the system stack.  It then pushes the parameters
   47                      ;;; to the C interrupt handler onto the stack: the ISR, IAR, and CAUSE
   48                      ;;; registers along with the original stack pointer.  The C interrupt
   49                      ;;; handler can then copy arguments from the original stack, performing
   50                      ;;; user -> system translations if necessary.
   51                      ;;; 
   52                      ;;;----------------------------------------------------------------------
   53  00001010          	.proc _intrhandler
   54  00001010          	.global _intrhandler
   55  00001010          	_intrhandler:
   56                      ;; We can use r31 as scratch space because its value was saved in
   57                      ;; ir31.  However, we must save the "real" value of r31 on the
   58                      ;; stack.
   60                      ;; Always store the registers on the system stack.  This way, we don't
   61                      ;; have to worry about translating things from user -> system.  We
   62                      ;; use r31 as the base register because its value was saved in ir31.
   64                      ;; If this was a user process, load r29 with the current system
   65                      ;; stack pointer.  If it was a system process, just use the
   66                      ;; current stack pointer.
   67  00001010  0060f831	movs2i	r31,isr
   68  00001014  33ff0040	andi	r31,r31,0x40
   69  00001018  17e0001c	bnez	r31,intrSystem_LF0
   70  0000101c  3c1f0000	lhi	r31,(_currentPCB>>16)&0xffff
   71  00001020  27fff044	addui	r31,r31,_currentPCB&0xffff
   72  00001024  8fff0000	lw	r31,(r31)
   73  00001028  8fff0004	lw	r31,4(r31)
   74                      ;; Save the original (user) stack pointer
   75  0000102c  affdff48	sw	-184(r31),r29; we haven't yet bumped SP, and 156-340 = -184
   76                      ;; Copy the system stack pointer into r29 (current stack pointer)
   77  00001030  37fd0000	ori	r29,r31,0
   78  00001034  10000004	beqz	r0,intrSaveReg_LF0; skip over the system part....
   79  00001038          	intrSystem_LF0:
   80                      ;; Use the stack pointer we're already using
   81                      ;; Save r29 because we won't save it later
   82  00001038  afbdff48	sw	-184(r29),r29; we haven't yet bumped SP, and 156-340 = -184
   83  0000103c          	intrSaveReg_LF0:
   84                      ;; Adjust stack pointer for all the stuff we're going to push.  This
   85                      ;; is a bit more space than we need currently, but it leaves room
   86                      ;; for more stuff if needed.
   87  0000103c  2fbd0154	subui	r29,r29,#340
   88                      ;; Push all the stuff onto the stack
   89  00001040  afa1002c	sw	44(r29),r1
   90  00001044  afa20030	sw	48(r29),r2
   91  00001048  afa30034	sw	52(r29),r3
   92  0000104c  afa40038	sw	56(r29),r4
   93  00001050  afa5003c	sw	60(r29),r5
   94  00001054  afa60040	sw	64(r29),r6
   95  00001058  afa70044	sw	68(r29),r7
   96  0000105c  afa80048	sw	72(r29),r8
   97  00001060  afa9004c	sw	76(r29),r9
   98  00001064  afaa0050	sw	80(r29),r10
   99  00001068  afab0054	sw	84(r29),r11
  100  0000106c  afac0058	sw	88(r29),r12
  101  00001070  afad005c	sw	92(r29),r13
  102  00001074  afae0060	sw	96(r29),r14
  103  00001078  afaf0064	sw	100(r29),r15
  104  0000107c  afb00068	sw	104(r29),r16
  105  00001080  afb1006c	sw	108(r29),r17
  106  00001084  afb20070	sw	112(r29),r18
  107  00001088  afb30074	sw	116(r29),r19
  108  0000108c  afb40078	sw	120(r29),r20
  109  00001090  afb5007c	sw	124(r29),r21
  110  00001094  afb60080	sw	128(r29),r22
  111  00001098  afb70084	sw	132(r29),r23
  112  0000109c  afb80088	sw	136(r29),r24
  113  000010a0  afb9008c	sw	140(r29),r25
  114  000010a4  afba0090	sw	144(r29),r26
  115  000010a8  afbb0094	sw	148(r29),r27
  116  000010ac  afbc0098	sw	152(r29),r28
  117                      ;; Skip r29 - stored earlier!
  118  000010b0  afbe00a0	sw	160(r29),r30
  119                      ;; Load the value of r31 from the special register and then save it
  120  000010b4  00401831	movs2i	r3,ir31
  121  000010b8  afa300a4	sw	164(r29),r3
  122                      ;; Store the floating-point registers
  123  000010bc  bfa000a8	sd	168(r29),f0
  124  000010c0  bfa200b0	sd	176(r29),f2
  125  000010c4  bfa400b8	sd	184(r29),f4
  126  000010c8  bfa600c0	sd	192(r29),f6
  127  000010cc  bfa800c8	sd	200(r29),f8
  128  000010d0  bfaa00d0	sd	208(r29),f10
  129  000010d4  bfac00d8	sd	216(r29),f12
  130  000010d8  bfae00e0	sd	224(r29),f14
  131  000010dc  bfb000e8	sd	232(r29),f16
  132  000010e0  bfb200f0	sd	240(r29),f18
  133  000010e4  bfb400f8	sd	248(r29),f20
  134  000010e8  bfb60100	sd	256(r29),f22
  135  000010ec  bfb80108	sd	264(r29),f24
  136  000010f0  bfba0110	sd	272(r29),f26
  137  000010f4  bfbc0118	sd	280(r29),f28
  138  000010f8  bfbe0120	sd	288(r29),f30
  139                      ;; NOTE: we don't save the interrupt vector register because it
  140                      ;; doesn't change from process to process.
  141                      ;; NOTE: we don't save the status register because most of the flags
  142                      ;; are the same from process to process if they're in the interrupt
  143                      ;; handler.  Of course, we DO save the ISR.
  144  000010fc  00802031	movs2i	r4,iar
  145  00001100  afa40128	sw	296(r29),r4
  146  00001104  00602831	movs2i	r5,isr
  147  00001108  afa5012c	sw	300(r29),r5
  148  0000110c  00c03031	movs2i	r6,cause
  149  00001110  afa60130	sw	304(r29),r6
  150  00001114  01201831	movs2i	r3,fault
  151  00001118  afa30134	sw	308(r29),r3
  152  0000111c  01801831	movs2i	r3,ptbase
  153  00001120  afa30138	sw	312(r29),r3
  154  00001124  01a01831	movs2i	r3,ptsize
  155  00001128  afa3013c	sw	316(r29),r3
  156  0000112c  01c01831	movs2i	r3,ptbits
  157  00001130  afa30140	sw	320(r29),r3
  159                      ;; Push the interrupt information onto the stack
  160  00001134  afa60000	sw	0(r29),r6; push CAUSE
  161  00001138  afa40004	sw	4(r29),r4; push IAR
  162  0000113c  afa50008	sw	8(r29),r5; push ISR
  163                      ;; Get the original stack pointer
  164  00001140  8fa1009c	lw	r1,156(r29)
  165  00001144  afa1000c	sw	12(r29),r1
  166                      ;; Save the previous interrupt stack frame address in the current frame
  167  00001148  3c010000	lhi	r1,(_currentPCB>>16)&0xffff
  168  0000114c  2421f044	addui	r1,r1,_currentPCB&0xffff
  169  00001150  8c210000	lw	r1,(r1)
  170  00001154  8c220000	lw	r2,0(r1)
  171  00001158  afa20028	sw	40(r29),r2
  172                      ;; Save this frame address in the PCB.  This is used so the OS can
  173                      ;; easily access the current interrupt save frame
  174  0000115c  ac3d0000	sw	0(r1),r29
  175                      ;; Call the "real" interrupt handler.  This will possibly switch
  176                      ;; contexts.  This call never returns; instead, a separate routine
  177                      ;; (_intrreturn) is called to return from interrupts after restoring
  178                      ;; the current context.
  179  00001160  08008e00	j	_dointerrupt
  180  00001164  54000000	nop
  181  00001168          	.endproc _intrhandler
  183                      ;;;----------------------------------------------------------------------
  184                      ;;; intrreturn
  185                      ;;;
  186                      ;;; Return from an interrupt or trap.  This restores all of the previously
  187                      ;;; saved registers and then returns to where the program left off.  The
  188                      ;;; current contents of the registers are destroyed.  This routine uses
  189                      ;;; the saved interrupt frame pointer, so the stack pointer need not
  190                      ;;; be correct.  Note, though, that the register contents from the previous
  191                      ;;; process must have previously been saved - in other words, call this
  192                      ;;; routine from a trap or interrupt handler.
  193                      ;;;----------------------------------------------------------------------
  194  00001168          	.proc _intrreturn
  195  00001168          	.global _intrreturn
  196  00001168          	_intrreturn:
  197                      ;; Disable interrupts - this routine must be atomic, and interrupts
  198                      ;; may not be currently disabled.  Don't worry about saving registers
  199                      ;; because we're about to reload them anyway.
  200  00001168  0c009b80	jal	_DisableIntrs
  201                      ;; Get our interrupt stack frame location and load it into the stack
  202                      ;; pointer.
  203  0000116c  3c010000	lhi	r1,(_currentPCB>>16)&0xffff
  204  00001170  2421f044	addui	r1,r1,_currentPCB&0xffff
  205  00001174  8c210000	lw	r1,0(r1)
  206  00001178  8c3d0000	lw	r29,0(r1)
  207                      ;; Get the previous interrupt stack frame location and make it the
  208                      ;; current interrupt save frame.
  209  0000117c  8fa20028	lw	r2,40(r29)
  210  00001180  ac220000	sw	0(r1),r2
  212                      ;; Reload the registers for the new process.  We don't have to
  213                      ;; load in the exact opposite order as long as we're careful to
  214                      ;; get the right values back in.
  215  00001184  8fa30128	lw	r3,296(r29)
  216  00001188  00602030	movi2s	iar,r3
  217  0000118c  8fa3012c	lw	r3,300(r29)
  218  00001190  00601830	movi2s	isr,r3
  219  00001194  8fa30130	lw	r3,304(r29)
  220  00001198  00603030	movi2s	cause,r3
  221  0000119c  8fa30134	lw	r3,308(r29)
  222  000011a0  00604830	movi2s	fault,r3
  223  000011a4  8fa30138	lw	r3,312(r29)
  224  000011a8  00606030	movi2s	ptbase,r3
  225  000011ac  8fa3013c	lw	r3,316(r29)
  226  000011b0  00606830	movi2s	ptsize,r3
  227  000011b4  8fa30140	lw	r3,320(r29)
  228  000011b8  00607030	movi2s	ptbits,r3
  230                      ;; Reload the floating point registers
  231  000011bc  9fa000a8	ld	f0,168(r29)
  232  000011c0  9fa200b0	ld	f2,176(r29)
  233  000011c4  9fa400b8	ld	f4,184(r29)
  234  000011c8  9fa600c0	ld	f6,192(r29)
  235  000011cc  9fa800c8	ld	f8,200(r29)
  236  000011d0  9faa00d0	ld	f10,208(r29)
  237  000011d4  9fac00d8	ld	f12,216(r29)
  238  000011d8  9fae00e0	ld	f14,224(r29)
  239  000011dc  9fb000e8	ld	f16,232(r29)
  240  000011e0  9fb200f0	ld	f18,240(r29)
  241  000011e4  9fb400f8	ld	f20,248(r29)
  242  000011e8  9fb60100	ld	f22,256(r29)
  243  000011ec  9fb80108	ld	f24,264(r29)
  244  000011f0  9fba0110	ld	f26,272(r29)
  245  000011f4  9fbc0118	ld	f28,280(r29)
  246  000011f8  9fbe0120	ld	f30,288(r29)
  248                      ;; Reload the integer registers.  We don't reload r0 because it's
  249                      ;; always 0.  We won't reload r29 here because we're using it as
  250                      ;; the stack pointer.  The same goes for r1, which we'll use as
  251                      ;; scratch so we can store r29.
  252                      ;; Skip r1 - restored later
  253  000011fc  8fa20030	lw	r2,48(r29)
  254  00001200  8fa30034	lw	r3,52(r29)
  255  00001204  8fa40038	lw	r4,56(r29)
  256  00001208  8fa5003c	lw	r5,60(r29)
  257  0000120c  8fa60040	lw	r6,64(r29)
  258  00001210  8fa70044	lw	r7,68(r29)
  259  00001214  8fa80048	lw	r8,72(r29)
  260  00001218  8fa9004c	lw	r9,76(r29)
  261  0000121c  8faa0050	lw	r10,80(r29)
  262  00001220  8fab0054	lw	r11,84(r29)
  263  00001224  8fac0058	lw	r12,88(r29)
  264  00001228  8fad005c	lw	r13,92(r29)
  265  0000122c  8fae0060	lw	r14,96(r29)
  266  00001230  8faf0064	lw	r15,100(r29)
  267  00001234  8fb00068	lw	r16,104(r29)
  268  00001238  8fb1006c	lw	r17,108(r29)
  269  0000123c  8fb20070	lw	r18,112(r29)
  270  00001240  8fb30074	lw	r19,116(r29)
  271  00001244  8fb40078	lw	r20,120(r29)
  272  00001248  8fb5007c	lw	r21,124(r29)
  273  0000124c  8fb60080	lw	r22,128(r29)
  274  00001250  8fb70084	lw	r23,132(r29)
  275  00001254  8fb80088	lw	r24,136(r29)
  276  00001258  8fb9008c	lw	r25,140(r29)
  277  0000125c  8fba0090	lw	r26,144(r29)
  278  00001260  8fbb0094	lw	r27,148(r29)
  279  00001264  8fbc0098	lw	r28,152(r29)
  280                      ;; Skip r29 - restored later
  281  00001268  8fbe00a0	lw	r30,160(r29)
  282  0000126c  8fbf00a4	lw	r31,164(r29)
  284  00001270  27bd0154	addui	r29,r29,#340
  285                      ;; Save the current value of the stack pointer after adjusting it
  286                      ;; Note that this will "destroy" the stack values below this interrupt
  287                      ;; stack frame.  This is exactly what we want!
  288  00001274  ac3d0004	sw	4(r1),r29
  289  00001278  37a10000	ori	r1,r29,#0
  290  0000127c  8c3dff48	lw	r29,-184(r1); 156-340 = -184
  291  00001280  8c21fed8	lw	r1,-296(r1); 44-340 = -296
  292  00001284  40000000	rfe
  293  00001288          	.endproc _intrreturn
  295                      ;;;----------------------------------------------------------------------
  296                      ;;; SetIntrs
  297                      ;;;
  298                      ;;; This routine sets the interrupt level to the value passed (0 -> all
  299                      ;;; interrupts enabled; 0xf -> all interrupts disabled).  It returns the
  300                      ;;; former value for the interrupt flags.
  301                      ;;;----------------------------------------------------------------------
  302  00001288          	.proc _SetIntrs
  303  00001288          	.global _SetIntrs
  304  00001288          	_SetIntrs:
  305  00001288  2fbd0010	subui	r29,r29,#16
  306  0000128c  afa2000c	sw	12(r29),r2; save r2
  307  00001290  8fa20010	lw	r2,16(r29); Get the new interrupt level
  308  00001294  3042000f	andi	r2,r2,#0x0f; Mask off interrupt levels
  309  00001298  00a00831	movs2i	r1,status
  310  0000129c  afa10008	sw	8(r29),r1; Store the old interrupt values
  311  000012a0  3021fff0	andi	r1,r1,#0xfff0; Mask off old interrupt level
  312  000012a4  00410825	or	r1,r2,r1; OR in new interrupt level
  313  000012a8  00202830	movi2s	status,r1
  314  000012ac  8fa10008	lw	r1,8(r29); Get back the original interrupt level
  315  000012b0  3021000f	andi	r1,r1,#0x0f; Mask off all but interrupt levels
  316  000012b4  8fa2000c	lw	r2,12(r29); restore r2
  317  000012b8  27bd0010	addui	r29,r29,#16; restore stack pointer
  318  000012bc  4be00000	jr	r31
  319  000012c0  54000000	nop
  320  000012c4          	.endproc _SetIntrs
  322  000012c4          	.proc _CurrentIntrs
  323  000012c4          	.global _CurrentIntrs
  324  000012c4          	_CurrentIntrs:
  325  000012c4  00a00831	movs2i	r1,status
  326  000012c8  3021000f	andi	r1,r1,#0xf
  327  000012cc  4be00000	jr	r31
  328  000012d0  54000000	nop
  329  000012d4          	.endproc _CurrentIntrs
  330                      ;;;----------------------------------------------------------------------
  331                      ;;; _ProcessSleep
  332                      ;;;
  333                      ;;; If a context switch from elsewhere in the kernel is desired, take a
  334                      ;;; trap and call this routine from the trap handler.
  335                      ;;;----------------------------------------------------------------------
  336  000012d4          	.proc _ProcessSleep
  337  000012d4          	.global _ProcessSleep
  338  000012d4          	_ProcessSleep:
  339  000012d4  44000410	trap	#0x410; This is a process sleep trap
  340  000012d8  54000000	nop
  341  000012dc  4be00000	jr	r31
  342  000012e0  54000000	nop
  343  000012e4          	.endproc _ProcessSleep
  344                      ;
  345                      ; Stub functions for DLX traps.
  346                      ;
  347                      ; Aaron Sawdey 1996; released to the Public Domain.
  348                      ;
  350  000012e4          	.align 2
  351  000012e4          	.proc _random
  352  000012e4          	.global _random
  353  000012e4          	_random:
  354  000012e4  44002020	trap	#0x2020
  355  000012e8  4be00000	jr	r31
  356  000012ec  54000000	nop
  357  000012f0          	.endproc _random
  359  000012f0          	.proc _srandom
  360  000012f0          	.global _srandom
  361  000012f0          	_srandom:
  362  000012f0  44002021	trap	#0x2021
  363  000012f4  4be00000	jr	r31
  364  000012f8  54000000	nop
  365  000012fc          	.endproc _srandom
  367                      ; Compiled by GCC
  368  000012fc          	.data
  369  0000c000          	.align 2
  370  0000c000          	_rcsid_LF2:
  371  0000c000  3a206669	.ascii "$Id: filesys.c,v 1.1 2000/09/20 01:50:19 elm Exp elm $\000"
  371  0000c004  6c657379	
  371  0000c008  732e632c	
  371  0000c00c  7620312e	
  371  0000c010  31203230	
  371  0000c014  30302f30	
  371  0000c018  392f3230	
  371  0000c01c  2030313a	
  371  0000c020  35303a31	
  371  0000c024  3920656c	
  371  0000c028  6d204578	
  371  0000c02c  7020656c	
  371  0000c030  6d203030	
  371  0000c034  30      	
  372  0000c035          	.text
  373  000012fc          	.align 2
  374  000012fc          	.proc _isspace
  375  000012fc          	.global _isspace
  376  000012fc          	_isspace:
  377                      ;  Function 'isspace'; 0 bytes of locals, 1 regs to save.
  378  000012fc  afbefffc	sw	-4(r29),r30; push fp
  379  00001300  001df020	add	r30,r0,r29; fp = sp
  380  00001304  afbffff8	sw	-8(r29),r31; push ret addr
  381  00001308  2fbd0010	subui	r29,r29,#16; alloc local storage
  382  0000130c  afa20000	sw	0(r29),r2
  383  00001310  83c20003	lb	r2,3(r30)
  384  00001314  201f0000	addi	r31,r0,#0
  385  00001318  304100ff	andi	r1,r2,#0x00ff
  386  0000131c  60210020	seqi	r1,r1,#32
  387  00001320  14200018	bnez	r1,L6_LF2
  388  00001324  54000000	nop; not filled.
  389  00001328  2041fff7	addi	r1,r2,#-9
  390  0000132c  302100ff	andi	r1,r1,#0x00ff
  391  00001330  70210001	sleui	r1,r1,#1
  392  00001334  10200008	beqz	r1,L5_LF2
  393  00001338  54000000	nop; not filled.
  394  0000133c          	L6_LF2:
  395  0000133c  201f0001	addi	r31,r0,#1
  396  00001340          	L5_LF2:
  397  00001340  001f0820	add	r1,r0,r31
  398  00001344  8fa20000	lw	r2,0(r29)
  399  00001348  8fdffff8	lw	r31,-8(r30)
  400  0000134c  001ee820	add	r29,r0,r30
  401  00001350  8fdefffc	lw	r30,-4(r30)
  402  00001354  4be00000	jr	r31
  403  00001358  54000000	nop
  404  0000135c          	.endproc _isspace
  405  0000135c          	.align 2
  406  0000135c          	.proc _isxdigit
  407  0000135c          	.global _isxdigit
  408  0000135c          	_isxdigit:
  409                      ;  Function 'isxdigit'; 0 bytes of locals, 1 regs to save.
  410  0000135c  afbefffc	sw	-4(r29),r30; push fp
  411  00001360  001df020	add	r30,r0,r29; fp = sp
  412  00001364  afbffff8	sw	-8(r29),r31; push ret addr
  413  00001368  2fbd0010	subui	r29,r29,#16; alloc local storage
  414  0000136c  afa20000	sw	0(r29),r2
  415  00001370  83df0003	lb	r31,3(r30)
  416  00001374  20020000	addi	r2,r0,#0
  417  00001378  23e1ffd0	addi	r1,r31,#-48
  418  0000137c  302100ff	andi	r1,r1,#0x00ff
  419  00001380  70210009	sleui	r1,r1,#9
  420  00001384  14200028	bnez	r1,L12_LF2
  421  00001388  54000000	nop; not filled.
  422  0000138c  23e1ff9f	addi	r1,r31,#-97
  423  00001390  302100ff	andi	r1,r1,#0x00ff
  424  00001394  70210005	sleui	r1,r1,#5
  425  00001398  14200014	bnez	r1,L12_LF2
  426  0000139c  54000000	nop; not filled.
  427  000013a0  33e100ff	andi	r1,r31,#0x00ff
  428  000013a4  64210041	snei	r1,r1,#65
  429  000013a8  14200008	bnez	r1,L11_LF2
  430  000013ac  54000000	nop; not filled.
  431  000013b0          	L12_LF2:
  432  000013b0  20020001	addi	r2,r0,#1
  433  000013b4          	L11_LF2:
  434  000013b4  00020820	add	r1,r0,r2
  435  000013b8  8fa20000	lw	r2,0(r29)
  436  000013bc  8fdffff8	lw	r31,-8(r30)
  437  000013c0  001ee820	add	r29,r0,r30
  438  000013c4  8fdefffc	lw	r30,-4(r30)
  439  000013c8  4be00000	jr	r31
  440  000013cc  54000000	nop
  441  000013d0          	.endproc _isxdigit
  442  000013d0          	.align 2
  443  000013d0          	.proc _DisableIntrs
  444  000013d0          	.global _DisableIntrs
  445  000013d0          	_DisableIntrs:
  446                      ;  Function 'DisableIntrs'; 0 bytes of locals, 1 regs to save.
  447  000013d0  afbefffc	sw	-4(r29),r30; push fp
  448  000013d4  001df020	add	r30,r0,r29; fp = sp
  449  000013d8  afbffff8	sw	-8(r29),r31; push ret addr
  450  000013dc  2fbd0010	subui	r29,r29,#16; alloc local storage
  451  000013e0  afa20000	sw	0(r29),r2
  452  000013e4  23bdfff8	addi	r29,r29,#-8
  453  000013e8  2002000f	addi	r2,r0,#15
  454  000013ec  afa20000	sw	(r29),r2
  455  000013f0  0ffffe94	jal	_SetIntrs
  456  000013f4  54000000	nop; not filled.
  457  000013f8  23bd0008	addi	r29,r29,#8
  458  000013fc  8fa20000	lw	r2,0(r29)
  459  00001400  8fdffff8	lw	r31,-8(r30)
  460  00001404  001ee820	add	r29,r0,r30
  461  00001408  8fdefffc	lw	r30,-4(r30)
  462  0000140c  4be00000	jr	r31
  463  00001410  54000000	nop
  464  00001414          	.endproc _DisableIntrs
  465  00001414          	.align 2
  466  00001414          	.proc _EnableIntrs
  467  00001414          	.global _EnableIntrs
  468  00001414          	_EnableIntrs:
  469                      ;  Function 'EnableIntrs'; 0 bytes of locals, 1 regs to save.
  470  00001414  afbefffc	sw	-4(r29),r30; push fp
  471  00001418  001df020	add	r30,r0,r29; fp = sp
  472  0000141c  afbffff8	sw	-8(r29),r31; push ret addr
  473  00001420  2fbd0010	subui	r29,r29,#16; alloc local storage
  474  00001424  afa20000	sw	0(r29),r2
  475  00001428  23bdfff8	addi	r29,r29,#-8
  476  0000142c  20020000	addi	r2,r0,#0
  477  00001430  afa20000	sw	(r29),r2
  478  00001434  0ffffe50	jal	_SetIntrs
  479  00001438  54000000	nop; not filled.
  480  0000143c  23bd0008	addi	r29,r29,#8
  481  00001440  8fa20000	lw	r2,0(r29)
  482  00001444  8fdffff8	lw	r31,-8(r30)
  483  00001448  001ee820	add	r29,r0,r30
  484  0000144c  8fdefffc	lw	r30,-4(r30)
  485  00001450  4be00000	jr	r31
  486  00001454  54000000	nop
  487  00001458          	.endproc _EnableIntrs
  488  00001458          	.align 2
  489  00001458          	.proc _RestoreIntrs
  490  00001458          	.global _RestoreIntrs
  491  00001458          	_RestoreIntrs:
  492                      ;  Function 'RestoreIntrs'; 0 bytes of locals, 1 regs to save.
  493  00001458  afbefffc	sw	-4(r29),r30; push fp
  494  0000145c  001df020	add	r30,r0,r29; fp = sp
  495  00001460  afbffff8	sw	-8(r29),r31; push ret addr
  496  00001464  2fbd0010	subui	r29,r29,#16; alloc local storage
  497  00001468  afa20000	sw	0(r29),r2
  498  0000146c  23bdfff8	addi	r29,r29,#-8
  499  00001470  8fc20000	lw	r2,(r30)
  500  00001474  afa20000	sw	(r29),r2
  501  00001478  0ffffe0c	jal	_SetIntrs
  502  0000147c  54000000	nop; not filled.
  503  00001480  23bd0008	addi	r29,r29,#8
  504  00001484  8fa20000	lw	r2,0(r29)
  505  00001488  8fdffff8	lw	r31,-8(r30)
  506  0000148c  001ee820	add	r29,r0,r30
  507  00001490  8fdefffc	lw	r30,-4(r30)
  508  00001494  4be00000	jr	r31
  509  00001498  54000000	nop
  510  0000149c          	.endproc _RestoreIntrs
  511  0000149c          	.align 2
  512  0000149c          	.proc _QueueLinkInit
  513  0000149c          	.global _QueueLinkInit
  514  0000149c          	_QueueLinkInit:
  515                      ;  Function 'QueueLinkInit'; 0 bytes of locals, 1 regs to save.
  516  0000149c  afbefffc	sw	-4(r29),r30; push fp
  517  000014a0  001df020	add	r30,r0,r29; fp = sp
  518  000014a4  afbffff8	sw	-8(r29),r31; push ret addr
  519  000014a8  2fbd0010	subui	r29,r29,#16; alloc local storage
  520  000014ac  afa20000	sw	0(r29),r2
  521  000014b0  8fc10000	lw	r1,(r30)
  522  000014b4  8fc20004	lw	r2,4(r30)
  523  000014b8  201f0000	addi	r31,r0,#0
  524  000014bc  ac3f0000	sw	(r1),r31
  525  000014c0  ac22000c	sw	12(r1),r2
  526  000014c4  8fa20000	lw	r2,0(r29)
  527  000014c8  8fdffff8	lw	r31,-8(r30)
  528  000014cc  001ee820	add	r29,r0,r30
  529  000014d0  8fdefffc	lw	r30,-4(r30)
  530  000014d4  4be00000	jr	r31
  531  000014d8  54000000	nop
  532  000014dc          	.endproc _QueueLinkInit
  533  000014dc          	.align 2
  534  000014dc          	.proc _QueueNext
  535  000014dc          	.global _QueueNext
  536  000014dc          	_QueueNext:
  537                      ;  Function 'QueueNext'; 0 bytes of locals, 0 regs to save.
  538  000014dc  afbefffc	sw	-4(r29),r30; push fp
  539  000014e0  001df020	add	r30,r0,r29; fp = sp
  540  000014e4  afbffff8	sw	-8(r29),r31; push ret addr
  541  000014e8  2fbd0008	subui	r29,r29,#8; alloc local storage
  542  000014ec  8fc10000	lw	r1,(r30)
  543  000014f0  8c210000	lw	r1,(r1)
  544  000014f4  8fdffff8	lw	r31,-8(r30)
  545  000014f8  001ee820	add	r29,r0,r30
  546  000014fc  8fdefffc	lw	r30,-4(r30)
  547  00001500  4be00000	jr	r31
  548  00001504  54000000	nop
  549  00001508          	.endproc _QueueNext
  550  00001508          	.align 2
  551  00001508          	.proc _QueuePrev
  552  00001508          	.global _QueuePrev
  553  00001508          	_QueuePrev:
  554                      ;  Function 'QueuePrev'; 0 bytes of locals, 0 regs to save.
  555  00001508  afbefffc	sw	-4(r29),r30; push fp
  556  0000150c  001df020	add	r30,r0,r29; fp = sp
  557  00001510  afbffff8	sw	-8(r29),r31; push ret addr
  558  00001514  2fbd0008	subui	r29,r29,#8; alloc local storage
  559  00001518  8fc10000	lw	r1,(r30)
  560  0000151c  8c210004	lw	r1,4(r1)
  561  00001520  8fdffff8	lw	r31,-8(r30)
  562  00001524  001ee820	add	r29,r0,r30
  563  00001528  8fdefffc	lw	r30,-4(r30)
  564  0000152c  4be00000	jr	r31
  565  00001530  54000000	nop
  566  00001534          	.endproc _QueuePrev
  567  00001534          	.align 2
  568  00001534          	.proc _QueueFirst
  569  00001534          	.global _QueueFirst
  570  00001534          	_QueueFirst:
  571                      ;  Function 'QueueFirst'; 0 bytes of locals, 0 regs to save.
  572  00001534  afbefffc	sw	-4(r29),r30; push fp
  573  00001538  001df020	add	r30,r0,r29; fp = sp
  574  0000153c  afbffff8	sw	-8(r29),r31; push ret addr
  575  00001540  2fbd0008	subui	r29,r29,#8; alloc local storage
  576  00001544  8fc10000	lw	r1,(r30)
  577  00001548  8c210000	lw	r1,(r1)
  578  0000154c  8fdffff8	lw	r31,-8(r30)
  579  00001550  001ee820	add	r29,r0,r30
  580  00001554  8fdefffc	lw	r30,-4(r30)
  581  00001558  4be00000	jr	r31
  582  0000155c  54000000	nop
  583  00001560          	.endproc _QueueFirst
  584  00001560          	.align 2
  585  00001560          	.proc _QueueLast
  586  00001560          	.global _QueueLast
  587  00001560          	_QueueLast:
  588                      ;  Function 'QueueLast'; 0 bytes of locals, 0 regs to save.
  589  00001560  afbefffc	sw	-4(r29),r30; push fp
  590  00001564  001df020	add	r30,r0,r29; fp = sp
  591  00001568  afbffff8	sw	-8(r29),r31; push ret addr
  592  0000156c  2fbd0008	subui	r29,r29,#8; alloc local storage
  593  00001570  8fc10000	lw	r1,(r30)
  594  00001574  8c210004	lw	r1,4(r1)
  595  00001578  8fdffff8	lw	r31,-8(r30)
  596  0000157c  001ee820	add	r29,r0,r30
  597  00001580  8fdefffc	lw	r30,-4(r30)
  598  00001584  4be00000	jr	r31
  599  00001588  54000000	nop
  600  0000158c          	.endproc _QueueLast
  601  0000158c          	.align 2
  602  0000158c          	.proc _QueueInsertAfter
  603  0000158c          	.global _QueueInsertAfter
  604  0000158c          	_QueueInsertAfter:
  605                      ;  Function 'QueueInsertAfter'; 0 bytes of locals, 2 regs to save.
  606  0000158c  afbefffc	sw	-4(r29),r30; push fp
  607  00001590  001df020	add	r30,r0,r29; fp = sp
  608  00001594  afbffff8	sw	-8(r29),r31; push ret addr
  609  00001598  2fbd0010	subui	r29,r29,#16; alloc local storage
  610  0000159c  afa20000	sw	0(r29),r2
  611  000015a0  afa30004	sw	4(r29),r3
  612  000015a4  8fc30000	lw	r3,(r30)
  613  000015a8  8fc20004	lw	r2,4(r30)
  614  000015ac  8fc10008	lw	r1,8(r30)
  615  000015b0  ac230008	sw	8(r1),r3
  616  000015b4  ac220004	sw	4(r1),r2
  617  000015b8  8c5f0000	lw	r31,(r2)
  618  000015bc  ac3f0000	sw	(r1),r31
  619  000015c0  ac410000	sw	(r2),r1
  620  000015c4  8c220000	lw	r2,(r1)
  621  000015c8  ac410004	sw	4(r2),r1
  622  000015cc  8c610008	lw	r1,8(r3)
  623  000015d0  20210001	addi	r1,r1,#1
  624  000015d4  ac610008	sw	8(r3),r1
  625  000015d8  8fa20000	lw	r2,0(r29)
  626  000015dc  8fa30004	lw	r3,4(r29)
  627  000015e0  8fdffff8	lw	r31,-8(r30)
  628  000015e4  001ee820	add	r29,r0,r30
  629  000015e8  8fdefffc	lw	r30,-4(r30)
  630  000015ec  4be00000	jr	r31
  631  000015f0  54000000	nop
  632  000015f4          	.endproc _QueueInsertAfter
  633  000015f4          	.align 2
  634  000015f4          	.proc _QueueInsertFirst
  635  000015f4          	.global _QueueInsertFirst
  636  000015f4          	_QueueInsertFirst:
  637                      ;  Function 'QueueInsertFirst'; 0 bytes of locals, 2 regs to save.
  638  000015f4  afbefffc	sw	-4(r29),r30; push fp
  639  000015f8  001df020	add	r30,r0,r29; fp = sp
  640  000015fc  afbffff8	sw	-8(r29),r31; push ret addr
  641  00001600  2fbd0010	subui	r29,r29,#16; alloc local storage
  642  00001604  afa20000	sw	0(r29),r2
  643  00001608  afa30004	sw	4(r29),r3
  644  0000160c  8fc30000	lw	r3,(r30)
  645  00001610  8fc10004	lw	r1,4(r30)
  646  00001614  ac230008	sw	8(r1),r3
  647  00001618  ac230004	sw	4(r1),r3
  648  0000161c  8c7f0000	lw	r31,(r3)
  649  00001620  ac3f0000	sw	(r1),r31
  650  00001624  ac610000	sw	(r3),r1
  651  00001628  8c220000	lw	r2,(r1)
  652  0000162c  ac410004	sw	4(r2),r1
  653  00001630  8c610008	lw	r1,8(r3)
  654  00001634  20210001	addi	r1,r1,#1
  655  00001638  ac610008	sw	8(r3),r1
  656  0000163c  8fa20000	lw	r2,0(r29)
  657  00001640  8fa30004	lw	r3,4(r29)
  658  00001644  8fdffff8	lw	r31,-8(r30)
  659  00001648  001ee820	add	r29,r0,r30
  660  0000164c  8fdefffc	lw	r30,-4(r30)
  661  00001650  4be00000	jr	r31
  662  00001654  54000000	nop
  663  00001658          	.endproc _QueueInsertFirst
  664  00001658          	.align 2
  665  00001658          	.proc _QueueInsertLast
  666  00001658          	.global _QueueInsertLast
  667  00001658          	_QueueInsertLast:
  668                      ;  Function 'QueueInsertLast'; 0 bytes of locals, 2 regs to save.
  669  00001658  afbefffc	sw	-4(r29),r30; push fp
  670  0000165c  001df020	add	r30,r0,r29; fp = sp
  671  00001660  afbffff8	sw	-8(r29),r31; push ret addr
  672  00001664  2fbd0010	subui	r29,r29,#16; alloc local storage
  673  00001668  afa20000	sw	0(r29),r2
  674  0000166c  afa30004	sw	4(r29),r3
  675  00001670  8fc30000	lw	r3,(r30)
  676  00001674  8fc10004	lw	r1,4(r30)
  677  00001678  8c620004	lw	r2,4(r3)
  678  0000167c  ac230008	sw	8(r1),r3
  679  00001680  ac220004	sw	4(r1),r2
  680  00001684  8c5f0000	lw	r31,(r2)
  681  00001688  ac3f0000	sw	(r1),r31
  682  0000168c  ac410000	sw	(r2),r1
  683  00001690  8c220000	lw	r2,(r1)
  684  00001694  ac410004	sw	4(r2),r1
  685  00001698  8c610008	lw	r1,8(r3)
  686  0000169c  20210001	addi	r1,r1,#1
  687  000016a0  ac610008	sw	8(r3),r1
  688  000016a4  8fa20000	lw	r2,0(r29)
  689  000016a8  8fa30004	lw	r3,4(r29)
  690  000016ac  8fdffff8	lw	r31,-8(r30)
  691  000016b0  001ee820	add	r29,r0,r30
  692  000016b4  8fdefffc	lw	r30,-4(r30)
  693  000016b8  4be00000	jr	r31
  694  000016bc  54000000	nop
  695  000016c0          	.endproc _QueueInsertLast
  696  000016c0          	.align 2
  697  000016c0          	.proc _QueueRemove
  698  000016c0          	.global _QueueRemove
  699  000016c0          	_QueueRemove:
  700                      ;  Function 'QueueRemove'; 0 bytes of locals, 2 regs to save.
  701  000016c0  afbefffc	sw	-4(r29),r30; push fp
  702  000016c4  001df020	add	r30,r0,r29; fp = sp
  703  000016c8  afbffff8	sw	-8(r29),r31; push ret addr
  704  000016cc  2fbd0010	subui	r29,r29,#16; alloc local storage
  705  000016d0  afa20000	sw	0(r29),r2
  706  000016d4  afa30004	sw	4(r29),r3
  707  000016d8  8fdf0000	lw	r31,(r30)
  708  000016dc  8fe10008	lw	r1,8(r31)
  709  000016e0  8c210008	lw	r1,8(r1)
  710  000016e4  6c210000	sgti	r1,r1,#0
  711  000016e8  1020002c	beqz	r1,L44_LF2
  712  000016ec  54000000	nop; not filled.
  713  000016f0  8fe10004	lw	r1,4(r31)
  714  000016f4  8fe30000	lw	r3,(r31)
  715  000016f8  ac230000	sw	(r1),r3
  716  000016fc  8fe10000	lw	r1,(r31)
  717  00001700  8fe30004	lw	r3,4(r31)
  718  00001704  ac230004	sw	4(r1),r3
  719  00001708  8fe20008	lw	r2,8(r31)
  720  0000170c  8c410008	lw	r1,8(r2)
  721  00001710  2021ffff	addi	r1,r1,#-1
  722  00001714  ac410008	sw	8(r2),r1
  723  00001718          	L44_LF2:
  724  00001718  20030000	addi	r3,r0,#0
  725  0000171c  afe30000	sw	(r31),r3
  726  00001720  8fa20000	lw	r2,0(r29)
  727  00001724  8fa30004	lw	r3,4(r29)
  728  00001728  8fdffff8	lw	r31,-8(r30)
  729  0000172c  001ee820	add	r29,r0,r30
  730  00001730  8fdefffc	lw	r30,-4(r30)
  731  00001734  4be00000	jr	r31
  732  00001738  54000000	nop
  733  0000173c          	.endproc _QueueRemove
  734  0000173c          	.align 2
  735  0000173c          	.proc _QueueLength
  736  0000173c          	.global _QueueLength
  737  0000173c          	_QueueLength:
  738                      ;  Function 'QueueLength'; 0 bytes of locals, 0 regs to save.
  739  0000173c  afbefffc	sw	-4(r29),r30; push fp
  740  00001740  001df020	add	r30,r0,r29; fp = sp
  741  00001744  afbffff8	sw	-8(r29),r31; push ret addr
  742  00001748  2fbd0008	subui	r29,r29,#8; alloc local storage
  743  0000174c  8fc10000	lw	r1,(r30)
  744  00001750  8c210008	lw	r1,8(r1)
  745  00001754  8fdffff8	lw	r31,-8(r30)
  746  00001758  001ee820	add	r29,r0,r30
  747  0000175c  8fdefffc	lw	r30,-4(r30)
  748  00001760  4be00000	jr	r31
  749  00001764  54000000	nop
  750  00001768          	.endproc _QueueLength
  751  00001768          	.align 2
  752  00001768          	.proc _QueueEmpty
  753  00001768          	.global _QueueEmpty
  754  00001768          	_QueueEmpty:
  755                      ;  Function 'QueueEmpty'; 0 bytes of locals, 0 regs to save.
  756  00001768  afbefffc	sw	-4(r29),r30; push fp
  757  0000176c  001df020	add	r30,r0,r29; fp = sp
  758  00001770  afbffff8	sw	-8(r29),r31; push ret addr
  759  00001774  2fbd0008	subui	r29,r29,#8; alloc local storage
  760  00001778  8fc10000	lw	r1,(r30)
  761  0000177c  8c210008	lw	r1,8(r1)
  762  00001780  60210000	seqi	r1,r1,#0
  763  00001784  8fdffff8	lw	r31,-8(r30)
  764  00001788  001ee820	add	r29,r0,r30
  765  0000178c  8fdefffc	lw	r30,-4(r30)
  766  00001790  4be00000	jr	r31
  767  00001794  54000000	nop
  768  00001798          	.endproc _QueueEmpty
  769  00001798          	.data
  770  0000c035          	.align 2
  771  0000c038          	LC0_LF2:
  772  0000c038  41747465	.ascii "Attepmting to open %s mode=%d.\n\000"
  772  0000c03c  706d7469	
  772  0000c040  6e672074	
  772  0000c044  6f206f70	
  772  0000c048  656e2025	
  772  0000c04c  73206d6f	
  772  0000c050  64653d25	
  772  0000c054  642e0a00	
  773  0000c058          	.align 2
  774  0000c058          	LC1_LF2:
  775  0000c058  646c783a	.ascii "dlx:\000"
  775  0000c05c  00      	
  776  0000c05d          	.align 2
  777  0000c060          	LC2_LF2:
  778  0000c060  46696c65	.ascii "File %s opening in file system %d.\n\000"
  778  0000c064  20257320	
  778  0000c068  6f70656e	
  778  0000c06c  696e6720	
  778  0000c070  696e2066	
  778  0000c074  696c6520	
  778  0000c078  73797374	
  778  0000c07c  656d2025	
  778  0000c080  642e0a00	
  779  0000c084          	.align 2
  780  0000c084          	LC3_LF2:
  781  0000c084  4f70656e	.ascii "Opened %s in FS %d, mode=%d slot=%d.\n\000"
  781  0000c088  65642025	
  781  0000c08c  7320696e	
  781  0000c090  20465320	
  781  0000c094  25642c20	
  781  0000c098  6d6f6465	
  781  0000c09c  3d256420	
  781  0000c0a0  736c6f74	
  781  0000c0a4  3d25642e	
  781  0000c0a8  0a00    	
  782  0000c0aa          	.text
  783  00001798          	.align 2
  784  00001798          	.proc _FsOpen
  785  00001798          	.global _FsOpen
  786  00001798          	_FsOpen:
  787                      ;  Function 'FsOpen'; 0 bytes of locals, 7 regs to save.
  788  00001798  afbefffc	sw	-4(r29),r30; push fp
  789  0000179c  001df020	add	r30,r0,r29; fp = sp
  790  000017a0  afbffff8	sw	-8(r29),r31; push ret addr
  791  000017a4  2fbd0028	subui	r29,r29,#40; alloc local storage
  792  000017a8  afa20000	sw	0(r29),r2
  793  000017ac  afa30004	sw	4(r29),r3
  794  000017b0  afa40008	sw	8(r29),r4
  795  000017b4  afa5000c	sw	12(r29),r5
  796  000017b8  afa60010	sw	16(r29),r6
  797  000017bc  afa70014	sw	20(r29),r7
  798  000017c0  afa80018	sw	24(r29),r8
  799  000017c4  8fc40000	lw	r4,(r30)
  800  000017c8  8fc50004	lw	r5,4(r30)
  801  000017cc  23bdfff8	addi	r29,r29,#-8
  802  000017d0  3c020000	lhi	r2,((_debugstr)>>16)&0xffff
  803  000017d4  2442ef7c	addui	r2,r2,(_debugstr)&0xffff
  804  000017d8  afa20000	sw	(r29),r2
  805  000017dc  20080066	addi	r8,r0,#102
  806  000017e0  afa80004	sw	4(r29),r8
  807  000017e4  0c002708	jal	_dindex
  808  000017e8  54000000	nop; not filled.
  809  000017ec  23bd0008	addi	r29,r29,#8
  810  000017f0  64210000	snei	r1,r1,#0
  811  000017f4  1420002c	bnez	r1,L56_LF2
  812  000017f8  54000000	nop; not filled.
  813  000017fc  23bdfff8	addi	r29,r29,#-8
  814  00001800  afa20000	sw	(r29),r2
  815  00001804  2008002b	addi	r8,r0,#43
  816  00001808  afa80004	sw	4(r29),r8
  817  0000180c  0c0026e0	jal	_dindex
  818  00001810  54000000	nop; not filled.
  819  00001814  23bd0008	addi	r29,r29,#8
  820  00001818  64210000	snei	r1,r1,#0
  821  0000181c  10200028	beqz	r1,L55_LF2
  822  00001820  54000000	nop; not filled.
  823  00001824          	L56_LF2:
  824  00001824  23bdfff0	addi	r29,r29,#-16
  825  00001828  3c080000	lhi	r8,((LC0_LF2)>>16)&0xffff
  826  0000182c  2508c038	addui	r8,r8,(LC0_LF2)&0xffff
  827  00001830  afa80000	sw	(r29),r8
  828  00001834  afa40004	sw	4(r29),r4
  829  00001838  afa50008	sw	8(r29),r5
  830  0000183c  0c009cb8	jal	_printf
  831  00001840  54000000	nop; not filled.
  832  00001844  23bd0010	addi	r29,r29,#16
  833  00001848          	L55_LF2:
  834  00001848  30a50003	andi	r5,r5,#3
  835  0000184c  64a10000	snei	r1,r5,#0
  836  00001850  10200044	beqz	r1,L74_LF2
  837  00001854  54000000	nop; not filled.
  838  00001858  20030000	addi	r3,r0,#0
  839  0000185c  3c060000	lhi	r6,((_openfiles_LF2)>>16)&0xffff
  840  00001860  24c6c110	addui	r6,r6,(_openfiles_LF2)&0xffff
  841  00001864  00061020	add	r2,r0,r6
  842  00001868          	L61_LF2:
  843  00001868  8c410004	lw	r1,4(r2)
  844  0000186c  64210000	snei	r1,r1,#0
  845  00001870  10200018	beqz	r1,L59_LF2
  846  00001874  54000000	nop; not filled.
  847  00001878  2042010c	addi	r2,r2,#268
  848  0000187c  20630001	addi	r3,r3,#1
  849  00001880  7061001f	slei	r1,r3,#31
  850  00001884  1420ffe0	bnez	r1,L61_LF2
  851  00001888  54000000	nop; not filled.
  852  0000188c          	L59_LF2:
  853  0000188c  6c61001f	sgti	r1,r3,#31
  854  00001890  10200010	beqz	r1,L64_LF2
  855  00001894  54000000	nop; not filled.
  856  00001898          	L74_LF2:
  857  00001898  2001ffff	addi	r1,r0,#-1
  858  0000189c  08000224	j	L73_LF2
  859  000018a0  54000000	nop; not filled.
  860  000018a4          	L64_LF2:
  861  000018a4  50610004	slli	r1,r3,#0x4
  862  000018a8  00230820	add	r1,r1,r3
  863  000018ac  50210002	slli	r1,r1,#0x2
  864  000018b0  00230822	sub	r1,r1,r3
  865  000018b4  50210002	slli	r1,r1,#0x2
  866  000018b8  00261020	add	r2,r1,r6
  867  000018bc  ac450004	sw	4(r2),r5
  868  000018c0  23bdfff0	addi	r29,r29,#-16
  869  000018c4  afa40000	sw	(r29),r4
  870  000018c8  3c010000	lhi	r1,((LC1_LF2)>>16)&0xffff
  871  000018cc  2421c058	addui	r1,r1,(LC1_LF2)&0xffff
  872  000018d0  afa10004	sw	4(r29),r1
  873  000018d4  20080004	addi	r8,r0,#4
  874  000018d8  afa80008	sw	8(r29),r8
  875  000018dc  0c0022cc	jal	_dstrncmp
  876  000018e0  54000000	nop; not filled.
  877  000018e4  23bd0010	addi	r29,r29,#16
  878  000018e8  64210000	snei	r1,r1,#0
  879  000018ec  14200014	bnez	r1,L65_LF2
  880  000018f0  54000000	nop; not filled.
  881  000018f4  20840004	addi	r4,r4,#4
  882  000018f8  20080001	addi	r8,r0,#1
  883  000018fc  08000008	j	L75_LF2
  884  00001900  54000000	nop; not filled.
  885  00001904          	L65_LF2:
  886  00001904  20080000	addi	r8,r0,#0
  887  00001908          	L75_LF2:
  888  00001908  ac480000	sw	(r2),r8
  889  0000190c  23bdfff8	addi	r29,r29,#-8
  890  00001910  3c020000	lhi	r2,((_debugstr)>>16)&0xffff
  891  00001914  2442ef7c	addui	r2,r2,(_debugstr)&0xffff
  892  00001918  afa20000	sw	(r29),r2
  893  0000191c  20080066	addi	r8,r0,#102
  894  00001920  afa80004	sw	4(r29),r8
  895  00001924  0c0025c8	jal	_dindex
  896  00001928  54000000	nop; not filled.
  897  0000192c  23bd0008	addi	r29,r29,#8
  898  00001930  64210000	snei	r1,r1,#0
  899  00001934  1420002c	bnez	r1,L68_LF2
  900  00001938  54000000	nop; not filled.
  901  0000193c  23bdfff8	addi	r29,r29,#-8
  902  00001940  afa20000	sw	(r29),r2
  903  00001944  2008002b	addi	r8,r0,#43
  904  00001948  afa80004	sw	4(r29),r8
  905  0000194c  0c0025a0	jal	_dindex
  906  00001950  54000000	nop; not filled.
  907  00001954  23bd0008	addi	r29,r29,#8
  908  00001958  64210000	snei	r1,r1,#0
  909  0000195c  1020004c	beqz	r1,L67_LF2
  910  00001960  54000000	nop; not filled.
  911  00001964          	L68_LF2:
  912  00001964  23bdfff0	addi	r29,r29,#-16
  913  00001968  3c080000	lhi	r8,((LC2_LF2)>>16)&0xffff
  914  0000196c  2508c060	addui	r8,r8,(LC2_LF2)&0xffff
  915  00001970  afa80000	sw	(r29),r8
  916  00001974  afa40004	sw	4(r29),r4
  917  00001978  50610004	slli	r1,r3,#0x4
  918  0000197c  00230820	add	r1,r1,r3
  919  00001980  50210002	slli	r1,r1,#0x2
  920  00001984  00230822	sub	r1,r1,r3
  921  00001988  50210002	slli	r1,r1,#0x2
  922  0000198c  3c080000	lhi	r8,((_openfiles_LF2)>>16)&0xffff
  923  00001990  2508c110	addui	r8,r8,(_openfiles_LF2)&0xffff
  924  00001994  00280820	add	r1,r1,r8
  925  00001998  8c210000	lw	r1,(r1)
  926  0000199c  afa10008	sw	8(r29),r1
  927  000019a0  0c009b54	jal	_printf
  928  000019a4  54000000	nop; not filled.
  929  000019a8  23bd0010	addi	r29,r29,#16
  930  000019ac          	L67_LF2:
  931  000019ac  23bdfff0	addi	r29,r29,#-16
  932  000019b0  50610004	slli	r1,r3,#0x4
  933  000019b4  00230820	add	r1,r1,r3
  934  000019b8  50210002	slli	r1,r1,#0x2
  935  000019bc  00230822	sub	r1,r1,r3
  936  000019c0  50260002	slli	r6,r1,#0x2
  937  000019c4  3c080000	lhi	r8,((_openfiles_LF2)>>16)&0xffff
  938  000019c8  2508c110	addui	r8,r8,(_openfiles_LF2)&0xffff
  939  000019cc  00c83820	add	r7,r6,r8
  940  000019d0  8ce20000	lw	r2,(r7)
  941  000019d4  50410001	slli	r1,r2,#0x1
  942  000019d8  00220820	add	r1,r1,r2
  943  000019dc  50210003	slli	r1,r1,#0x3
  944  000019e0  3c080000	lhi	r8,((_fs_LF2)>>16)&0xffff
  945  000019e4  2508c0e0	addui	r8,r8,(_fs_LF2)&0xffff
  946  000019e8  00280820	add	r1,r1,r8
  947  000019ec  afa30000	sw	(r29),r3
  948  000019f0  afa40004	sw	4(r29),r4
  949  000019f4  afa50008	sw	8(r29),r5
  950  000019f8  8c210000	lw	r1,(r1)
  951  000019fc  4c200000	jalr	r1
  952  00001a00  54000000	nop; not filled.
  953  00001a04  00011020	add	r2,r0,r1
  954  00001a08  23bd0010	addi	r29,r29,#16
  955  00001a0c  68410000	slti	r1,r2,#0
  956  00001a10  10200024	beqz	r1,L69_LF2
  957  00001a14  54000000	nop; not filled.
  958  00001a18  3c080000	lhi	r8,((_openfiles_LF2)>>16)&0xffff
  959  00001a1c  2508c110	addui	r8,r8,(_openfiles_LF2)&0xffff
  960  00001a20  00c80820	add	r1,r6,r8
  961  00001a24  20080000	addi	r8,r0,#0
  962  00001a28  ac280004	sw	4(r1),r8
  963  00001a2c  00020820	add	r1,r0,r2
  964  00001a30  08000090	j	L73_LF2
  965  00001a34  54000000	nop; not filled.
  966  00001a38          	L69_LF2:
  967  00001a38  23bdfff8	addi	r29,r29,#-8
  968  00001a3c  3c020000	lhi	r2,((_debugstr)>>16)&0xffff
  969  00001a40  2442ef7c	addui	r2,r2,(_debugstr)&0xffff
  970  00001a44  afa20000	sw	(r29),r2
  971  00001a48  20080066	addi	r8,r0,#102
  972  00001a4c  afa80004	sw	4(r29),r8
  973  00001a50  0c00249c	jal	_dindex
  974  00001a54  54000000	nop; not filled.
  975  00001a58  23bd0008	addi	r29,r29,#8
  976  00001a5c  64210000	snei	r1,r1,#0
  977  00001a60  1420002c	bnez	r1,L72_LF2
  978  00001a64  54000000	nop; not filled.
  979  00001a68  23bdfff8	addi	r29,r29,#-8
  980  00001a6c  afa20000	sw	(r29),r2
  981  00001a70  2008002b	addi	r8,r0,#43
  982  00001a74  afa80004	sw	4(r29),r8
  983  00001a78  0c002474	jal	_dindex
  984  00001a7c  54000000	nop; not filled.
  985  00001a80  23bd0008	addi	r29,r29,#8
  986  00001a84  64210000	snei	r1,r1,#0
  987  00001a88  10200034	beqz	r1,L71_LF2
  988  00001a8c  54000000	nop; not filled.
  989  00001a90          	L72_LF2:
  990  00001a90  23bdffe8	addi	r29,r29,#-24
  991  00001a94  3c080000	lhi	r8,((LC3_LF2)>>16)&0xffff
  992  00001a98  2508c084	addui	r8,r8,(LC3_LF2)&0xffff
  993  00001a9c  afa80000	sw	(r29),r8
  994  00001aa0  afa40004	sw	4(r29),r4
  995  00001aa4  8ce70000	lw	r7,(r7)
  996  00001aa8  afa70008	sw	8(r29),r7
  997  00001aac  afa5000c	sw	12(r29),r5
  998  00001ab0  afa30010	sw	16(r29),r3
  999  00001ab4  0c009a40	jal	_printf
 1000  00001ab8  54000000	nop; not filled.
 1001  00001abc  23bd0018	addi	r29,r29,#24
 1002  00001ac0          	L71_LF2:
 1003  00001ac0  00030820	add	r1,r0,r3
 1004  00001ac4          	L73_LF2:
 1005  00001ac4  8fa20000	lw	r2,0(r29)
 1006  00001ac8  8fa30004	lw	r3,4(r29)
 1007  00001acc  8fa40008	lw	r4,8(r29)
 1008  00001ad0  8fa5000c	lw	r5,12(r29)
 1009  00001ad4  8fa60010	lw	r6,16(r29)
 1010  00001ad8  8fa70014	lw	r7,20(r29)
 1011  00001adc  8fa80018	lw	r8,24(r29)
 1012  00001ae0  8fdffff8	lw	r31,-8(r30)
 1013  00001ae4  001ee820	add	r29,r0,r30
 1014  00001ae8  8fdefffc	lw	r30,-4(r30)
 1015  00001aec  4be00000	jr	r31
 1016  00001af0  54000000	nop
 1017  00001af4          	.endproc _FsOpen
 1018  00001af4          	.align 2
 1019  00001af4          	.proc _FsClose
 1020  00001af4          	.global _FsClose
 1021  00001af4          	_FsClose:
 1022                      ;  Function 'FsClose'; 0 bytes of locals, 3 regs to save.
 1023  00001af4  afbefffc	sw	-4(r29),r30; push fp
 1024  00001af8  001df020	add	r30,r0,r29; fp = sp
 1025  00001afc  afbffff8	sw	-8(r29),r31; push ret addr
 1026  00001b00  2fbd0018	subui	r29,r29,#24; alloc local storage
 1027  00001b04  afa20000	sw	0(r29),r2
 1028  00001b08  afa30004	sw	4(r29),r3
 1029  00001b0c  afa40008	sw	8(r29),r4
 1030  00001b10  8fdf0000	lw	r31,(r30)
 1031  00001b14  20020000	addi	r2,r0,#0
 1032  00001b18  23e1ffff	addi	r1,r31,#-1
 1033  00001b1c  7021001e	sleui	r1,r1,#30
 1034  00001b20  10200038	beqz	r1,L84_LF2
 1035  00001b24  54000000	nop; not filled.
 1036  00001b28  53e10004	slli	r1,r31,#0x4
 1037  00001b2c  003f0820	add	r1,r1,r31
 1038  00001b30  50210002	slli	r1,r1,#0x2
 1039  00001b34  003f0822	sub	r1,r1,r31
 1040  00001b38  50210002	slli	r1,r1,#0x2
 1041  00001b3c  3c040000	lhi	r4,((_openfiles_LF2)>>16)&0xffff
 1042  00001b40  2484c110	addui	r4,r4,(_openfiles_LF2)&0xffff
 1043  00001b44  00240820	add	r1,r1,r4
 1044  00001b48  8c210004	lw	r1,4(r1)
 1045  00001b4c  64210000	snei	r1,r1,#0
 1046  00001b50  10200008	beqz	r1,L84_LF2
 1047  00001b54  54000000	nop; not filled.
 1048  00001b58  20020001	addi	r2,r0,#1
 1049  00001b5c          	L84_LF2:
 1050  00001b5c  64410000	snei	r1,r2,#0
 1051  00001b60  10200074	beqz	r1,L82_LF2
 1052  00001b64  54000000	nop; not filled.
 1053  00001b68  23bdfff8	addi	r29,r29,#-8
 1054  00001b6c  53e10004	slli	r1,r31,#0x4
 1055  00001b70  003f0820	add	r1,r1,r31
 1056  00001b74  50210002	slli	r1,r1,#0x2
 1057  00001b78  003f0822	sub	r1,r1,r31
 1058  00001b7c  50230002	slli	r3,r1,#0x2
 1059  00001b80  3c040000	lhi	r4,((_openfiles_LF2)>>16)&0xffff
 1060  00001b84  2484c110	addui	r4,r4,(_openfiles_LF2)&0xffff
 1061  00001b88  00640820	add	r1,r3,r4
 1062  00001b8c  8c220000	lw	r2,(r1)
 1063  00001b90  50410001	slli	r1,r2,#0x1
 1064  00001b94  00220820	add	r1,r1,r2
 1065  00001b98  50210003	slli	r1,r1,#0x3
 1066  00001b9c  3c040000	lhi	r4,((_fs_LF2)>>16)&0xffff
 1067  00001ba0  2484c0e0	addui	r4,r4,(_fs_LF2)&0xffff
 1068  00001ba4  00240820	add	r1,r1,r4
 1069  00001ba8  afbf0000	sw	(r29),r31
 1070  00001bac  8c210010	lw	r1,16(r1)
 1071  00001bb0  4c200000	jalr	r1
 1072  00001bb4  54000000	nop; not filled.
 1073  00001bb8  23bd0008	addi	r29,r29,#8
 1074  00001bbc  3c040000	lhi	r4,((_openfiles_LF2)>>16)&0xffff
 1075  00001bc0  2484c110	addui	r4,r4,(_openfiles_LF2)&0xffff
 1076  00001bc4  00641020	add	r2,r3,r4
 1077  00001bc8  20040000	addi	r4,r0,#0
 1078  00001bcc  ac440004	sw	4(r2),r4
 1079  00001bd0  08000008	j	L86_LF2
 1080  00001bd4  54000000	nop; not filled.
 1081  00001bd8          	L82_LF2:
 1082  00001bd8  2001ffff	addi	r1,r0,#-1
 1083  00001bdc          	L86_LF2:
 1084  00001bdc  8fa20000	lw	r2,0(r29)
 1085  00001be0  8fa30004	lw	r3,4(r29)
 1086  00001be4  8fa40008	lw	r4,8(r29)
 1087  00001be8  8fdffff8	lw	r31,-8(r30)
 1088  00001bec  001ee820	add	r29,r0,r30
 1089  00001bf0  8fdefffc	lw	r30,-4(r30)
 1090  00001bf4  4be00000	jr	r31
 1091  00001bf8  54000000	nop
 1092  00001bfc          	.endproc _FsClose
 1093  00001bfc          	.align 2
 1094  00001bfc          	.proc _FsRead
 1095  00001bfc          	.global _FsRead
 1096  00001bfc          	_FsRead:
 1097                      ;  Function 'FsRead'; 0 bytes of locals, 2 regs to save.
 1098  00001bfc  afbefffc	sw	-4(r29),r30; push fp
 1099  00001c00  001df020	add	r30,r0,r29; fp = sp
 1100  00001c04  afbffff8	sw	-8(r29),r31; push ret addr
 1101  00001c08  2fbd0010	subui	r29,r29,#16; alloc local storage
 1102  00001c0c  afa20000	sw	0(r29),r2
 1103  00001c10  afa30004	sw	4(r29),r3
 1104  00001c14  8fdf0000	lw	r31,(r30)
 1105  00001c18  20020000	addi	r2,r0,#0
 1106  00001c1c  23e1ffff	addi	r1,r31,#-1
 1107  00001c20  7021001e	sleui	r1,r1,#30
 1108  00001c24  10200038	beqz	r1,L94_LF2
 1109  00001c28  54000000	nop; not filled.
 1110  00001c2c  53e10004	slli	r1,r31,#0x4
 1111  00001c30  003f0820	add	r1,r1,r31
 1112  00001c34  50210002	slli	r1,r1,#0x2
 1113  00001c38  003f0822	sub	r1,r1,r31
 1114  00001c3c  50210002	slli	r1,r1,#0x2
 1115  00001c40  3c030000	lhi	r3,((_openfiles_LF2)>>16)&0xffff
 1116  00001c44  2463c110	addui	r3,r3,(_openfiles_LF2)&0xffff
 1117  00001c48  00230820	add	r1,r1,r3
 1118  00001c4c  8c210004	lw	r1,4(r1)
 1119  00001c50  64210000	snei	r1,r1,#0
 1120  00001c54  10200008	beqz	r1,L94_LF2
 1121  00001c58  54000000	nop; not filled.
 1122  00001c5c  20020001	addi	r2,r0,#1
 1123  00001c60          	L94_LF2:
 1124  00001c60  64410000	snei	r1,r2,#0
 1125  00001c64  10200070	beqz	r1,L92_LF2
 1126  00001c68  54000000	nop; not filled.
 1127  00001c6c  23bdfff0	addi	r29,r29,#-16
 1128  00001c70  53e10004	slli	r1,r31,#0x4
 1129  00001c74  003f0820	add	r1,r1,r31
 1130  00001c78  50210002	slli	r1,r1,#0x2
 1131  00001c7c  003f0822	sub	r1,r1,r31
 1132  00001c80  50210002	slli	r1,r1,#0x2
 1133  00001c84  3c030000	lhi	r3,((_openfiles_LF2)>>16)&0xffff
 1134  00001c88  2463c110	addui	r3,r3,(_openfiles_LF2)&0xffff
 1135  00001c8c  00230820	add	r1,r1,r3
 1136  00001c90  8c220000	lw	r2,(r1)
 1137  00001c94  50410001	slli	r1,r2,#0x1
 1138  00001c98  00220820	add	r1,r1,r2
 1139  00001c9c  50210003	slli	r1,r1,#0x3
 1140  00001ca0  3c030000	lhi	r3,((_fs_LF2)>>16)&0xffff
 1141  00001ca4  2463c0e0	addui	r3,r3,(_fs_LF2)&0xffff
 1142  00001ca8  00230820	add	r1,r1,r3
 1143  00001cac  afbf0000	sw	(r29),r31
 1144  00001cb0  8fc30004	lw	r3,4(r30)
 1145  00001cb4  afa30004	sw	4(r29),r3
 1146  00001cb8  8fc30008	lw	r3,8(r30)
 1147  00001cbc  afa30008	sw	8(r29),r3
 1148  00001cc0  8c210004	lw	r1,4(r1)
 1149  00001cc4  4c200000	jalr	r1
 1150  00001cc8  54000000	nop; not filled.
 1151  00001ccc  23bd0010	addi	r29,r29,#16
 1152  00001cd0  08000008	j	L91_LF2
 1153  00001cd4  54000000	nop; not filled.
 1154  00001cd8          	L92_LF2:
 1155  00001cd8  2001ffff	addi	r1,r0,#-1
 1156  00001cdc          	L91_LF2:
 1157  00001cdc  8fa20000	lw	r2,0(r29)
 1158  00001ce0  8fa30004	lw	r3,4(r29)
 1159  00001ce4  8fdffff8	lw	r31,-8(r30)
 1160  00001ce8  001ee820	add	r29,r0,r30
 1161  00001cec  8fdefffc	lw	r30,-4(r30)
 1162  00001cf0  4be00000	jr	r31
 1163  00001cf4  54000000	nop
 1164  00001cf8          	.endproc _FsRead
 1165  00001cf8          	.align 2
 1166  00001cf8          	.proc _FsWrite
 1167  00001cf8          	.global _FsWrite
 1168  00001cf8          	_FsWrite:
 1169                      ;  Function 'FsWrite'; 0 bytes of locals, 2 regs to save.
 1170  00001cf8  afbefffc	sw	-4(r29),r30; push fp
 1171  00001cfc  001df020	add	r30,r0,r29; fp = sp
 1172  00001d00  afbffff8	sw	-8(r29),r31; push ret addr
 1173  00001d04  2fbd0010	subui	r29,r29,#16; alloc local storage
 1174  00001d08  afa20000	sw	0(r29),r2
 1175  00001d0c  afa30004	sw	4(r29),r3
 1176  00001d10  8fdf0000	lw	r31,(r30)
 1177  00001d14  20020000	addi	r2,r0,#0
 1178  00001d18  23e1ffff	addi	r1,r31,#-1
 1179  00001d1c  7021001e	sleui	r1,r1,#30
 1180  00001d20  10200038	beqz	r1,L103_LF2
 1181  00001d24  54000000	nop; not filled.
 1182  00001d28  53e10004	slli	r1,r31,#0x4
 1183  00001d2c  003f0820	add	r1,r1,r31
 1184  00001d30  50210002	slli	r1,r1,#0x2
 1185  00001d34  003f0822	sub	r1,r1,r31
 1186  00001d38  50210002	slli	r1,r1,#0x2
 1187  00001d3c  3c030000	lhi	r3,((_openfiles_LF2)>>16)&0xffff
 1188  00001d40  2463c110	addui	r3,r3,(_openfiles_LF2)&0xffff
 1189  00001d44  00230820	add	r1,r1,r3
 1190  00001d48  8c210004	lw	r1,4(r1)
 1191  00001d4c  64210000	snei	r1,r1,#0
 1192  00001d50  10200008	beqz	r1,L103_LF2
 1193  00001d54  54000000	nop; not filled.
 1194  00001d58  20020001	addi	r2,r0,#1
 1195  00001d5c          	L103_LF2:
 1196  00001d5c  64410000	snei	r1,r2,#0
 1197  00001d60  10200070	beqz	r1,L101_LF2
 1198  00001d64  54000000	nop; not filled.
 1199  00001d68  23bdfff0	addi	r29,r29,#-16
 1200  00001d6c  53e10004	slli	r1,r31,#0x4
 1201  00001d70  003f0820	add	r1,r1,r31
 1202  00001d74  50210002	slli	r1,r1,#0x2
 1203  00001d78  003f0822	sub	r1,r1,r31
 1204  00001d7c  50210002	slli	r1,r1,#0x2
 1205  00001d80  3c030000	lhi	r3,((_openfiles_LF2)>>16)&0xffff
 1206  00001d84  2463c110	addui	r3,r3,(_openfiles_LF2)&0xffff
 1207  00001d88  00230820	add	r1,r1,r3
 1208  00001d8c  8c220000	lw	r2,(r1)
 1209  00001d90  50410001	slli	r1,r2,#0x1
 1210  00001d94  00220820	add	r1,r1,r2
 1211  00001d98  50210003	slli	r1,r1,#0x3
 1212  00001d9c  3c030000	lhi	r3,((_fs_LF2)>>16)&0xffff
 1213  00001da0  2463c0e0	addui	r3,r3,(_fs_LF2)&0xffff
 1214  00001da4  00230820	add	r1,r1,r3
 1215  00001da8  afbf0000	sw	(r29),r31
 1216  00001dac  8fc30004	lw	r3,4(r30)
 1217  00001db0  afa30004	sw	4(r29),r3
 1218  00001db4  8fc30008	lw	r3,8(r30)
 1219  00001db8  afa30008	sw	8(r29),r3
 1220  00001dbc  8c210008	lw	r1,8(r1)
 1221  00001dc0  4c200000	jalr	r1
 1222  00001dc4  54000000	nop; not filled.
 1223  00001dc8  23bd0010	addi	r29,r29,#16
 1224  00001dcc  08000008	j	L100_LF2
 1225  00001dd0  54000000	nop; not filled.
 1226  00001dd4          	L101_LF2:
 1227  00001dd4  2001ffff	addi	r1,r0,#-1
 1228  00001dd8          	L100_LF2:
 1229  00001dd8  8fa20000	lw	r2,0(r29)
 1230  00001ddc  8fa30004	lw	r3,4(r29)
 1231  00001de0  8fdffff8	lw	r31,-8(r30)
 1232  00001de4  001ee820	add	r29,r0,r30
 1233  00001de8  8fdefffc	lw	r30,-4(r30)
 1234  00001dec  4be00000	jr	r31
 1235  00001df0  54000000	nop
 1236  00001df4          	.endproc _FsWrite
 1237  00001df4          	.align 2
 1238  00001df4          	.proc _FsSeek
 1239  00001df4          	.global _FsSeek
 1240  00001df4          	_FsSeek:
 1241                      ;  Function 'FsSeek'; 0 bytes of locals, 2 regs to save.
 1242  00001df4  afbefffc	sw	-4(r29),r30; push fp
 1243  00001df8  001df020	add	r30,r0,r29; fp = sp
 1244  00001dfc  afbffff8	sw	-8(r29),r31; push ret addr
 1245  00001e00  2fbd0010	subui	r29,r29,#16; alloc local storage
 1246  00001e04  afa20000	sw	0(r29),r2
 1247  00001e08  afa30004	sw	4(r29),r3
 1248  00001e0c  8fdf0000	lw	r31,(r30)
 1249  00001e10  20020000	addi	r2,r0,#0
 1250  00001e14  23e1ffff	addi	r1,r31,#-1
 1251  00001e18  7021001e	sleui	r1,r1,#30
 1252  00001e1c  10200038	beqz	r1,L112_LF2
 1253  00001e20  54000000	nop; not filled.
 1254  00001e24  53e10004	slli	r1,r31,#0x4
 1255  00001e28  003f0820	add	r1,r1,r31
 1256  00001e2c  50210002	slli	r1,r1,#0x2
 1257  00001e30  003f0822	sub	r1,r1,r31
 1258  00001e34  50210002	slli	r1,r1,#0x2
 1259  00001e38  3c030000	lhi	r3,((_openfiles_LF2)>>16)&0xffff
 1260  00001e3c  2463c110	addui	r3,r3,(_openfiles_LF2)&0xffff
 1261  00001e40  00230820	add	r1,r1,r3
 1262  00001e44  8c210004	lw	r1,4(r1)
 1263  00001e48  64210000	snei	r1,r1,#0
 1264  00001e4c  10200008	beqz	r1,L112_LF2
 1265  00001e50  54000000	nop; not filled.
 1266  00001e54  20020001	addi	r2,r0,#1
 1267  00001e58          	L112_LF2:
 1268  00001e58  64410000	snei	r1,r2,#0
 1269  00001e5c  10200070	beqz	r1,L110_LF2
 1270  00001e60  54000000	nop; not filled.
 1271  00001e64  23bdfff0	addi	r29,r29,#-16
 1272  00001e68  53e10004	slli	r1,r31,#0x4
 1273  00001e6c  003f0820	add	r1,r1,r31
 1274  00001e70  50210002	slli	r1,r1,#0x2
 1275  00001e74  003f0822	sub	r1,r1,r31
 1276  00001e78  50210002	slli	r1,r1,#0x2
 1277  00001e7c  3c030000	lhi	r3,((_openfiles_LF2)>>16)&0xffff
 1278  00001e80  2463c110	addui	r3,r3,(_openfiles_LF2)&0xffff
 1279  00001e84  00230820	add	r1,r1,r3
 1280  00001e88  8c220000	lw	r2,(r1)
 1281  00001e8c  50410001	slli	r1,r2,#0x1
 1282  00001e90  00220820	add	r1,r1,r2
 1283  00001e94  50210003	slli	r1,r1,#0x3
 1284  00001e98  3c030000	lhi	r3,((_fs_LF2)>>16)&0xffff
 1285  00001e9c  2463c0e0	addui	r3,r3,(_fs_LF2)&0xffff
 1286  00001ea0  00230820	add	r1,r1,r3
 1287  00001ea4  afbf0000	sw	(r29),r31
 1288  00001ea8  8fc30004	lw	r3,4(r30)
 1289  00001eac  afa30004	sw	4(r29),r3
 1290  00001eb0  8fc30008	lw	r3,8(r30)
 1291  00001eb4  afa30008	sw	8(r29),r3
 1292  00001eb8  8c21000c	lw	r1,12(r1)
 1293  00001ebc  4c200000	jalr	r1
 1294  00001ec0  54000000	nop; not filled.
 1295  00001ec4  23bd0010	addi	r29,r29,#16
 1296  00001ec8  08000008	j	L109_LF2
 1297  00001ecc  54000000	nop; not filled.
 1298  00001ed0          	L110_LF2:
 1299  00001ed0  2001ffff	addi	r1,r0,#-1
 1300  00001ed4          	L109_LF2:
 1301  00001ed4  8fa20000	lw	r2,0(r29)
 1302  00001ed8  8fa30004	lw	r3,4(r29)
 1303  00001edc  8fdffff8	lw	r31,-8(r30)
 1304  00001ee0  001ee820	add	r29,r0,r30
 1305  00001ee4  8fdefffc	lw	r30,-4(r30)
 1306  00001ee8  4be00000	jr	r31
 1307  00001eec  54000000	nop
 1308  00001ef0          	.endproc _FsSeek
 1309  00001ef0          	.align 2
 1310  00001ef0          	.proc _FsDelete
 1311  00001ef0          	.global _FsDelete
 1312  00001ef0          	_FsDelete:
 1313                      ;  Function 'FsDelete'; 0 bytes of locals, 2 regs to save.
 1314  00001ef0  afbefffc	sw	-4(r29),r30; push fp
 1315  00001ef4  001df020	add	r30,r0,r29; fp = sp
 1316  00001ef8  afbffff8	sw	-8(r29),r31; push ret addr
 1317  00001efc  2fbd0010	subui	r29,r29,#16; alloc local storage
 1318  00001f00  afa20000	sw	0(r29),r2
 1319  00001f04  afa30004	sw	4(r29),r3
 1320  00001f08  8fc20000	lw	r2,(r30)
 1321  00001f0c  23bdfff0	addi	r29,r29,#-16
 1322  00001f10  afa20000	sw	(r29),r2
 1323  00001f14  3c010000	lhi	r1,((LC1_LF2)>>16)&0xffff
 1324  00001f18  2421c058	addui	r1,r1,(LC1_LF2)&0xffff
 1325  00001f1c  afa10004	sw	4(r29),r1
 1326  00001f20  20030004	addi	r3,r0,#4
 1327  00001f24  afa30008	sw	8(r29),r3
 1328  00001f28  0c001c80	jal	_dstrncmp
 1329  00001f2c  54000000	nop; not filled.
 1330  00001f30  23bd0010	addi	r29,r29,#16
 1331  00001f34  64210000	snei	r1,r1,#0
 1332  00001f38  1420001c	bnez	r1,L118_LF2
 1333  00001f3c  54000000	nop; not filled.
 1334  00001f40  20420004	addi	r2,r2,#4
 1335  00001f44  23bdfff8	addi	r29,r29,#-8
 1336  00001f48  3c010000	lhi	r1,((_fs_LF2+44)>>16)&0xffff
 1337  00001f4c  2421c10c	addui	r1,r1,(_fs_LF2+44)&0xffff
 1338  00001f50  08000010	j	L120_LF2
 1339  00001f54  54000000	nop; not filled.
 1340  00001f58          	L118_LF2:
 1341  00001f58  23bdfff8	addi	r29,r29,#-8
 1342  00001f5c  3c010000	lhi	r1,((_fs_LF2+20)>>16)&0xffff
 1343  00001f60  2421c0f4	addui	r1,r1,(_fs_LF2+20)&0xffff
 1344  00001f64          	L120_LF2:
 1345  00001f64  afa20000	sw	(r29),r2
 1346  00001f68  8c210000	lw	r1,(r1)
 1347  00001f6c  4c200000	jalr	r1
 1348  00001f70  54000000	nop; not filled.
 1349  00001f74  23bd0008	addi	r29,r29,#8
 1350  00001f78  8fa20000	lw	r2,0(r29)
 1351  00001f7c  8fa30004	lw	r3,4(r29)
 1352  00001f80  8fdffff8	lw	r31,-8(r30)
 1353  00001f84  001ee820	add	r29,r0,r30
 1354  00001f88  8fdefffc	lw	r30,-4(r30)
 1355  00001f8c  4be00000	jr	r31
 1356  00001f90  54000000	nop
 1357  00001f94          	.endproc _FsDelete
 1358  00001f94          	.data
 1359  0000c0aa          	.align 2
 1360  0000c0ac          	LC4_LF2:
 1361  0000c0ac  41747465	.ascii "Attempting to open file %s into desc %d, mode %d.\n\000"
 1361  0000c0b0  6d707469	
 1361  0000c0b4  6e672074	
 1361  0000c0b8  6f206f70	
 1361  0000c0bc  656e2066	
 1361  0000c0c0  696c6520	
 1361  0000c0c4  25732069	
 1361  0000c0c8  6e746f20	
 1361  0000c0cc  64657363	
 1361  0000c0d0  2025642c	
 1361  0000c0d4  206d6f64	
 1361  0000c0d8  65202564	
 1361  0000c0dc  2e0a00  	
 1362  0000c0df          	.text
 1363  00001f94          	.align 2
 1364  00001f94          	.proc _FsUnixOpen
 1365  00001f94          	.global _FsUnixOpen
 1366  00001f94          	_FsUnixOpen:
 1367                      ;  Function 'FsUnixOpen'; 0 bytes of locals, 5 regs to save.
 1368  00001f94  afbefffc	sw	-4(r29),r30; push fp
 1369  00001f98  001df020	add	r30,r0,r29; fp = sp
 1370  00001f9c  afbffff8	sw	-8(r29),r31; push ret addr
 1371  00001fa0  2fbd0020	subui	r29,r29,#32; alloc local storage
 1372  00001fa4  afa20000	sw	0(r29),r2
 1373  00001fa8  afa30004	sw	4(r29),r3
 1374  00001fac  afa40008	sw	8(r29),r4
 1375  00001fb0  afa5000c	sw	12(r29),r5
 1376  00001fb4  afa60010	sw	16(r29),r6
 1377  00001fb8  8fc40000	lw	r4,(r30)
 1378  00001fbc  8fc30004	lw	r3,4(r30)
 1379  00001fc0  8fc50008	lw	r5,8(r30)
 1380  00001fc4  23bdfff8	addi	r29,r29,#-8
 1381  00001fc8  3c020000	lhi	r2,((_debugstr)>>16)&0xffff
 1382  00001fcc  2442ef7c	addui	r2,r2,(_debugstr)&0xffff
 1383  00001fd0  afa20000	sw	(r29),r2
 1384  00001fd4  20060066	addi	r6,r0,#102
 1385  00001fd8  afa60004	sw	4(r29),r6
 1386  00001fdc  0c001f10	jal	_dindex
 1387  00001fe0  54000000	nop; not filled.
 1388  00001fe4  23bd0008	addi	r29,r29,#8
 1389  00001fe8  64210000	snei	r1,r1,#0
 1390  00001fec  1420002c	bnez	r1,L127_LF2
 1391  00001ff0  54000000	nop; not filled.
 1392  00001ff4  23bdfff8	addi	r29,r29,#-8
 1393  00001ff8  afa20000	sw	(r29),r2
 1394  00001ffc  2006002b	addi	r6,r0,#43
 1395  00002000  afa60004	sw	4(r29),r6
 1396  00002004  0c001ee8	jal	_dindex
 1397  00002008  54000000	nop; not filled.
 1398  0000200c  23bd0008	addi	r29,r29,#8
 1399  00002010  64210000	snei	r1,r1,#0
 1400  00002014  1020002c	beqz	r1,L126_LF2
 1401  00002018  54000000	nop; not filled.
 1402  0000201c          	L127_LF2:
 1403  0000201c  23bdfff0	addi	r29,r29,#-16
 1404  00002020  3c060000	lhi	r6,((LC4_LF2)>>16)&0xffff
 1405  00002024  24c6c0ac	addui	r6,r6,(LC4_LF2)&0xffff
 1406  00002028  afa60000	sw	(r29),r6
 1407  0000202c  afa30004	sw	4(r29),r3
 1408  00002030  afa40008	sw	8(r29),r4
 1409  00002034  afa5000c	sw	12(r29),r5
 1410  00002038  0c0094bc	jal	_printf
 1411  0000203c  54000000	nop; not filled.
 1412  00002040  23bd0010	addi	r29,r29,#16
 1413  00002044          	L126_LF2:
 1414  00002044  23bdfff8	addi	r29,r29,#-8
 1415  00002048  afa30000	sw	(r29),r3
 1416  0000204c  afa50004	sw	4(r29),r5
 1417  00002050  0c009414	jal	_open
 1418  00002054  54000000	nop; not filled.
 1419  00002058  00011820	add	r3,r0,r1
 1420  0000205c  50810004	slli	r1,r4,#0x4
 1421  00002060  00240820	add	r1,r1,r4
 1422  00002064  50210002	slli	r1,r1,#0x2
 1423  00002068  00240822	sub	r1,r1,r4
 1424  0000206c  50210002	slli	r1,r1,#0x2
 1425  00002070  3c060000	lhi	r6,((_openfiles_LF2)>>16)&0xffff
 1426  00002074  24c6c110	addui	r6,r6,(_openfiles_LF2)&0xffff
 1427  00002078  00260820	add	r1,r1,r6
 1428  0000207c  ac230108	sw	264(r1),r3
 1429  00002080  23bd0008	addi	r29,r29,#8
 1430  00002084  68620000	slti	r2,r3,#0
 1431  00002088  00030820	add	r1,r0,r3
 1432  0000208c  14400008	bnez	r2,L128_LF2
 1433  00002090  54000000	nop; not filled.
 1434  00002094  20010001	addi	r1,r0,#1
 1435  00002098          	L128_LF2:
 1436  00002098  8fa20000	lw	r2,0(r29)
 1437  0000209c  8fa30004	lw	r3,4(r29)
 1438  000020a0  8fa40008	lw	r4,8(r29)
 1439  000020a4  8fa5000c	lw	r5,12(r29)
 1440  000020a8  8fa60010	lw	r6,16(r29)
 1441  000020ac  8fdffff8	lw	r31,-8(r30)
 1442  000020b0  001ee820	add	r29,r0,r30
 1443  000020b4  8fdefffc	lw	r30,-4(r30)
 1444  000020b8  4be00000	jr	r31
 1445  000020bc  54000000	nop
 1446  000020c0          	.endproc _FsUnixOpen
 1447  000020c0          	.align 2
 1448  000020c0          	.proc _FsUnixRead
 1449  000020c0          	.global _FsUnixRead
 1450  000020c0          	_FsUnixRead:
 1451                      ;  Function 'FsUnixRead'; 0 bytes of locals, 4 regs to save.
 1452  000020c0  afbefffc	sw	-4(r29),r30; push fp
 1453  000020c4  001df020	add	r30,r0,r29; fp = sp
 1454  000020c8  afbffff8	sw	-8(r29),r31; push ret addr
 1455  000020cc  2fbd0018	subui	r29,r29,#24; alloc local storage
 1456  000020d0  afa20000	sw	0(r29),r2
 1457  000020d4  afa30004	sw	4(r29),r3
 1458  000020d8  afa40008	sw	8(r29),r4
 1459  000020dc  afa5000c	sw	12(r29),r5
 1460  000020e0  8fc20000	lw	r2,(r30)
 1461  000020e4  8fc30004	lw	r3,4(r30)
 1462  000020e8  8fc40008	lw	r4,8(r30)
 1463  000020ec  23bdfff0	addi	r29,r29,#-16
 1464  000020f0  50410004	slli	r1,r2,#0x4
 1465  000020f4  00220820	add	r1,r1,r2
 1466  000020f8  50210002	slli	r1,r1,#0x2
 1467  000020fc  00220822	sub	r1,r1,r2
 1468  00002100  50210002	slli	r1,r1,#0x2
 1469  00002104  3c050000	lhi	r5,((_openfiles_LF2)>>16)&0xffff
 1470  00002108  24a5c110	addui	r5,r5,(_openfiles_LF2)&0xffff
 1471  0000210c  00250820	add	r1,r1,r5
 1472  00002110  8c210108	lw	r1,264(r1)
 1473  00002114  afa10000	sw	(r29),r1
 1474  00002118  afa30004	sw	4(r29),r3
 1475  0000211c  afa40008	sw	8(r29),r4
 1476  00002120  0c00935c	jal	_read
 1477  00002124  54000000	nop; not filled.
 1478  00002128  23bd0010	addi	r29,r29,#16
 1479  0000212c  8fa20000	lw	r2,0(r29)
 1480  00002130  8fa30004	lw	r3,4(r29)
 1481  00002134  8fa40008	lw	r4,8(r29)
 1482  00002138  8fa5000c	lw	r5,12(r29)
 1483  0000213c  8fdffff8	lw	r31,-8(r30)
 1484  00002140  001ee820	add	r29,r0,r30
 1485  00002144  8fdefffc	lw	r30,-4(r30)
 1486  00002148  4be00000	jr	r31
 1487  0000214c  54000000	nop
 1488  00002150          	.endproc _FsUnixRead
 1489  00002150          	.align 2
 1490  00002150          	.proc _FsUnixWrite
 1491  00002150          	.global _FsUnixWrite
 1492  00002150          	_FsUnixWrite:
 1493                      ;  Function 'FsUnixWrite'; 0 bytes of locals, 4 regs to save.
 1494  00002150  afbefffc	sw	-4(r29),r30; push fp
 1495  00002154  001df020	add	r30,r0,r29; fp = sp
 1496  00002158  afbffff8	sw	-8(r29),r31; push ret addr
 1497  0000215c  2fbd0018	subui	r29,r29,#24; alloc local storage
 1498  00002160  afa20000	sw	0(r29),r2
 1499  00002164  afa30004	sw	4(r29),r3
 1500  00002168  afa40008	sw	8(r29),r4
 1501  0000216c  afa5000c	sw	12(r29),r5
 1502  00002170  8fc20000	lw	r2,(r30)
 1503  00002174  8fc30004	lw	r3,4(r30)
 1504  00002178  8fc40008	lw	r4,8(r30)
 1505  0000217c  23bdfff0	addi	r29,r29,#-16
 1506  00002180  50410004	slli	r1,r2,#0x4
 1507  00002184  00220820	add	r1,r1,r2
 1508  00002188  50210002	slli	r1,r1,#0x2
 1509  0000218c  00220822	sub	r1,r1,r2
 1510  00002190  50210002	slli	r1,r1,#0x2
 1511  00002194  3c050000	lhi	r5,((_openfiles_LF2)>>16)&0xffff
 1512  00002198  24a5c110	addui	r5,r5,(_openfiles_LF2)&0xffff
 1513  0000219c  00250820	add	r1,r1,r5
 1514  000021a0  8c210108	lw	r1,264(r1)
 1515  000021a4  afa10000	sw	(r29),r1
 1516  000021a8  afa30004	sw	4(r29),r3
 1517  000021ac  afa40008	sw	8(r29),r4
 1518  000021b0  0c0092d8	jal	_write
 1519  000021b4  54000000	nop; not filled.
 1520  000021b8  23bd0010	addi	r29,r29,#16
 1521  000021bc  8fa20000	lw	r2,0(r29)
 1522  000021c0  8fa30004	lw	r3,4(r29)
 1523  000021c4  8fa40008	lw	r4,8(r29)
 1524  000021c8  8fa5000c	lw	r5,12(r29)
 1525  000021cc  8fdffff8	lw	r31,-8(r30)
 1526  000021d0  001ee820	add	r29,r0,r30
 1527  000021d4  8fdefffc	lw	r30,-4(r30)
 1528  000021d8  4be00000	jr	r31
 1529  000021dc  54000000	nop
 1530  000021e0          	.endproc _FsUnixWrite
 1531  000021e0          	.align 2
 1532  000021e0          	.proc _FsUnixSeek
 1533  000021e0          	.global _FsUnixSeek
 1534  000021e0          	_FsUnixSeek:
 1535                      ;  Function 'FsUnixSeek'; 0 bytes of locals, 4 regs to save.
 1536  000021e0  afbefffc	sw	-4(r29),r30; push fp
 1537  000021e4  001df020	add	r30,r0,r29; fp = sp
 1538  000021e8  afbffff8	sw	-8(r29),r31; push ret addr
 1539  000021ec  2fbd0018	subui	r29,r29,#24; alloc local storage
 1540  000021f0  afa20000	sw	0(r29),r2
 1541  000021f4  afa30004	sw	4(r29),r3
 1542  000021f8  afa40008	sw	8(r29),r4
 1543  000021fc  afa5000c	sw	12(r29),r5
 1544  00002200  8fc20000	lw	r2,(r30)
 1545  00002204  8fc30004	lw	r3,4(r30)
 1546  00002208  8fc40008	lw	r4,8(r30)
 1547  0000220c  23bdfff0	addi	r29,r29,#-16
 1548  00002210  50410004	slli	r1,r2,#0x4
 1549  00002214  00220820	add	r1,r1,r2
 1550  00002218  50210002	slli	r1,r1,#0x2
 1551  0000221c  00220822	sub	r1,r1,r2
 1552  00002220  50210002	slli	r1,r1,#0x2
 1553  00002224  3c050000	lhi	r5,((_openfiles_LF2)>>16)&0xffff
 1554  00002228  24a5c110	addui	r5,r5,(_openfiles_LF2)&0xffff
 1555  0000222c  00250820	add	r1,r1,r5
 1556  00002230  8c210108	lw	r1,264(r1)
 1557  00002234  afa10000	sw	(r29),r1
 1558  00002238  afa30004	sw	4(r29),r3
 1559  0000223c  afa40008	sw	8(r29),r4
 1560  00002240  0c009254	jal	_lseek
 1561  00002244  54000000	nop; not filled.
 1562  00002248  23bd0010	addi	r29,r29,#16
 1563  0000224c  8fa20000	lw	r2,0(r29)
 1564  00002250  8fa30004	lw	r3,4(r29)
 1565  00002254  8fa40008	lw	r4,8(r29)
 1566  00002258  8fa5000c	lw	r5,12(r29)
 1567  0000225c  8fdffff8	lw	r31,-8(r30)
 1568  00002260  001ee820	add	r29,r0,r30
 1569  00002264  8fdefffc	lw	r30,-4(r30)
 1570  00002268  4be00000	jr	r31
 1571  0000226c  54000000	nop
 1572  00002270          	.endproc _FsUnixSeek
 1573  00002270          	.align 2
 1574  00002270          	.proc _FsUnixClose
 1575  00002270          	.global _FsUnixClose
 1576  00002270          	_FsUnixClose:
 1577                      ;  Function 'FsUnixClose'; 0 bytes of locals, 2 regs to save.
 1578  00002270  afbefffc	sw	-4(r29),r30; push fp
 1579  00002274  001df020	add	r30,r0,r29; fp = sp
 1580  00002278  afbffff8	sw	-8(r29),r31; push ret addr
 1581  0000227c  2fbd0010	subui	r29,r29,#16; alloc local storage
 1582  00002280  afa20000	sw	0(r29),r2
 1583  00002284  afa30004	sw	4(r29),r3
 1584  00002288  8fc20000	lw	r2,(r30)
 1585  0000228c  23bdfff8	addi	r29,r29,#-8
 1586  00002290  50410004	slli	r1,r2,#0x4
 1587  00002294  00220820	add	r1,r1,r2
 1588  00002298  50210002	slli	r1,r1,#0x2
 1589  0000229c  00220822	sub	r1,r1,r2
 1590  000022a0  50210002	slli	r1,r1,#0x2
 1591  000022a4  3c030000	lhi	r3,((_openfiles_LF2)>>16)&0xffff
 1592  000022a8  2463c110	addui	r3,r3,(_openfiles_LF2)&0xffff
 1593  000022ac  00230820	add	r1,r1,r3
 1594  000022b0  8c210108	lw	r1,264(r1)
 1595  000022b4  afa10000	sw	(r29),r1
 1596  000022b8  0c0091b8	jal	_close
 1597  000022bc  54000000	nop; not filled.
 1598  000022c0  23bd0008	addi	r29,r29,#8
 1599  000022c4  8fa20000	lw	r2,0(r29)
 1600  000022c8  8fa30004	lw	r3,4(r29)
 1601  000022cc  8fdffff8	lw	r31,-8(r30)
 1602  000022d0  001ee820	add	r29,r0,r30
 1603  000022d4  8fdefffc	lw	r30,-4(r30)
 1604  000022d8  4be00000	jr	r31
 1605  000022dc  54000000	nop
 1606  000022e0          	.endproc _FsUnixClose
 1607  000022e0          	.align 2
 1608  000022e0          	.proc _FsUnixDelete
 1609  000022e0          	.global _FsUnixDelete
 1610  000022e0          	_FsUnixDelete:
 1611                      ;  Function 'FsUnixDelete'; 0 bytes of locals, 0 regs to save.
 1612  000022e0  afbefffc	sw	-4(r29),r30; push fp
 1613  000022e4  001df020	add	r30,r0,r29; fp = sp
 1614  000022e8  afbffff8	sw	-8(r29),r31; push ret addr
 1615  000022ec  2fbd0008	subui	r29,r29,#8; alloc local storage
 1616  000022f0  2001ffff	addi	r1,r0,#-1
 1617  000022f4  8fdffff8	lw	r31,-8(r30)
 1618  000022f8  001ee820	add	r29,r0,r30
 1619  000022fc  8fdefffc	lw	r30,-4(r30)
 1620  00002300  4be00000	jr	r31
 1621  00002304  54000000	nop
 1622  00002308          	.endproc _FsUnixDelete
 1623  00002308          	.align 2
 1624  00002308          	.proc _FsDlxIo
 1625  00002308          	.global _FsDlxIo
 1626  00002308          	_FsDlxIo:
 1627                      ;  Function 'FsDlxIo'; 0 bytes of locals, 0 regs to save.
 1628  00002308  afbefffc	sw	-4(r29),r30; push fp
 1629  0000230c  001df020	add	r30,r0,r29; fp = sp
 1630  00002310  afbffff8	sw	-8(r29),r31; push ret addr
 1631  00002314  2fbd0008	subui	r29,r29,#8; alloc local storage
 1632  00002318  20010001	addi	r1,r0,#1
 1633  0000231c  8fdffff8	lw	r31,-8(r30)
 1634  00002320  001ee820	add	r29,r0,r30
 1635  00002324  8fdefffc	lw	r30,-4(r30)
 1636  00002328  4be00000	jr	r31
 1637  0000232c  54000000	nop
 1638  00002330          	.endproc _FsDlxIo
 1639  00002330          	.align 2
 1640  00002330          	.proc _FsDlxRead
 1641  00002330          	.global _FsDlxRead
 1642  00002330          	_FsDlxRead:
 1643                      ;  Function 'FsDlxRead'; 0 bytes of locals, 0 regs to save.
 1644  00002330  afbefffc	sw	-4(r29),r30; push fp
 1645  00002334  001df020	add	r30,r0,r29; fp = sp
 1646  00002338  afbffff8	sw	-8(r29),r31; push ret addr
 1647  0000233c  2fbd0008	subui	r29,r29,#8; alloc local storage
 1648  00002340  20010001	addi	r1,r0,#1
 1649  00002344  8fdffff8	lw	r31,-8(r30)
 1650  00002348  001ee820	add	r29,r0,r30
 1651  0000234c  8fdefffc	lw	r30,-4(r30)
 1652  00002350  4be00000	jr	r31
 1653  00002354  54000000	nop
 1654  00002358          	.endproc _FsDlxRead
 1655  00002358          	.align 2
 1656  00002358          	.proc _FsDlxWrite
 1657  00002358          	.global _FsDlxWrite
 1658  00002358          	_FsDlxWrite:
 1659                      ;  Function 'FsDlxWrite'; 0 bytes of locals, 0 regs to save.
 1660  00002358  afbefffc	sw	-4(r29),r30; push fp
 1661  0000235c  001df020	add	r30,r0,r29; fp = sp
 1662  00002360  afbffff8	sw	-8(r29),r31; push ret addr
 1663  00002364  2fbd0008	subui	r29,r29,#8; alloc local storage
 1664  00002368  20010001	addi	r1,r0,#1
 1665  0000236c  8fdffff8	lw	r31,-8(r30)
 1666  00002370  001ee820	add	r29,r0,r30
 1667  00002374  8fdefffc	lw	r30,-4(r30)
 1668  00002378  4be00000	jr	r31
 1669  0000237c  54000000	nop
 1670  00002380          	.endproc _FsDlxWrite
 1671  00002380          	.align 2
 1672  00002380          	.proc _FsDlxOpen
 1673  00002380          	.global _FsDlxOpen
 1674  00002380          	_FsDlxOpen:
 1675                      ;  Function 'FsDlxOpen'; 0 bytes of locals, 1 regs to save.
 1676  00002380  afbefffc	sw	-4(r29),r30; push fp
 1677  00002384  001df020	add	r30,r0,r29; fp = sp
 1678  00002388  afbffff8	sw	-8(r29),r31; push ret addr
 1679  0000238c  2fbd0010	subui	r29,r29,#16; alloc local storage
 1680  00002390  afa20000	sw	0(r29),r2
 1681  00002394  8fc10000	lw	r1,(r30)
 1682  00002398  50220004	slli	r2,r1,#0x4
 1683  0000239c  00411020	add	r2,r2,r1
 1684  000023a0  50420002	slli	r2,r2,#0x2
 1685  000023a4  00410822	sub	r1,r2,r1
 1686  000023a8  50210002	slli	r1,r1,#0x2
 1687  000023ac  3c1f0000	lhi	r31,((_openfiles_LF2)>>16)&0xffff
 1688  000023b0  27ffc110	addui	r31,r31,(_openfiles_LF2)&0xffff
 1689  000023b4  003f0820	add	r1,r1,r31
 1690  000023b8  201f0000	addi	r31,r0,#0
 1691  000023bc  ac3f0108	sw	264(r1),r31
 1692  000023c0  20010001	addi	r1,r0,#1
 1693  000023c4  8fa20000	lw	r2,0(r29)
 1694  000023c8  8fdffff8	lw	r31,-8(r30)
 1695  000023cc  001ee820	add	r29,r0,r30
 1696  000023d0  8fdefffc	lw	r30,-4(r30)
 1697  000023d4  4be00000	jr	r31
 1698  000023d8  54000000	nop
 1699  000023dc          	.endproc _FsDlxOpen
 1700  000023dc          	.align 2
 1701  000023dc          	.proc _FsDlxSeek
 1702  000023dc          	.global _FsDlxSeek
 1703  000023dc          	_FsDlxSeek:
 1704                      ;  Function 'FsDlxSeek'; 0 bytes of locals, 1 regs to save.
 1705  000023dc  afbefffc	sw	-4(r29),r30; push fp
 1706  000023e0  001df020	add	r30,r0,r29; fp = sp
 1707  000023e4  afbffff8	sw	-8(r29),r31; push ret addr
 1708  000023e8  2fbd0010	subui	r29,r29,#16; alloc local storage
 1709  000023ec  afa20000	sw	0(r29),r2
 1710  000023f0  8fc10000	lw	r1,(r30)
 1711  000023f4  50220004	slli	r2,r1,#0x4
 1712  000023f8  00411020	add	r2,r2,r1
 1713  000023fc  50420002	slli	r2,r2,#0x2
 1714  00002400  00410822	sub	r1,r2,r1
 1715  00002404  50210002	slli	r1,r1,#0x2
 1716  00002408  3c1f0000	lhi	r31,((_openfiles_LF2)>>16)&0xffff
 1717  0000240c  27ffc110	addui	r31,r31,(_openfiles_LF2)&0xffff
 1718  00002410  003f0820	add	r1,r1,r31
 1719  00002414  8c210108	lw	r1,264(r1)
 1720  00002418  8fa20000	lw	r2,0(r29)
 1721  0000241c  8fdffff8	lw	r31,-8(r30)
 1722  00002420  001ee820	add	r29,r0,r30
 1723  00002424  8fdefffc	lw	r30,-4(r30)
 1724  00002428  4be00000	jr	r31
 1725  0000242c  54000000	nop
 1726  00002430          	.endproc _FsDlxSeek
 1727  00002430          	.align 2
 1728  00002430          	.proc _FsDlxClose
 1729  00002430          	.global _FsDlxClose
 1730  00002430          	_FsDlxClose:
 1731                      ;  Function 'FsDlxClose'; 0 bytes of locals, 0 regs to save.
 1732  00002430  afbefffc	sw	-4(r29),r30; push fp
 1733  00002434  001df020	add	r30,r0,r29; fp = sp
 1734  00002438  afbffff8	sw	-8(r29),r31; push ret addr
 1735  0000243c  2fbd0008	subui	r29,r29,#8; alloc local storage
 1736  00002440  20010001	addi	r1,r0,#1
 1737  00002444  8fdffff8	lw	r31,-8(r30)
 1738  00002448  001ee820	add	r29,r0,r30
 1739  0000244c  8fdefffc	lw	r30,-4(r30)
 1740  00002450  4be00000	jr	r31
 1741  00002454  54000000	nop
 1742  00002458          	.endproc _FsDlxClose
 1743  00002458          	.align 2
 1744  00002458          	.proc _FsDlxDelete
 1745  00002458          	.global _FsDlxDelete
 1746  00002458          	_FsDlxDelete:
 1747                      ;  Function 'FsDlxDelete'; 0 bytes of locals, 0 regs to save.
 1748  00002458  afbefffc	sw	-4(r29),r30; push fp
 1749  0000245c  001df020	add	r30,r0,r29; fp = sp
 1750  00002460  afbffff8	sw	-8(r29),r31; push ret addr
 1751  00002464  2fbd0008	subui	r29,r29,#8; alloc local storage
 1752  00002468  20010001	addi	r1,r0,#1
 1753  0000246c  8fdffff8	lw	r31,-8(r30)
 1754  00002470  001ee820	add	r29,r0,r30
 1755  00002474  8fdefffc	lw	r30,-4(r30)
 1756  00002478  4be00000	jr	r31
 1757  0000247c  54000000	nop
 1758  00002480          	.endproc _FsDlxDelete
 1759  00002480          	.align 2
 1760  00002480          	.proc _FsModuleInit
 1761  00002480          	.global _FsModuleInit
 1762  00002480          	_FsModuleInit:
 1763                      ;  Function 'FsModuleInit'; 0 bytes of locals, 2 regs to save.
 1764  00002480  afbefffc	sw	-4(r29),r30; push fp
 1765  00002484  001df020	add	r30,r0,r29; fp = sp
 1766  00002488  afbffff8	sw	-8(r29),r31; push ret addr
 1767  0000248c  2fbd0010	subui	r29,r29,#16; alloc local storage
 1768  00002490  afa20000	sw	0(r29),r2
 1769  00002494  afa30004	sw	4(r29),r3
 1770  00002498  3c1f0000	lhi	r31,((_openfiles_LF2)>>16)&0xffff
 1771  0000249c  27ffc110	addui	r31,r31,(_openfiles_LF2)&0xffff
 1772  000024a0  23e22074	addi	r2,r31,#8308
 1773  000024a4          	L182_LF2:
 1774  000024a4  20030000	addi	r3,r0,#0
 1775  000024a8  afe30004	sw	4(r31),r3
 1776  000024ac  23ff010c	addi	r31,r31,#268
 1777  000024b0  03e2082c	sle	r1,r31,r2
 1778  000024b4  1420ffec	bnez	r1,L182_LF2
 1779  000024b8  54000000	nop; not filled.
 1780  000024bc  3c010000	lhi	r1,((_fs_LF2)>>16)&0xffff
 1781  000024c0  2421c0e0	addui	r1,r1,(_fs_LF2)&0xffff
 1782  000024c4  3c030000	lhi	r3,((_FsUnixOpen)>>16)&0xffff
 1783  000024c8  24631f94	addui	r3,r3,(_FsUnixOpen)&0xffff
 1784  000024cc  ac230000	sw	(r1),r3
 1785  000024d0  3c030000	lhi	r3,((_FsUnixClose)>>16)&0xffff
 1786  000024d4  24632270	addui	r3,r3,(_FsUnixClose)&0xffff
 1787  000024d8  ac230010	sw	16(r1),r3
 1788  000024dc  3c030000	lhi	r3,((_FsUnixRead)>>16)&0xffff
 1789  000024e0  246320c0	addui	r3,r3,(_FsUnixRead)&0xffff
 1790  000024e4  ac230004	sw	4(r1),r3
 1791  000024e8  3c030000	lhi	r3,((_FsUnixWrite)>>16)&0xffff
 1792  000024ec  24632150	addui	r3,r3,(_FsUnixWrite)&0xffff
 1793  000024f0  ac230008	sw	8(r1),r3
 1794  000024f4  3c030000	lhi	r3,((_FsUnixSeek)>>16)&0xffff
 1795  000024f8  246321e0	addui	r3,r3,(_FsUnixSeek)&0xffff
 1796  000024fc  ac23000c	sw	12(r1),r3
 1797  00002500  3c030000	lhi	r3,((_FsUnixDelete)>>16)&0xffff
 1798  00002504  246322e0	addui	r3,r3,(_FsUnixDelete)&0xffff
 1799  00002508  ac230014	sw	20(r1),r3
 1800  0000250c  3c030000	lhi	r3,((_FsDlxOpen)>>16)&0xffff
 1801  00002510  24632380	addui	r3,r3,(_FsDlxOpen)&0xffff
 1802  00002514  ac230018	sw	24(r1),r3
 1803  00002518  3c030000	lhi	r3,((_FsDlxClose)>>16)&0xffff
 1804  0000251c  24632430	addui	r3,r3,(_FsDlxClose)&0xffff
 1805  00002520  ac230028	sw	40(r1),r3
 1806  00002524  3c030000	lhi	r3,((_FsDlxRead)>>16)&0xffff
 1807  00002528  24632330	addui	r3,r3,(_FsDlxRead)&0xffff
 1808  0000252c  ac23001c	sw	28(r1),r3
 1809  00002530  3c030000	lhi	r3,((_FsDlxWrite)>>16)&0xffff
 1810  00002534  24632358	addui	r3,r3,(_FsDlxWrite)&0xffff
 1811  00002538  ac230020	sw	32(r1),r3
 1812  0000253c  3c030000	lhi	r3,((_FsDlxSeek)>>16)&0xffff
 1813  00002540  246323dc	addui	r3,r3,(_FsDlxSeek)&0xffff
 1814  00002544  ac230024	sw	36(r1),r3
 1815  00002548  3c030000	lhi	r3,((_FsDlxDelete)>>16)&0xffff
 1816  0000254c  24632458	addui	r3,r3,(_FsDlxDelete)&0xffff
 1817  00002550  ac23002c	sw	44(r1),r3
 1818  00002554  8fa20000	lw	r2,0(r29)
 1819  00002558  8fa30004	lw	r3,4(r29)
 1820  0000255c  8fdffff8	lw	r31,-8(r30)
 1821  00002560  001ee820	add	r29,r0,r30
 1822  00002564  8fdefffc	lw	r30,-4(r30)
 1823  00002568  4be00000	jr	r31
 1824  0000256c  54000000	nop
 1825  00002570          	.endproc _FsModuleInit
 1826  00002570          	.data
 1827  0000c0df          	.align 2
 1828  0000c0e0          	_fs_LF2:
 1829  0000c0e0          	.space 48
 1830  0000c110          	.align 2
 1831  0000c110          	_openfiles_LF2:
 1832  0000c110          	.space 8576
 1833                      ; Compiled by GCC
 1835  0000e290          	.align 2
 1836  0000e290          	_rcsid_LF3:
 1837  0000e290  3a206d65	.ascii "$Id: memory.c,v 1.1 2000/09/20 01:50:19 elm Exp elm $\000"
 1837  0000e294  6d6f7279	
 1837  0000e298  2e632c76	
 1837  0000e29c  20312e31	
 1837  0000e2a0  20323030	
 1837  0000e2a4  302f3039	
 1837  0000e2a8  2f323020	
 1837  0000e2ac  30313a35	
 1837  0000e2b0  303a3139	
 1837  0000e2b4  20656c6d	
 1837  0000e2b8  20457870	
 1837  0000e2bc  20656c6d	
 1837  0000e2c0  20303030	
 1838  0000e2c4          	.text
 1839  00002570          	.align 2
 1840  00002570          	.proc _isspace
 1841  00002570          	.global _isspace
 1842  00002570          	_isspace:
 1843                      ;  Function 'isspace'; 0 bytes of locals, 1 regs to save.
 1844  00002570  afbefffc	sw	-4(r29),r30; push fp
 1845  00002574  001df020	add	r30,r0,r29; fp = sp
 1846  00002578  afbffff8	sw	-8(r29),r31; push ret addr
 1847  0000257c  2fbd0010	subui	r29,r29,#16; alloc local storage
 1848  00002580  afa20000	sw	0(r29),r2
 1849  00002584  83c20003	lb	r2,3(r30)
 1850  00002588  201f0000	addi	r31,r0,#0
 1851  0000258c  304100ff	andi	r1,r2,#0x00ff
 1852  00002590  60210020	seqi	r1,r1,#32
 1853  00002594  14200018	bnez	r1,L6_LF3
 1854  00002598  54000000	nop; not filled.
 1855  0000259c  2041fff7	addi	r1,r2,#-9
 1856  000025a0  302100ff	andi	r1,r1,#0x00ff
 1857  000025a4  70210001	sleui	r1,r1,#1
 1858  000025a8  10200008	beqz	r1,L5_LF3
 1859  000025ac  54000000	nop; not filled.
 1860  000025b0          	L6_LF3:
 1861  000025b0  201f0001	addi	r31,r0,#1
 1862  000025b4          	L5_LF3:
 1863  000025b4  001f0820	add	r1,r0,r31
 1864  000025b8  8fa20000	lw	r2,0(r29)
 1865  000025bc  8fdffff8	lw	r31,-8(r30)
 1866  000025c0  001ee820	add	r29,r0,r30
 1867  000025c4  8fdefffc	lw	r30,-4(r30)
 1868  000025c8  4be00000	jr	r31
 1869  000025cc  54000000	nop
 1870  000025d0          	.endproc _isspace
 1871  000025d0          	.align 2
 1872  000025d0          	.proc _isxdigit
 1873  000025d0          	.global _isxdigit
 1874  000025d0          	_isxdigit:
 1875                      ;  Function 'isxdigit'; 0 bytes of locals, 1 regs to save.
 1876  000025d0  afbefffc	sw	-4(r29),r30; push fp
 1877  000025d4  001df020	add	r30,r0,r29; fp = sp
 1878  000025d8  afbffff8	sw	-8(r29),r31; push ret addr
 1879  000025dc  2fbd0010	subui	r29,r29,#16; alloc local storage
 1880  000025e0  afa20000	sw	0(r29),r2
 1881  000025e4  83df0003	lb	r31,3(r30)
 1882  000025e8  20020000	addi	r2,r0,#0
 1883  000025ec  23e1ffd0	addi	r1,r31,#-48
 1884  000025f0  302100ff	andi	r1,r1,#0x00ff
 1885  000025f4  70210009	sleui	r1,r1,#9
 1886  000025f8  14200028	bnez	r1,L12_LF3
 1887  000025fc  54000000	nop; not filled.
 1888  00002600  23e1ff9f	addi	r1,r31,#-97
 1889  00002604  302100ff	andi	r1,r1,#0x00ff
 1890  00002608  70210005	sleui	r1,r1,#5
 1891  0000260c  14200014	bnez	r1,L12_LF3
 1892  00002610  54000000	nop; not filled.
 1893  00002614  33e100ff	andi	r1,r31,#0x00ff
 1894  00002618  64210041	snei	r1,r1,#65
 1895  0000261c  14200008	bnez	r1,L11_LF3
 1896  00002620  54000000	nop; not filled.
 1897  00002624          	L12_LF3:
 1898  00002624  20020001	addi	r2,r0,#1
 1899  00002628          	L11_LF3:
 1900  00002628  00020820	add	r1,r0,r2
 1901  0000262c  8fa20000	lw	r2,0(r29)
 1902  00002630  8fdffff8	lw	r31,-8(r30)
 1903  00002634  001ee820	add	r29,r0,r30
 1904  00002638  8fdefffc	lw	r30,-4(r30)
 1905  0000263c  4be00000	jr	r31
 1906  00002640  54000000	nop
 1907  00002644          	.endproc _isxdigit
 1908  00002644          	.align 2
 1909  00002644          	.proc _DisableIntrs
 1910  00002644          	.global _DisableIntrs
 1911  00002644          	_DisableIntrs:
 1912                      ;  Function 'DisableIntrs'; 0 bytes of locals, 1 regs to save.
 1913  00002644  afbefffc	sw	-4(r29),r30; push fp
 1914  00002648  001df020	add	r30,r0,r29; fp = sp
 1915  0000264c  afbffff8	sw	-8(r29),r31; push ret addr
 1916  00002650  2fbd0010	subui	r29,r29,#16; alloc local storage
 1917  00002654  afa20000	sw	0(r29),r2
 1918  00002658  23bdfff8	addi	r29,r29,#-8
 1919  0000265c  2002000f	addi	r2,r0,#15
 1920  00002660  afa20000	sw	(r29),r2
 1921  00002664  0fffec20	jal	_SetIntrs
 1922  00002668  54000000	nop; not filled.
 1923  0000266c  23bd0008	addi	r29,r29,#8
 1924  00002670  8fa20000	lw	r2,0(r29)
 1925  00002674  8fdffff8	lw	r31,-8(r30)
 1926  00002678  001ee820	add	r29,r0,r30
 1927  0000267c  8fdefffc	lw	r30,-4(r30)
 1928  00002680  4be00000	jr	r31
 1929  00002684  54000000	nop
 1930  00002688          	.endproc _DisableIntrs
 1931  00002688          	.align 2
 1932  00002688          	.proc _EnableIntrs
 1933  00002688          	.global _EnableIntrs
 1934  00002688          	_EnableIntrs:
 1935                      ;  Function 'EnableIntrs'; 0 bytes of locals, 1 regs to save.
 1936  00002688  afbefffc	sw	-4(r29),r30; push fp
 1937  0000268c  001df020	add	r30,r0,r29; fp = sp
 1938  00002690  afbffff8	sw	-8(r29),r31; push ret addr
 1939  00002694  2fbd0010	subui	r29,r29,#16; alloc local storage
 1940  00002698  afa20000	sw	0(r29),r2
 1941  0000269c  23bdfff8	addi	r29,r29,#-8
 1942  000026a0  20020000	addi	r2,r0,#0
 1943  000026a4  afa20000	sw	(r29),r2
 1944  000026a8  0fffebdc	jal	_SetIntrs
 1945  000026ac  54000000	nop; not filled.
 1946  000026b0  23bd0008	addi	r29,r29,#8
 1947  000026b4  8fa20000	lw	r2,0(r29)
 1948  000026b8  8fdffff8	lw	r31,-8(r30)
 1949  000026bc  001ee820	add	r29,r0,r30
 1950  000026c0  8fdefffc	lw	r30,-4(r30)
 1951  000026c4  4be00000	jr	r31
 1952  000026c8  54000000	nop
 1953  000026cc          	.endproc _EnableIntrs
 1954  000026cc          	.align 2
 1955  000026cc          	.proc _RestoreIntrs
 1956  000026cc          	.global _RestoreIntrs
 1957  000026cc          	_RestoreIntrs:
 1958                      ;  Function 'RestoreIntrs'; 0 bytes of locals, 1 regs to save.
 1959  000026cc  afbefffc	sw	-4(r29),r30; push fp
 1960  000026d0  001df020	add	r30,r0,r29; fp = sp
 1961  000026d4  afbffff8	sw	-8(r29),r31; push ret addr
 1962  000026d8  2fbd0010	subui	r29,r29,#16; alloc local storage
 1963  000026dc  afa20000	sw	0(r29),r2
 1964  000026e0  23bdfff8	addi	r29,r29,#-8
 1965  000026e4  8fc20000	lw	r2,(r30)
 1966  000026e8  afa20000	sw	(r29),r2
 1967  000026ec  0fffeb98	jal	_SetIntrs
 1968  000026f0  54000000	nop; not filled.
 1969  000026f4  23bd0008	addi	r29,r29,#8
 1970  000026f8  8fa20000	lw	r2,0(r29)
 1971  000026fc  8fdffff8	lw	r31,-8(r30)
 1972  00002700  001ee820	add	r29,r0,r30
 1973  00002704  8fdefffc	lw	r30,-4(r30)
 1974  00002708  4be00000	jr	r31
 1975  0000270c  54000000	nop
 1976  00002710          	.endproc _RestoreIntrs
 1977  00002710          	.align 2
 1978  00002710          	.proc _QueueLinkInit
 1979  00002710          	.global _QueueLinkInit
 1980  00002710          	_QueueLinkInit:
 1981                      ;  Function 'QueueLinkInit'; 0 bytes of locals, 1 regs to save.
 1982  00002710  afbefffc	sw	-4(r29),r30; push fp
 1983  00002714  001df020	add	r30,r0,r29; fp = sp
 1984  00002718  afbffff8	sw	-8(r29),r31; push ret addr
 1985  0000271c  2fbd0010	subui	r29,r29,#16; alloc local storage
 1986  00002720  afa20000	sw	0(r29),r2
 1987  00002724  8fc10000	lw	r1,(r30)
 1988  00002728  8fc20004	lw	r2,4(r30)
 1989  0000272c  201f0000	addi	r31,r0,#0
 1990  00002730  ac3f0000	sw	(r1),r31
 1991  00002734  ac22000c	sw	12(r1),r2
 1992  00002738  8fa20000	lw	r2,0(r29)
 1993  0000273c  8fdffff8	lw	r31,-8(r30)
 1994  00002740  001ee820	add	r29,r0,r30
 1995  00002744  8fdefffc	lw	r30,-4(r30)
 1996  00002748  4be00000	jr	r31
 1997  0000274c  54000000	nop
 1998  00002750          	.endproc _QueueLinkInit
 1999  00002750          	.align 2
 2000  00002750          	.proc _QueueNext
 2001  00002750          	.global _QueueNext
 2002  00002750          	_QueueNext:
 2003                      ;  Function 'QueueNext'; 0 bytes of locals, 0 regs to save.
 2004  00002750  afbefffc	sw	-4(r29),r30; push fp
 2005  00002754  001df020	add	r30,r0,r29; fp = sp
 2006  00002758  afbffff8	sw	-8(r29),r31; push ret addr
 2007  0000275c  2fbd0008	subui	r29,r29,#8; alloc local storage
 2008  00002760  8fc10000	lw	r1,(r30)
 2009  00002764  8c210000	lw	r1,(r1)
 2010  00002768  8fdffff8	lw	r31,-8(r30)
 2011  0000276c  001ee820	add	r29,r0,r30
 2012  00002770  8fdefffc	lw	r30,-4(r30)
 2013  00002774  4be00000	jr	r31
 2014  00002778  54000000	nop
 2015  0000277c          	.endproc _QueueNext
 2016  0000277c          	.align 2
 2017  0000277c          	.proc _QueuePrev
 2018  0000277c          	.global _QueuePrev
 2019  0000277c          	_QueuePrev:
 2020                      ;  Function 'QueuePrev'; 0 bytes of locals, 0 regs to save.
 2021  0000277c  afbefffc	sw	-4(r29),r30; push fp
 2022  00002780  001df020	add	r30,r0,r29; fp = sp
 2023  00002784  afbffff8	sw	-8(r29),r31; push ret addr
 2024  00002788  2fbd0008	subui	r29,r29,#8; alloc local storage
 2025  0000278c  8fc10000	lw	r1,(r30)
 2026  00002790  8c210004	lw	r1,4(r1)
 2027  00002794  8fdffff8	lw	r31,-8(r30)
 2028  00002798  001ee820	add	r29,r0,r30
 2029  0000279c  8fdefffc	lw	r30,-4(r30)
 2030  000027a0  4be00000	jr	r31
 2031  000027a4  54000000	nop
 2032  000027a8          	.endproc _QueuePrev
 2033  000027a8          	.align 2
 2034  000027a8          	.proc _QueueFirst
 2035  000027a8          	.global _QueueFirst
 2036  000027a8          	_QueueFirst:
 2037                      ;  Function 'QueueFirst'; 0 bytes of locals, 0 regs to save.
 2038  000027a8  afbefffc	sw	-4(r29),r30; push fp
 2039  000027ac  001df020	add	r30,r0,r29; fp = sp
 2040  000027b0  afbffff8	sw	-8(r29),r31; push ret addr
 2041  000027b4  2fbd0008	subui	r29,r29,#8; alloc local storage
 2042  000027b8  8fc10000	lw	r1,(r30)
 2043  000027bc  8c210000	lw	r1,(r1)
 2044  000027c0  8fdffff8	lw	r31,-8(r30)
 2045  000027c4  001ee820	add	r29,r0,r30
 2046  000027c8  8fdefffc	lw	r30,-4(r30)
 2047  000027cc  4be00000	jr	r31
 2048  000027d0  54000000	nop
 2049  000027d4          	.endproc _QueueFirst
 2050  000027d4          	.align 2
 2051  000027d4          	.proc _QueueLast
 2052  000027d4          	.global _QueueLast
 2053  000027d4          	_QueueLast:
 2054                      ;  Function 'QueueLast'; 0 bytes of locals, 0 regs to save.
 2055  000027d4  afbefffc	sw	-4(r29),r30; push fp
 2056  000027d8  001df020	add	r30,r0,r29; fp = sp
 2057  000027dc  afbffff8	sw	-8(r29),r31; push ret addr
 2058  000027e0  2fbd0008	subui	r29,r29,#8; alloc local storage
 2059  000027e4  8fc10000	lw	r1,(r30)
 2060  000027e8  8c210004	lw	r1,4(r1)
 2061  000027ec  8fdffff8	lw	r31,-8(r30)
 2062  000027f0  001ee820	add	r29,r0,r30
 2063  000027f4  8fdefffc	lw	r30,-4(r30)
 2064  000027f8  4be00000	jr	r31
 2065  000027fc  54000000	nop
 2066  00002800          	.endproc _QueueLast
 2067  00002800          	.align 2
 2068  00002800          	.proc _QueueInsertAfter
 2069  00002800          	.global _QueueInsertAfter
 2070  00002800          	_QueueInsertAfter:
 2071                      ;  Function 'QueueInsertAfter'; 0 bytes of locals, 2 regs to save.
 2072  00002800  afbefffc	sw	-4(r29),r30; push fp
 2073  00002804  001df020	add	r30,r0,r29; fp = sp
 2074  00002808  afbffff8	sw	-8(r29),r31; push ret addr
 2075  0000280c  2fbd0010	subui	r29,r29,#16; alloc local storage
 2076  00002810  afa20000	sw	0(r29),r2
 2077  00002814  afa30004	sw	4(r29),r3
 2078  00002818  8fc30000	lw	r3,(r30)
 2079  0000281c  8fc20004	lw	r2,4(r30)
 2080  00002820  8fc10008	lw	r1,8(r30)
 2081  00002824  ac230008	sw	8(r1),r3
 2082  00002828  ac220004	sw	4(r1),r2
 2083  0000282c  8c5f0000	lw	r31,(r2)
 2084  00002830  ac3f0000	sw	(r1),r31
 2085  00002834  ac410000	sw	(r2),r1
 2086  00002838  8c220000	lw	r2,(r1)
 2087  0000283c  ac410004	sw	4(r2),r1
 2088  00002840  8c610008	lw	r1,8(r3)
 2089  00002844  20210001	addi	r1,r1,#1
 2090  00002848  ac610008	sw	8(r3),r1
 2091  0000284c  8fa20000	lw	r2,0(r29)
 2092  00002850  8fa30004	lw	r3,4(r29)
 2093  00002854  8fdffff8	lw	r31,-8(r30)
 2094  00002858  001ee820	add	r29,r0,r30
 2095  0000285c  8fdefffc	lw	r30,-4(r30)
 2096  00002860  4be00000	jr	r31
 2097  00002864  54000000	nop
 2098  00002868          	.endproc _QueueInsertAfter
 2099  00002868          	.align 2
 2100  00002868          	.proc _QueueInsertFirst
 2101  00002868          	.global _QueueInsertFirst
 2102  00002868          	_QueueInsertFirst:
 2103                      ;  Function 'QueueInsertFirst'; 0 bytes of locals, 2 regs to save.
 2104  00002868  afbefffc	sw	-4(r29),r30; push fp
 2105  0000286c  001df020	add	r30,r0,r29; fp = sp
 2106  00002870  afbffff8	sw	-8(r29),r31; push ret addr
 2107  00002874  2fbd0010	subui	r29,r29,#16; alloc local storage
 2108  00002878  afa20000	sw	0(r29),r2
 2109  0000287c  afa30004	sw	4(r29),r3
 2110  00002880  8fc30000	lw	r3,(r30)
 2111  00002884  8fc10004	lw	r1,4(r30)
 2112  00002888  ac230008	sw	8(r1),r3
 2113  0000288c  ac230004	sw	4(r1),r3
 2114  00002890  8c7f0000	lw	r31,(r3)
 2115  00002894  ac3f0000	sw	(r1),r31
 2116  00002898  ac610000	sw	(r3),r1
 2117  0000289c  8c220000	lw	r2,(r1)
 2118  000028a0  ac410004	sw	4(r2),r1
 2119  000028a4  8c610008	lw	r1,8(r3)
 2120  000028a8  20210001	addi	r1,r1,#1
 2121  000028ac  ac610008	sw	8(r3),r1
 2122  000028b0  8fa20000	lw	r2,0(r29)
 2123  000028b4  8fa30004	lw	r3,4(r29)
 2124  000028b8  8fdffff8	lw	r31,-8(r30)
 2125  000028bc  001ee820	add	r29,r0,r30
 2126  000028c0  8fdefffc	lw	r30,-4(r30)
 2127  000028c4  4be00000	jr	r31
 2128  000028c8  54000000	nop
 2129  000028cc          	.endproc _QueueInsertFirst
 2130  000028cc          	.align 2
 2131  000028cc          	.proc _QueueInsertLast
 2132  000028cc          	.global _QueueInsertLast
 2133  000028cc          	_QueueInsertLast:
 2134                      ;  Function 'QueueInsertLast'; 0 bytes of locals, 2 regs to save.
 2135  000028cc  afbefffc	sw	-4(r29),r30; push fp
 2136  000028d0  001df020	add	r30,r0,r29; fp = sp
 2137  000028d4  afbffff8	sw	-8(r29),r31; push ret addr
 2138  000028d8  2fbd0010	subui	r29,r29,#16; alloc local storage
 2139  000028dc  afa20000	sw	0(r29),r2
 2140  000028e0  afa30004	sw	4(r29),r3
 2141  000028e4  8fc30000	lw	r3,(r30)
 2142  000028e8  8fc10004	lw	r1,4(r30)
 2143  000028ec  8c620004	lw	r2,4(r3)
 2144  000028f0  ac230008	sw	8(r1),r3
 2145  000028f4  ac220004	sw	4(r1),r2
 2146  000028f8  8c5f0000	lw	r31,(r2)
 2147  000028fc  ac3f0000	sw	(r1),r31
 2148  00002900  ac410000	sw	(r2),r1
 2149  00002904  8c220000	lw	r2,(r1)
 2150  00002908  ac410004	sw	4(r2),r1
 2151  0000290c  8c610008	lw	r1,8(r3)
 2152  00002910  20210001	addi	r1,r1,#1
 2153  00002914  ac610008	sw	8(r3),r1
 2154  00002918  8fa20000	lw	r2,0(r29)
 2155  0000291c  8fa30004	lw	r3,4(r29)
 2156  00002920  8fdffff8	lw	r31,-8(r30)
 2157  00002924  001ee820	add	r29,r0,r30
 2158  00002928  8fdefffc	lw	r30,-4(r30)
 2159  0000292c  4be00000	jr	r31
 2160  00002930  54000000	nop
 2161  00002934          	.endproc _QueueInsertLast
 2162  00002934          	.align 2
 2163  00002934          	.proc _QueueRemove
 2164  00002934          	.global _QueueRemove
 2165  00002934          	_QueueRemove:
 2166                      ;  Function 'QueueRemove'; 0 bytes of locals, 2 regs to save.
 2167  00002934  afbefffc	sw	-4(r29),r30; push fp
 2168  00002938  001df020	add	r30,r0,r29; fp = sp
 2169  0000293c  afbffff8	sw	-8(r29),r31; push ret addr
 2170  00002940  2fbd0010	subui	r29,r29,#16; alloc local storage
 2171  00002944  afa20000	sw	0(r29),r2
 2172  00002948  afa30004	sw	4(r29),r3
 2173  0000294c  8fdf0000	lw	r31,(r30)
 2174  00002950  8fe10008	lw	r1,8(r31)
 2175  00002954  8c210008	lw	r1,8(r1)
 2176  00002958  6c210000	sgti	r1,r1,#0
 2177  0000295c  1020002c	beqz	r1,L44_LF3
 2178  00002960  54000000	nop; not filled.
 2179  00002964  8fe10004	lw	r1,4(r31)
 2180  00002968  8fe30000	lw	r3,(r31)
 2181  0000296c  ac230000	sw	(r1),r3
 2182  00002970  8fe10000	lw	r1,(r31)
 2183  00002974  8fe30004	lw	r3,4(r31)
 2184  00002978  ac230004	sw	4(r1),r3
 2185  0000297c  8fe20008	lw	r2,8(r31)
 2186  00002980  8c410008	lw	r1,8(r2)
 2187  00002984  2021ffff	addi	r1,r1,#-1
 2188  00002988  ac410008	sw	8(r2),r1
 2189  0000298c          	L44_LF3:
 2190  0000298c  20030000	addi	r3,r0,#0
 2191  00002990  afe30000	sw	(r31),r3
 2192  00002994  8fa20000	lw	r2,0(r29)
 2193  00002998  8fa30004	lw	r3,4(r29)
 2194  0000299c  8fdffff8	lw	r31,-8(r30)
 2195  000029a0  001ee820	add	r29,r0,r30
 2196  000029a4  8fdefffc	lw	r30,-4(r30)
 2197  000029a8  4be00000	jr	r31
 2198  000029ac  54000000	nop
 2199  000029b0          	.endproc _QueueRemove
 2200  000029b0          	.align 2
 2201  000029b0          	.proc _QueueLength
 2202  000029b0          	.global _QueueLength
 2203  000029b0          	_QueueLength:
 2204                      ;  Function 'QueueLength'; 0 bytes of locals, 0 regs to save.
 2205  000029b0  afbefffc	sw	-4(r29),r30; push fp
 2206  000029b4  001df020	add	r30,r0,r29; fp = sp
 2207  000029b8  afbffff8	sw	-8(r29),r31; push ret addr
 2208  000029bc  2fbd0008	subui	r29,r29,#8; alloc local storage
 2209  000029c0  8fc10000	lw	r1,(r30)
 2210  000029c4  8c210008	lw	r1,8(r1)
 2211  000029c8  8fdffff8	lw	r31,-8(r30)
 2212  000029cc  001ee820	add	r29,r0,r30
 2213  000029d0  8fdefffc	lw	r30,-4(r30)
 2214  000029d4  4be00000	jr	r31
 2215  000029d8  54000000	nop
 2216  000029dc          	.endproc _QueueLength
 2217  000029dc          	.align 2
 2218  000029dc          	.proc _QueueEmpty
 2219  000029dc          	.global _QueueEmpty
 2220  000029dc          	_QueueEmpty:
 2221                      ;  Function 'QueueEmpty'; 0 bytes of locals, 0 regs to save.
 2222  000029dc  afbefffc	sw	-4(r29),r30; push fp
 2223  000029e0  001df020	add	r30,r0,r29; fp = sp
 2224  000029e4  afbffff8	sw	-8(r29),r31; push ret addr
 2225  000029e8  2fbd0008	subui	r29,r29,#8; alloc local storage
 2226  000029ec  8fc10000	lw	r1,(r30)
 2227  000029f0  8c210008	lw	r1,8(r1)
 2228  000029f4  60210000	seqi	r1,r1,#0
 2229  000029f8  8fdffff8	lw	r31,-8(r30)
 2230  000029fc  001ee820	add	r29,r0,r30
 2231  00002a00  8fdefffc	lw	r30,-4(r30)
 2232  00002a04  4be00000	jr	r31
 2233  00002a08  54000000	nop
 2234  00002a0c          	.endproc _QueueEmpty
 2235  00002a0c          	.data
 2236  0000e2c4          	.align 2
 2237  0000e2c4          	_negativeone_LF3:
 2238  0000e2c4  ffffffff	.word -1
 2239  0000e2c8          	.text
 2240  00002a0c          	.align 2
 2241  00002a0c          	.proc _MemoryGetSize
 2242  00002a0c          	.global _MemoryGetSize
 2243  00002a0c          	_MemoryGetSize:
 2244                      ;  Function 'MemoryGetSize'; 0 bytes of locals, 0 regs to save.
 2245  00002a0c  afbefffc	sw	-4(r29),r30; push fp
 2246  00002a10  001df020	add	r30,r0,r29; fp = sp
 2247  00002a14  afbffff8	sw	-8(r29),r31; push ret addr
 2248  00002a18  2fbd0008	subui	r29,r29,#8; alloc local storage
 2249  00002a1c  3c01ffff	lhi	r1,#-1
 2250  00002a20  24210000	addui	r1,r1,#0
 2251  00002a24  8c210000	lw	r1,(r1)
 2252  00002a28  8fdffff8	lw	r31,-8(r30)
 2253  00002a2c  001ee820	add	r29,r0,r30
 2254  00002a30  8fdefffc	lw	r30,-4(r30)
 2255  00002a34  4be00000	jr	r31
 2256  00002a38  54000000	nop
 2257  00002a3c          	.endproc _MemoryGetSize
 2258  00002a3c          	.data
 2259  0000e2c8          	.align 2
 2260  0000e2c8          	LC0_LF3:
 2261  0000e2c8  53657420	.ascii "Set freemap entry %d to 0x%x.\n\000"
 2261  0000e2cc  66726565	
 2261  0000e2d0  6d617020	
 2261  0000e2d4  656e7472	
 2261  0000e2d8  79202564	
 2261  0000e2dc  20746f20	
 2261  0000e2e0  30782578	
 2261  0000e2e4  2e0a00  	
 2262  0000e2e7          	.text
 2263  00002a3c          	.align 2
 2264  00002a3c          	.proc _MemorySetFreemap
 2265  00002a3c          	.global _MemorySetFreemap
 2266  00002a3c          	_MemorySetFreemap:
 2267                      ;  Function 'MemorySetFreemap'; 0 bytes of locals, 5 regs to save.
 2268  00002a3c  afbefffc	sw	-4(r29),r30; push fp
 2269  00002a40  001df020	add	r30,r0,r29; fp = sp
 2270  00002a44  afbffff8	sw	-8(r29),r31; push ret addr
 2271  00002a48  2fbd0020	subui	r29,r29,#32; alloc local storage
 2272  00002a4c  afa20000	sw	0(r29),r2
 2273  00002a50  afa30004	sw	4(r29),r3
 2274  00002a54  afa40008	sw	8(r29),r4
 2275  00002a58  afa5000c	sw	12(r29),r5
 2276  00002a5c  afa60010	sw	16(r29),r6
 2277  00002a60  8fc30000	lw	r3,(r30)
 2278  00002a64  8fdf0004	lw	r31,4(r30)
 2279  00002a68  00031020	add	r2,r0,r3
 2280  00002a6c  74610000	sgei	r1,r3,#0
 2281  00002a70  14200008	bnez	r1,L61_LF3
 2282  00002a74  54000000	nop; not filled.
 2283  00002a78  2062001f	addi	r2,r3,#31
 2284  00002a7c          	L61_LF3:
 2285  00002a7c  5c450005	srai	r5,r2,#0x5
 2286  00002a80  50a10005	slli	r1,r5,#0x5
 2287  00002a84  00611822	sub	r3,r3,r1
 2288  00002a88  20010001	addi	r1,r0,#1
 2289  00002a8c  00231004	sll	r2,r1,r3
 2290  00002a90  3c010000	lhi	r1,((_negativeone_LF3)>>16)&0xffff
 2291  00002a94  2421e2c4	addui	r1,r1,(_negativeone_LF3)&0xffff
 2292  00002a98  8c210000	lw	r1,(r1)
 2293  00002a9c  00411026	xor	r2,r2,r1
 2294  00002aa0  50a10002	slli	r1,r5,#0x2
 2295  00002aa4  3c060000	lhi	r6,((_freepages_LF3)>>16)&0xffff
 2296  00002aa8  24c6e458	addui	r6,r6,(_freepages_LF3)&0xffff
 2297  00002aac  00262020	add	r4,r1,r6
 2298  00002ab0  8c810000	lw	r1,(r4)
 2299  00002ab4  00221024	and	r2,r1,r2
 2300  00002ab8  03e30804	sll	r1,r31,r3
 2301  00002abc  00410825	or	r1,r2,r1
 2302  00002ac0  ac810000	sw	(r4),r1
 2303  00002ac4  23bdfff8	addi	r29,r29,#-8
 2304  00002ac8  3c020000	lhi	r2,((_debugstr)>>16)&0xffff
 2305  00002acc  2442ef7c	addui	r2,r2,(_debugstr)&0xffff
 2306  00002ad0  afa20000	sw	(r29),r2
 2307  00002ad4  2006006d	addi	r6,r0,#109
 2308  00002ad8  afa60004	sw	4(r29),r6
 2309  00002adc  0c001410	jal	_dindex
 2310  00002ae0  54000000	nop; not filled.
 2311  00002ae4  23bd0008	addi	r29,r29,#8
 2312  00002ae8  64210000	snei	r1,r1,#0
 2313  00002aec  1420002c	bnez	r1,L65_LF3
 2314  00002af0  54000000	nop; not filled.
 2315  00002af4  23bdfff8	addi	r29,r29,#-8
 2316  00002af8  afa20000	sw	(r29),r2
 2317  00002afc  2006002b	addi	r6,r0,#43
 2318  00002b00  afa60004	sw	4(r29),r6
 2319  00002b04  0c0013e8	jal	_dindex
 2320  00002b08  54000000	nop; not filled.
 2321  00002b0c  23bd0008	addi	r29,r29,#8
 2322  00002b10  64210000	snei	r1,r1,#0
 2323  00002b14  1020002c	beqz	r1,L64_LF3
 2324  00002b18  54000000	nop; not filled.
 2325  00002b1c          	L65_LF3:
 2326  00002b1c  23bdfff0	addi	r29,r29,#-16
 2327  00002b20  3c060000	lhi	r6,((LC0_LF3)>>16)&0xffff
 2328  00002b24  24c6e2c8	addui	r6,r6,(LC0_LF3)&0xffff
 2329  00002b28  afa60000	sw	(r29),r6
 2330  00002b2c  afa50004	sw	4(r29),r5
 2331  00002b30  8c840000	lw	r4,(r4)
 2332  00002b34  afa40008	sw	8(r29),r4
 2333  00002b38  0c0089bc	jal	_printf
 2334  00002b3c  54000000	nop; not filled.
 2335  00002b40  23bd0010	addi	r29,r29,#16
 2336  00002b44          	L64_LF3:
 2337  00002b44  8fa20000	lw	r2,0(r29)
 2338  00002b48  8fa30004	lw	r3,4(r29)
 2339  00002b4c  8fa40008	lw	r4,8(r29)
 2340  00002b50  8fa5000c	lw	r5,12(r29)
 2341  00002b54  8fa60010	lw	r6,16(r29)
 2342  00002b58  8fdffff8	lw	r31,-8(r30)
 2343  00002b5c  001ee820	add	r29,r0,r30
 2344  00002b60  8fdefffc	lw	r30,-4(r30)
 2345  00002b64  4be00000	jr	r31
 2346  00002b68  54000000	nop
 2347  00002b6c          	.endproc _MemorySetFreemap
 2348  00002b6c          	.data
 2349  0000e2e7          	.align 2
 2350  0000e2e8          	LC1_LF3:
 2351  0000e2e8  4d617020	.ascii "Map has %d entries, memory size is 0x%x.\n\000"
 2351  0000e2ec  68617320	
 2351  0000e2f0  25642065	
 2351  0000e2f4  6e747269	
 2351  0000e2f8  65732c20	
 2351  0000e2fc  6d656d6f	
 2351  0000e300  72792073	
 2351  0000e304  697a6520	
 2351  0000e308  69732030	
 2351  0000e30c  7825782e	
 2351  0000e310  0a00    	
 2352  0000e312          	.align 2
 2353  0000e314          	LC2_LF3:
 2354  0000e314  46726565	.ascii "Free pages start with page # 0x%x.\n\000"
 2354  0000e318  20706167	
 2354  0000e31c  65732073	
 2354  0000e320  74617274	
 2354  0000e324  20776974	
 2354  0000e328  68207061	
 2354  0000e32c  67652023	
 2354  0000e330  20307825	
 2354  0000e334  782e0a00	
 2355  0000e338          	.align 2
 2356  0000e338          	LC3_LF3:
 2357  0000e338  496e6974	.ascii "Initialized %d free pages.\n\000"
 2357  0000e33c  69616c69	
 2357  0000e340  7a656420	
 2357  0000e344  25642066	
 2357  0000e348  72656520	
 2357  0000e34c  70616765	
 2357  0000e350  732e0a00	
 2358  0000e354          	.text
 2359  00002b6c          	.align 2
 2360  00002b6c          	.proc _MemoryModuleInit
 2361  00002b6c          	.global _MemoryModuleInit
 2362  00002b6c          	_MemoryModuleInit:
 2363                      ;  Function 'MemoryModuleInit'; 0 bytes of locals, 10 regs to save.
 2364  00002b6c  afbefffc	sw	-4(r29),r30; push fp
 2365  00002b70  001df020	add	r30,r0,r29; fp = sp
 2366  00002b74  afbffff8	sw	-8(r29),r31; push ret addr
 2367  00002b78  2fbd0030	subui	r29,r29,#48; alloc local storage
 2368  00002b7c  afa20000	sw	0(r29),r2
 2369  00002b80  afa30004	sw	4(r29),r3
 2370  00002b84  afa40008	sw	8(r29),r4
 2371  00002b88  afa5000c	sw	12(r29),r5
 2372  00002b8c  afa60010	sw	16(r29),r6
 2373  00002b90  afa70014	sw	20(r29),r7
 2374  00002b94  afa80018	sw	24(r29),r8
 2375  00002b98  afa9001c	sw	28(r29),r9
 2376  00002b9c  afaa0020	sw	32(r29),r10
 2377  00002ba0  afab0024	sw	36(r29),r11
 2378  00002ba4  3c01ffff	lhi	r1,#-1
 2379  00002ba8  24210000	addui	r1,r1,#0
 2380  00002bac  8c220000	lw	r2,(r1)
 2381  00002bb0  74410000	sgei	r1,r2,#0
 2382  00002bb4  14200008	bnez	r1,L68_LF3
 2383  00002bb8  54000000	nop; not filled.
 2384  00002bbc  20421fff	addi	r2,r2,#8191
 2385  00002bc0          	L68_LF3:
 2386  00002bc0  5c47000d	srai	r7,r2,#0xd
 2387  00002bc4  3c040000	lhi	r4,((_pagestart_LF3)>>16)&0xffff
 2388  00002bc8  2484e44c	addui	r4,r4,(_pagestart_LF3)&0xffff
 2389  00002bcc  3c010001	lhi	r1,((_lastosaddress)>>16)&0xffff
 2390  00002bd0  24213fac	addui	r1,r1,(_lastosaddress)&0xffff
 2391  00002bd4  8c230000	lw	r3,(r1)
 2392  00002bd8  20621ffc	addi	r2,r3,#8188
 2393  00002bdc  74410000	sgei	r1,r2,#0
 2394  00002be0  14200008	bnez	r1,L69_LF3
 2395  00002be4  54000000	nop; not filled.
 2396  00002be8  20623ffb	addi	r2,r3,#16379
 2397  00002bec          	L69_LF3:
 2398  00002bec  5c41000d	srai	r1,r2,#0xd
 2399  00002bf0  ac810000	sw	(r4),r1
 2400  00002bf4  3c030000	lhi	r3,((_freemapmax_LF3)>>16)&0xffff
 2401  00002bf8  2463e450	addui	r3,r3,(_freemapmax_LF3)&0xffff
 2402  00002bfc  20e2001f	addi	r2,r7,#31
 2403  00002c00  74410000	sgei	r1,r2,#0
 2404  00002c04  14200008	bnez	r1,L70_LF3
 2405  00002c08  54000000	nop; not filled.
 2406  00002c0c  20e2003e	addi	r2,r7,#62
 2407  00002c10          	L70_LF3:
 2408  00002c10  5c410005	srai	r1,r2,#0x5
 2409  00002c14  ac610000	sw	(r3),r1
 2410  00002c18  23bdfff8	addi	r29,r29,#-8
 2411  00002c1c  3c020000	lhi	r2,((_debugstr)>>16)&0xffff
 2412  00002c20  2442ef7c	addui	r2,r2,(_debugstr)&0xffff
 2413  00002c24  afa20000	sw	(r29),r2
 2414  00002c28  200b006d	addi	r11,r0,#109
 2415  00002c2c  afab0004	sw	4(r29),r11
 2416  00002c30  0c0012bc	jal	_dindex
 2417  00002c34  54000000	nop; not filled.
 2418  00002c38  23bd0008	addi	r29,r29,#8
 2419  00002c3c  64210000	snei	r1,r1,#0
 2420  00002c40  1420002c	bnez	r1,L72_LF3
 2421  00002c44  54000000	nop; not filled.
 2422  00002c48  23bdfff8	addi	r29,r29,#-8
 2423  00002c4c  afa20000	sw	(r29),r2
 2424  00002c50  200b002b	addi	r11,r0,#43
 2425  00002c54  afab0004	sw	4(r29),r11
 2426  00002c58  0c001294	jal	_dindex
 2427  00002c5c  54000000	nop; not filled.
 2428  00002c60  23bd0008	addi	r29,r29,#8
 2429  00002c64  64210000	snei	r1,r1,#0
 2430  00002c68  1020002c	beqz	r1,L71_LF3
 2431  00002c6c  54000000	nop; not filled.
 2432  00002c70          	L72_LF3:
 2433  00002c70  23bdfff0	addi	r29,r29,#-16
 2434  00002c74  3c0b0000	lhi	r11,((LC1_LF3)>>16)&0xffff
 2435  00002c78  256be2e8	addui	r11,r11,(LC1_LF3)&0xffff
 2436  00002c7c  afab0000	sw	(r29),r11
 2437  00002c80  8c610000	lw	r1,(r3)
 2438  00002c84  afa10004	sw	4(r29),r1
 2439  00002c88  afa70008	sw	8(r29),r7
 2440  00002c8c  0c008868	jal	_printf
 2441  00002c90  54000000	nop; not filled.
 2442  00002c94  23bd0010	addi	r29,r29,#16
 2443  00002c98          	L71_LF3:
 2444  00002c98  23bdfff8	addi	r29,r29,#-8
 2445  00002c9c  3c020000	lhi	r2,((_debugstr)>>16)&0xffff
 2446  00002ca0  2442ef7c	addui	r2,r2,(_debugstr)&0xffff
 2447  00002ca4  afa20000	sw	(r29),r2
 2448  00002ca8  200b006d	addi	r11,r0,#109
 2449  00002cac  afab0004	sw	4(r29),r11
 2450  00002cb0  0c00123c	jal	_dindex
 2451  00002cb4  54000000	nop; not filled.
 2452  00002cb8  23bd0008	addi	r29,r29,#8
 2453  00002cbc  64210000	snei	r1,r1,#0
 2454  00002cc0  1420002c	bnez	r1,L74_LF3
 2455  00002cc4  54000000	nop; not filled.
 2456  00002cc8  23bdfff8	addi	r29,r29,#-8
 2457  00002ccc  afa20000	sw	(r29),r2
 2458  00002cd0  200b002b	addi	r11,r0,#43
 2459  00002cd4  afab0004	sw	4(r29),r11
 2460  00002cd8  0c001214	jal	_dindex
 2461  00002cdc  54000000	nop; not filled.
 2462  00002ce0  23bd0008	addi	r29,r29,#8
 2463  00002ce4  64210000	snei	r1,r1,#0
 2464  00002ce8  10200030	beqz	r1,L73_LF3
 2465  00002cec  54000000	nop; not filled.
 2466  00002cf0          	L74_LF3:
 2467  00002cf0  23bdfff8	addi	r29,r29,#-8
 2468  00002cf4  3c0b0000	lhi	r11,((LC2_LF3)>>16)&0xffff
 2469  00002cf8  256be314	addui	r11,r11,(LC2_LF3)&0xffff
 2470  00002cfc  afab0000	sw	(r29),r11
 2471  00002d00  3c010000	lhi	r1,((_pagestart_LF3)>>16)&0xffff
 2472  00002d04  2421e44c	addui	r1,r1,(_pagestart_LF3)&0xffff
 2473  00002d08  8c210000	lw	r1,(r1)
 2474  00002d0c  afa10004	sw	4(r29),r1
 2475  00002d10  0c0087e4	jal	_printf
 2476  00002d14  54000000	nop; not filled.
 2477  00002d18  23bd0008	addi	r29,r29,#8
 2478  00002d1c          	L73_LF3:
 2479  00002d1c  20020000	addi	r2,r0,#0
 2480  00002d20  3c040000	lhi	r4,((_freemapmax_LF3)>>16)&0xffff
 2481  00002d24  2484e450	addui	r4,r4,(_freemapmax_LF3)&0xffff
 2482  00002d28  8c810000	lw	r1,(r4)
 2483  00002d2c  0041082a	slt	r1,r2,r1
 2484  00002d30  1020002c	beqz	r1,L76_LF3
 2485  00002d34  54000000	nop; not filled.
 2486  00002d38  3c030000	lhi	r3,((_freepages_LF3)>>16)&0xffff
 2487  00002d3c  2463e458	addui	r3,r3,(_freepages_LF3)&0xffff
 2488  00002d40          	L78_LF3:
 2489  00002d40  200b0000	addi	r11,r0,#0
 2490  00002d44  ac6b0000	sw	(r3),r11
 2491  00002d48  20630004	addi	r3,r3,#4
 2492  00002d4c  20420001	addi	r2,r2,#1
 2493  00002d50  8c810000	lw	r1,(r4)
 2494  00002d54  0041082a	slt	r1,r2,r1
 2495  00002d58  1420ffe4	bnez	r1,L78_LF3
 2496  00002d5c  54000000	nop; not filled.
 2497  00002d60          	L76_LF3:
 2498  00002d60  3c020000	lhi	r2,((_nfreepages_LF3)>>16)&0xffff
 2499  00002d64  2442e454	addui	r2,r2,(_nfreepages_LF3)&0xffff
 2500  00002d68  200b0000	addi	r11,r0,#0
 2501  00002d6c  ac4b0000	sw	(r2),r11
 2502  00002d70  3c010000	lhi	r1,((_pagestart_LF3)>>16)&0xffff
 2503  00002d74  2421e44c	addui	r1,r1,(_pagestart_LF3)&0xffff
 2504  00002d78  8c240000	lw	r4,(r1)
 2505  00002d7c  0087082a	slt	r1,r4,r7
 2506  00002d80  10200104	beqz	r1,L81_LF3
 2507  00002d84  54000000	nop; not filled.
 2508  00002d88  00024020	add	r8,r0,r2
 2509  00002d8c  200a0001	addi	r10,r0,#1
 2510  00002d90  3c090000	lhi	r9,((_negativeone_LF3)>>16)&0xffff
 2511  00002d94  2529e2c4	addui	r9,r9,(_negativeone_LF3)&0xffff
 2512  00002d98          	L83_LF3:
 2513  00002d98  8d010000	lw	r1,(r8)
 2514  00002d9c  20210001	addi	r1,r1,#1
 2515  00002da0  ad010000	sw	(r8),r1
 2516  00002da4  00041020	add	r2,r0,r4
 2517  00002da8  74810000	sgei	r1,r4,#0
 2518  00002dac  14200008	bnez	r1,L85_LF3
 2519  00002db0  54000000	nop; not filled.
 2520  00002db4  2082001f	addi	r2,r4,#31
 2521  00002db8          	L85_LF3:
 2522  00002db8  5c460005	srai	r6,r2,#0x5
 2523  00002dbc  50c10005	slli	r1,r6,#0x5
 2524  00002dc0  00810822	sub	r1,r4,r1
 2525  00002dc4  01411804	sll	r3,r10,r1
 2526  00002dc8  8d210000	lw	r1,(r9)
 2527  00002dcc  00611026	xor	r2,r3,r1
 2528  00002dd0  50c10002	slli	r1,r6,#0x2
 2529  00002dd4  3c0b0000	lhi	r11,((_freepages_LF3)>>16)&0xffff
 2530  00002dd8  256be458	addui	r11,r11,(_freepages_LF3)&0xffff
 2531  00002ddc  002b2820	add	r5,r1,r11
 2532  00002de0  8ca10000	lw	r1,(r5)
 2533  00002de4  00220824	and	r1,r1,r2
 2534  00002de8  00230825	or	r1,r1,r3
 2535  00002dec  aca10000	sw	(r5),r1
 2536  00002df0  23bdfff8	addi	r29,r29,#-8
 2537  00002df4  3c0b0000	lhi	r11,((_debugstr)>>16)&0xffff
 2538  00002df8  256bef7c	addui	r11,r11,(_debugstr)&0xffff
 2539  00002dfc  afab0000	sw	(r29),r11
 2540  00002e00  200b006d	addi	r11,r0,#109
 2541  00002e04  afab0004	sw	4(r29),r11
 2542  00002e08  0c0010e4	jal	_dindex
 2543  00002e0c  54000000	nop; not filled.
 2544  00002e10  23bd0008	addi	r29,r29,#8
 2545  00002e14  64210000	snei	r1,r1,#0
 2546  00002e18  14200034	bnez	r1,L89_LF3
 2547  00002e1c  54000000	nop; not filled.
 2548  00002e20  23bdfff8	addi	r29,r29,#-8
 2549  00002e24  3c0b0000	lhi	r11,((_debugstr)>>16)&0xffff
 2550  00002e28  256bef7c	addui	r11,r11,(_debugstr)&0xffff
 2551  00002e2c  afab0000	sw	(r29),r11
 2552  00002e30  200b002b	addi	r11,r0,#43
 2553  00002e34  afab0004	sw	4(r29),r11
 2554  00002e38  0c0010b4	jal	_dindex
 2555  00002e3c  54000000	nop; not filled.
 2556  00002e40  23bd0008	addi	r29,r29,#8
 2557  00002e44  64210000	snei	r1,r1,#0
 2558  00002e48  1020002c	beqz	r1,L82_LF3
 2559  00002e4c  54000000	nop; not filled.
 2560  00002e50          	L89_LF3:
 2561  00002e50  23bdfff0	addi	r29,r29,#-16
 2562  00002e54  3c0b0000	lhi	r11,((LC0_LF3)>>16)&0xffff
 2563  00002e58  256be2c8	addui	r11,r11,(LC0_LF3)&0xffff
 2564  00002e5c  afab0000	sw	(r29),r11
 2565  00002e60  afa60004	sw	4(r29),r6
 2566  00002e64  8ca50000	lw	r5,(r5)
 2567  00002e68  afa50008	sw	8(r29),r5
 2568  00002e6c  0c008688	jal	_printf
 2569  00002e70  54000000	nop; not filled.
 2570  00002e74  23bd0010	addi	r29,r29,#16
 2571  00002e78          	L82_LF3:
 2572  00002e78  20840001	addi	r4,r4,#1
 2573  00002e7c  0087082a	slt	r1,r4,r7
 2574  00002e80  1420ff14	bnez	r1,L83_LF3
 2575  00002e84  54000000	nop; not filled.
 2576  00002e88          	L81_LF3:
 2577  00002e88  23bdfff8	addi	r29,r29,#-8
 2578  00002e8c  3c020000	lhi	r2,((_debugstr)>>16)&0xffff
 2579  00002e90  2442ef7c	addui	r2,r2,(_debugstr)&0xffff
 2580  00002e94  afa20000	sw	(r29),r2
 2581  00002e98  200b006d	addi	r11,r0,#109
 2582  00002e9c  afab0004	sw	4(r29),r11
 2583  00002ea0  0c00104c	jal	_dindex
 2584  00002ea4  54000000	nop; not filled.
 2585  00002ea8  23bd0008	addi	r29,r29,#8
 2586  00002eac  64210000	snei	r1,r1,#0
 2587  00002eb0  1420002c	bnez	r1,L92_LF3
 2588  00002eb4  54000000	nop; not filled.
 2589  00002eb8  23bdfff8	addi	r29,r29,#-8
 2590  00002ebc  afa20000	sw	(r29),r2
 2591  00002ec0  200b002b	addi	r11,r0,#43
 2592  00002ec4  afab0004	sw	4(r29),r11
 2593  00002ec8  0c001024	jal	_dindex
 2594  00002ecc  54000000	nop; not filled.
 2595  00002ed0  23bd0008	addi	r29,r29,#8
 2596  00002ed4  64210000	snei	r1,r1,#0
 2597  00002ed8  10200030	beqz	r1,L91_LF3
 2598  00002edc  54000000	nop; not filled.
 2599  00002ee0          	L92_LF3:
 2600  00002ee0  23bdfff8	addi	r29,r29,#-8
 2601  00002ee4  3c0b0000	lhi	r11,((LC3_LF3)>>16)&0xffff
 2602  00002ee8  256be338	addui	r11,r11,(LC3_LF3)&0xffff
 2603  00002eec  afab0000	sw	(r29),r11
 2604  00002ef0  3c010000	lhi	r1,((_nfreepages_LF3)>>16)&0xffff
 2605  00002ef4  2421e454	addui	r1,r1,(_nfreepages_LF3)&0xffff
 2606  00002ef8  8c210000	lw	r1,(r1)
 2607  00002efc  afa10004	sw	4(r29),r1
 2608  00002f00  0c0085f4	jal	_printf
 2609  00002f04  54000000	nop; not filled.
 2610  00002f08  23bd0008	addi	r29,r29,#8
 2611  00002f0c          	L91_LF3:
 2612  00002f0c  8fa20000	lw	r2,0(r29)
 2613  00002f10  8fa30004	lw	r3,4(r29)
 2614  00002f14  8fa40008	lw	r4,8(r29)
 2615  00002f18  8fa5000c	lw	r5,12(r29)
 2616  00002f1c  8fa60010	lw	r6,16(r29)
 2617  00002f20  8fa70014	lw	r7,20(r29)
 2618  00002f24  8fa80018	lw	r8,24(r29)
 2619  00002f28  8fa9001c	lw	r9,28(r29)
 2620  00002f2c  8faa0020	lw	r10,32(r29)
 2621  00002f30  8fab0024	lw	r11,36(r29)
 2622  00002f34  8fdffff8	lw	r31,-8(r30)
 2623  00002f38  001ee820	add	r29,r0,r30
 2624  00002f3c  8fdefffc	lw	r30,-4(r30)
 2625  00002f40  4be00000	jr	r31
 2626  00002f44  54000000	nop
 2627  00002f48          	.endproc _MemoryModuleInit
 2628  00002f48          	.data
 2629  0000e354          	.align 2
 2630  0000e354          	_mapnum42_LF3:
 2631  0000e354  00000000	.word 0
 2632  0000e358          	.align 2
 2633  0000e358          	LC4_LF3:
 2634  0000e358  4552524f	.ascii "ERROR AT THIS POINT\n\000"
 2634  0000e35c  52204154	
 2634  0000e360  20544849	
 2634  0000e364  5320504f	
 2634  0000e368  494e540a	
 2634  0000e36c  00      	
 2635  0000e36d          	.align 2
 2636  0000e370          	LC5_LF3:
 2637  0000e370  416c6c6f	.ascii "Allocating memory, starting with page %d\n\000"
 2637  0000e374  63617469	
 2637  0000e378  6e67206d	
 2637  0000e37c  656d6f72	
 2637  0000e380  792c2073	
 2637  0000e384  74617274	
 2637  0000e388  696e6720	
 2637  0000e38c  77697468	
 2637  0000e390  20706167	
 2637  0000e394  65202564	
 2637  0000e398  0a00    	
 2638  0000e39a          	.align 2
 2639  0000e39c          	LC6_LF3:
 2640  0000e39c  416c6c6f	.ascii "Allocated memory, from map %d, page %d, map=0x%x.\n\000"
 2640  0000e3a0  63617465	
 2640  0000e3a4  64206d65	
 2640  0000e3a8  6d6f7279	
 2640  0000e3ac  2c206672	
 2640  0000e3b0  6f6d206d	
 2640  0000e3b4  61702025	
 2640  0000e3b8  642c2070	
 2640  0000e3bc  61676520	
 2640  0000e3c0  25642c20	
 2640  0000e3c4  6d61703d	
 2640  0000e3c8  30782578	
 2640  0000e3cc  2e0a00  	
 2641  0000e3cf          	.text
 2642  00002f48          	.align 2
 2643  00002f48          	.proc _MemoryAllocPage
 2644  00002f48          	.global _MemoryAllocPage
 2645  00002f48          	_MemoryAllocPage:
 2646                      ;  Function 'MemoryAllocPage'; 0 bytes of locals, 6 regs to save.
 2647  00002f48  afbefffc	sw	-4(r29),r30; push fp
 2648  00002f4c  001df020	add	r30,r0,r29; fp = sp
 2649  00002f50  afbffff8	sw	-8(r29),r31; push ret addr
 2650  00002f54  2fbd0020	subui	r29,r29,#32; alloc local storage
 2651  00002f58  afa20000	sw	0(r29),r2
 2652  00002f5c  afa30004	sw	4(r29),r3
 2653  00002f60  afa40008	sw	8(r29),r4
 2654  00002f64  afa5000c	sw	12(r29),r5
 2655  00002f68  afa60010	sw	16(r29),r6
 2656  00002f6c  afa70014	sw	20(r29),r7
 2657  00002f70  3c010000	lhi	r1,((_nfreepages_LF3)>>16)&0xffff
 2658  00002f74  2421e454	addui	r1,r1,(_nfreepages_LF3)&0xffff
 2659  00002f78  8c210000	lw	r1,(r1)
 2660  00002f7c  64210000	snei	r1,r1,#0
 2661  00002f80  1420002c	bnez	r1,L111_LF3
 2662  00002f84  54000000	nop; not filled.
 2663  00002f88  23bdfff8	addi	r29,r29,#-8
 2664  00002f8c  3c070000	lhi	r7,((LC4_LF3)>>16)&0xffff
 2665  00002f90  24e7e358	addui	r7,r7,(LC4_LF3)&0xffff
 2666  00002f94  afa70000	sw	(r29),r7
 2667  00002f98  0c00855c	jal	_printf
 2668  00002f9c  54000000	nop; not filled.
 2669  00002fa0  20010000	addi	r1,r0,#0
 2670  00002fa4  23bd0008	addi	r29,r29,#8
 2671  00002fa8  08000238	j	L110_LF3
 2672  00002fac  54000000	nop; not filled.
 2673  00002fb0          	L111_LF3:
 2674  00002fb0  23bdfff8	addi	r29,r29,#-8
 2675  00002fb4  3c020000	lhi	r2,((_debugstr)>>16)&0xffff
 2676  00002fb8  2442ef7c	addui	r2,r2,(_debugstr)&0xffff
 2677  00002fbc  afa20000	sw	(r29),r2
 2678  00002fc0  2007006d	addi	r7,r0,#109
 2679  00002fc4  afa70004	sw	4(r29),r7
 2680  00002fc8  0c000f24	jal	_dindex
 2681  00002fcc  54000000	nop; not filled.
 2682  00002fd0  23bd0008	addi	r29,r29,#8
 2683  00002fd4  64210000	snei	r1,r1,#0
 2684  00002fd8  1420002c	bnez	r1,L113_LF3
 2685  00002fdc  54000000	nop; not filled.
 2686  00002fe0  23bdfff8	addi	r29,r29,#-8
 2687  00002fe4  afa20000	sw	(r29),r2
 2688  00002fe8  2007002b	addi	r7,r0,#43
 2689  00002fec  afa70004	sw	4(r29),r7
 2690  00002ff0  0c000efc	jal	_dindex
 2691  00002ff4  54000000	nop; not filled.
 2692  00002ff8  23bd0008	addi	r29,r29,#8
 2693  00002ffc  64210000	snei	r1,r1,#0
 2694  00003000  10200030	beqz	r1,L112_LF3
 2695  00003004  54000000	nop; not filled.
 2696  00003008          	L113_LF3:
 2697  00003008  23bdfff8	addi	r29,r29,#-8
 2698  0000300c  3c070000	lhi	r7,((LC5_LF3)>>16)&0xffff
 2699  00003010  24e7e370	addui	r7,r7,(LC5_LF3)&0xffff
 2700  00003014  afa70000	sw	(r29),r7
 2701  00003018  3c010000	lhi	r1,((_mapnum42_LF3)>>16)&0xffff
 2702  0000301c  2421e354	addui	r1,r1,(_mapnum42_LF3)&0xffff
 2703  00003020  8c210000	lw	r1,(r1)
 2704  00003024  afa10004	sw	4(r29),r1
 2705  00003028  0c0084cc	jal	_printf
 2706  0000302c  54000000	nop; not filled.
 2707  00003030  23bd0008	addi	r29,r29,#8
 2708  00003034          	L112_LF3:
 2709  00003034  3c020000	lhi	r2,((_mapnum42_LF3)>>16)&0xffff
 2710  00003038  2442e354	addui	r2,r2,(_mapnum42_LF3)&0xffff
 2711  0000303c  8c410000	lw	r1,(r2)
 2712  00003040  3c040000	lhi	r4,((_freepages_LF3)>>16)&0xffff
 2713  00003044  2484e458	addui	r4,r4,(_freepages_LF3)&0xffff
 2714  00003048  50210002	slli	r1,r1,#0x2
 2715  0000304c  00240820	add	r1,r1,r4
 2716  00003050  8c210000	lw	r1,(r1)
 2717  00003054  64210000	snei	r1,r1,#0
 2718  00003058  1420004c	bnez	r1,L115_LF3
 2719  0000305c  54000000	nop; not filled.
 2720  00003060  3c010000	lhi	r1,((_freemapmax_LF3)>>16)&0xffff
 2721  00003064  2421e450	addui	r1,r1,(_freemapmax_LF3)&0xffff
 2722  00003068  8c230000	lw	r3,(r1)
 2723  0000306c          	L116_LF3:
 2724  0000306c  8c410000	lw	r1,(r2)
 2725  00003070  20210001	addi	r1,r1,#1
 2726  00003074  ac410000	sw	(r2),r1
 2727  00003078  0023082d	sge	r1,r1,r3
 2728  0000307c  1020000c	beqz	r1,L114_LF3
 2729  00003080  54000000	nop; not filled.
 2730  00003084  20070000	addi	r7,r0,#0
 2731  00003088  ac470000	sw	(r2),r7
 2732  0000308c          	L114_LF3:
 2733  0000308c  8c410000	lw	r1,(r2)
 2734  00003090  50210002	slli	r1,r1,#0x2
 2735  00003094  00240820	add	r1,r1,r4
 2736  00003098  8c210000	lw	r1,(r1)
 2737  0000309c  64210000	snei	r1,r1,#0
 2738  000030a0  1020ffc8	beqz	r1,L116_LF3
 2739  000030a4  54000000	nop; not filled.
 2740  000030a8          	L115_LF3:
 2741  000030a8  3c010000	lhi	r1,((_mapnum42_LF3)>>16)&0xffff
 2742  000030ac  2421e354	addui	r1,r1,(_mapnum42_LF3)&0xffff
 2743  000030b0  8c210000	lw	r1,(r1)
 2744  000030b4  50210002	slli	r1,r1,#0x2
 2745  000030b8  3c070000	lhi	r7,((_freepages_LF3)>>16)&0xffff
 2746  000030bc  24e7e458	addui	r7,r7,(_freepages_LF3)&0xffff
 2747  000030c0  00270820	add	r1,r1,r7
 2748  000030c4  8c230000	lw	r3,(r1)
 2749  000030c8  201f0000	addi	r31,r0,#0
 2750  000030cc  30610001	andi	r1,r3,#1
 2751  000030d0  14200020	bnez	r1,L120_LF3
 2752  000030d4  54000000	nop; not filled.
 2753  000030d8  20020001	addi	r2,r0,#1
 2754  000030dc          	L121_LF3:
 2755  000030dc  23ff0001	addi	r31,r31,#1
 2756  000030e0  005f0804	sll	r1,r2,r31
 2757  000030e4  00610824	and	r1,r3,r1
 2758  000030e8  64210000	snei	r1,r1,#0
 2759  000030ec  1020ffec	beqz	r1,L121_LF3
 2760  000030f0  54000000	nop; not filled.
 2761  000030f4          	L120_LF3:
 2762  000030f4  20010001	addi	r1,r0,#1
 2763  000030f8  003f1004	sll	r2,r1,r31
 2764  000030fc  3c010000	lhi	r1,((_negativeone_LF3)>>16)&0xffff
 2765  00003100  2421e2c4	addui	r1,r1,(_negativeone_LF3)&0xffff
 2766  00003104  8c210000	lw	r1,(r1)
 2767  00003108  00412026	xor	r4,r2,r1
 2768  0000310c  3c050000	lhi	r5,((_mapnum42_LF3)>>16)&0xffff
 2769  00003110  24a5e354	addui	r5,r5,(_mapnum42_LF3)&0xffff
 2770  00003114  8ca30000	lw	r3,(r5)
 2771  00003118  3c060000	lhi	r6,((_freepages_LF3)>>16)&0xffff
 2772  0000311c  24c6e458	addui	r6,r6,(_freepages_LF3)&0xffff
 2773  00003120  50610002	slli	r1,r3,#0x2
 2774  00003124  00261020	add	r2,r1,r6
 2775  00003128  8c410000	lw	r1,(r2)
 2776  0000312c  00240824	and	r1,r1,r4
 2777  00003130  ac410000	sw	(r2),r1
 2778  00003134  50610005	slli	r1,r3,#0x5
 2779  00003138  003f1820	add	r3,r1,r31
 2780  0000313c  23bdfff8	addi	r29,r29,#-8
 2781  00003140  3c020000	lhi	r2,((_debugstr)>>16)&0xffff
 2782  00003144  2442ef7c	addui	r2,r2,(_debugstr)&0xffff
 2783  00003148  afa20000	sw	(r29),r2
 2784  0000314c  2007006d	addi	r7,r0,#109
 2785  00003150  afa70004	sw	4(r29),r7
 2786  00003154  0c000d98	jal	_dindex
 2787  00003158  54000000	nop; not filled.
 2788  0000315c  23bd0008	addi	r29,r29,#8
 2789  00003160  64210000	snei	r1,r1,#0
 2790  00003164  1420002c	bnez	r1,L126_LF3
 2791  00003168  54000000	nop; not filled.
 2792  0000316c  23bdfff8	addi	r29,r29,#-8
 2793  00003170  afa20000	sw	(r29),r2
 2794  00003174  2007002b	addi	r7,r0,#43
 2795  00003178  afa70004	sw	4(r29),r7
 2796  0000317c  0c000d70	jal	_dindex
 2797  00003180  54000000	nop; not filled.
 2798  00003184  23bd0008	addi	r29,r29,#8
 2799  00003188  64210000	snei	r1,r1,#0
 2800  0000318c  1020003c	beqz	r1,L125_LF3
 2801  00003190  54000000	nop; not filled.
 2802  00003194          	L126_LF3:
 2803  00003194  23bdfff0	addi	r29,r29,#-16
 2804  00003198  3c070000	lhi	r7,((LC6_LF3)>>16)&0xffff
 2805  0000319c  24e7e39c	addui	r7,r7,(LC6_LF3)&0xffff
 2806  000031a0  afa70000	sw	(r29),r7
 2807  000031a4  8ca10000	lw	r1,(r5)
 2808  000031a8  afa10004	sw	4(r29),r1
 2809  000031ac  afa30008	sw	8(r29),r3
 2810  000031b0  50210002	slli	r1,r1,#0x2
 2811  000031b4  00260820	add	r1,r1,r6
 2812  000031b8  8c210000	lw	r1,(r1)
 2813  000031bc  afa1000c	sw	12(r29),r1
 2814  000031c0  0c008334	jal	_printf
 2815  000031c4  54000000	nop; not filled.
 2816  000031c8  23bd0010	addi	r29,r29,#16
 2817  000031cc          	L125_LF3:
 2818  000031cc  3c010000	lhi	r1,((_nfreepages_LF3)>>16)&0xffff
 2819  000031d0  2421e454	addui	r1,r1,(_nfreepages_LF3)&0xffff
 2820  000031d4  8c220000	lw	r2,(r1)
 2821  000031d8  2042ffff	addi	r2,r2,#-1
 2822  000031dc  ac220000	sw	(r1),r2
 2823  000031e0  00030820	add	r1,r0,r3
 2824  000031e4          	L110_LF3:
 2825  000031e4  8fa20000	lw	r2,0(r29)
 2826  000031e8  8fa30004	lw	r3,4(r29)
 2827  000031ec  8fa40008	lw	r4,8(r29)
 2828  000031f0  8fa5000c	lw	r5,12(r29)
 2829  000031f4  8fa60010	lw	r6,16(r29)
 2830  000031f8  8fa70014	lw	r7,20(r29)
 2831  000031fc  8fdffff8	lw	r31,-8(r30)
 2832  00003200  001ee820	add	r29,r0,r30
 2833  00003204  8fdefffc	lw	r30,-4(r30)
 2834  00003208  4be00000	jr	r31
 2835  0000320c  54000000	nop
 2836  00003210          	.endproc _MemoryAllocPage
 2837  00003210          	.data
 2838  0000e3cf          	.align 2
 2839  0000e3d0          	LC7_LF3:
 2840  0000e3d0  46726565	.ascii "Freed page 0x%x, %d remaining.\n\000"
 2840  0000e3d4  64207061	
 2840  0000e3d8  67652030	
 2840  0000e3dc  7825782c	
 2840  0000e3e0  20256420	
 2840  0000e3e4  72656d61	
 2840  0000e3e8  696e696e	
 2840  0000e3ec  672e0a00	
 2841  0000e3f0          	.text
 2842  00003210          	.align 2
 2843  00003210          	.proc _MemoryFreePage
 2844  00003210          	.global _MemoryFreePage
 2845  00003210          	_MemoryFreePage:
 2846                      ;  Function 'MemoryFreePage'; 0 bytes of locals, 6 regs to save.
 2847  00003210  afbefffc	sw	-4(r29),r30; push fp
 2848  00003214  001df020	add	r30,r0,r29; fp = sp
 2849  00003218  afbffff8	sw	-8(r29),r31; push ret addr
 2850  0000321c  2fbd0020	subui	r29,r29,#32; alloc local storage
 2851  00003220  afa20000	sw	0(r29),r2
 2852  00003224  afa30004	sw	4(r29),r3
 2853  00003228  afa40008	sw	8(r29),r4
 2854  0000322c  afa5000c	sw	12(r29),r5
 2855  00003230  afa60010	sw	16(r29),r6
 2856  00003234  afa70014	sw	20(r29),r7
 2857  00003238  8fc60000	lw	r6,(r30)
 2858  0000323c  20030001	addi	r3,r0,#1
 2859  00003240  00061020	add	r2,r0,r6
 2860  00003244  74c10000	sgei	r1,r6,#0
 2861  00003248  14200008	bnez	r1,L129_LF3
 2862  0000324c  54000000	nop; not filled.
 2863  00003250  20c2001f	addi	r2,r6,#31
 2864  00003254          	L129_LF3:
 2865  00003254  5c450005	srai	r5,r2,#0x5
 2866  00003258  50a10005	slli	r1,r5,#0x5
 2867  0000325c  00c10822	sub	r1,r6,r1
 2868  00003260  00611804	sll	r3,r3,r1
 2869  00003264  3c010000	lhi	r1,((_negativeone_LF3)>>16)&0xffff
 2870  00003268  2421e2c4	addui	r1,r1,(_negativeone_LF3)&0xffff
 2871  0000326c  8c210000	lw	r1,(r1)
 2872  00003270  00611026	xor	r2,r3,r1
 2873  00003274  50a10002	slli	r1,r5,#0x2
 2874  00003278  3c070000	lhi	r7,((_freepages_LF3)>>16)&0xffff
 2875  0000327c  24e7e458	addui	r7,r7,(_freepages_LF3)&0xffff
 2876  00003280  00272020	add	r4,r1,r7
 2877  00003284  8c810000	lw	r1,(r4)
 2878  00003288  00220824	and	r1,r1,r2
 2879  0000328c  00230825	or	r1,r1,r3
 2880  00003290  ac810000	sw	(r4),r1
 2881  00003294  23bdfff8	addi	r29,r29,#-8
 2882  00003298  3c070000	lhi	r7,((_debugstr)>>16)&0xffff
 2883  0000329c  24e7ef7c	addui	r7,r7,(_debugstr)&0xffff
 2884  000032a0  afa70000	sw	(r29),r7
 2885  000032a4  2007006d	addi	r7,r0,#109
 2886  000032a8  afa70004	sw	4(r29),r7
 2887  000032ac  0c000c40	jal	_dindex
 2888  000032b0  54000000	nop; not filled.
 2889  000032b4  23bd0008	addi	r29,r29,#8
 2890  000032b8  64210000	snei	r1,r1,#0
 2891  000032bc  14200034	bnez	r1,L133_LF3
 2892  000032c0  54000000	nop; not filled.
 2893  000032c4  23bdfff8	addi	r29,r29,#-8
 2894  000032c8  3c070000	lhi	r7,((_debugstr)>>16)&0xffff
 2895  000032cc  24e7ef7c	addui	r7,r7,(_debugstr)&0xffff
 2896  000032d0  afa70000	sw	(r29),r7
 2897  000032d4  2007002b	addi	r7,r0,#43
 2898  000032d8  afa70004	sw	4(r29),r7
 2899  000032dc  0c000c10	jal	_dindex
 2900  000032e0  54000000	nop; not filled.
 2901  000032e4  23bd0008	addi	r29,r29,#8
 2902  000032e8  64210000	snei	r1,r1,#0
 2903  000032ec  1020002c	beqz	r1,L128_LF3
 2904  000032f0  54000000	nop; not filled.
 2905  000032f4          	L133_LF3:
 2906  000032f4  23bdfff0	addi	r29,r29,#-16
 2907  000032f8  3c070000	lhi	r7,((LC0_LF3)>>16)&0xffff
 2908  000032fc  24e7e2c8	addui	r7,r7,(LC0_LF3)&0xffff
 2909  00003300  afa70000	sw	(r29),r7
 2910  00003304  afa50004	sw	4(r29),r5
 2911  00003308  8c840000	lw	r4,(r4)
 2912  0000330c  afa40008	sw	8(r29),r4
 2913  00003310  0c0081e4	jal	_printf
 2914  00003314  54000000	nop; not filled.
 2915  00003318  23bd0010	addi	r29,r29,#16
 2916  0000331c          	L128_LF3:
 2917  0000331c  3c020000	lhi	r2,((_nfreepages_LF3)>>16)&0xffff
 2918  00003320  2442e454	addui	r2,r2,(_nfreepages_LF3)&0xffff
 2919  00003324  8c410000	lw	r1,(r2)
 2920  00003328  20210001	addi	r1,r1,#1
 2921  0000332c  ac410000	sw	(r2),r1
 2922  00003330  23bdfff8	addi	r29,r29,#-8
 2923  00003334  3c030000	lhi	r3,((_debugstr)>>16)&0xffff
 2924  00003338  2463ef7c	addui	r3,r3,(_debugstr)&0xffff
 2925  0000333c  afa30000	sw	(r29),r3
 2926  00003340  2007006d	addi	r7,r0,#109
 2927  00003344  afa70004	sw	4(r29),r7
 2928  00003348  0c000ba4	jal	_dindex
 2929  0000334c  54000000	nop; not filled.
 2930  00003350  23bd0008	addi	r29,r29,#8
 2931  00003354  64210000	snei	r1,r1,#0
 2932  00003358  1420002c	bnez	r1,L135_LF3
 2933  0000335c  54000000	nop; not filled.
 2934  00003360  23bdfff8	addi	r29,r29,#-8
 2935  00003364  afa30000	sw	(r29),r3
 2936  00003368  2007002b	addi	r7,r0,#43
 2937  0000336c  afa70004	sw	4(r29),r7
 2938  00003370  0c000b7c	jal	_dindex
 2939  00003374  54000000	nop; not filled.
 2940  00003378  23bd0008	addi	r29,r29,#8
 2941  0000337c  64210000	snei	r1,r1,#0
 2942  00003380  1020002c	beqz	r1,L134_LF3
 2943  00003384  54000000	nop; not filled.
 2944  00003388          	L135_LF3:
 2945  00003388  23bdfff0	addi	r29,r29,#-16
 2946  0000338c  3c070000	lhi	r7,((LC7_LF3)>>16)&0xffff
 2947  00003390  24e7e3d0	addui	r7,r7,(LC7_LF3)&0xffff
 2948  00003394  afa70000	sw	(r29),r7
 2949  00003398  afa60004	sw	4(r29),r6
 2950  0000339c  8c420000	lw	r2,(r2)
 2951  000033a0  afa20008	sw	8(r29),r2
 2952  000033a4  0c008150	jal	_printf
 2953  000033a8  54000000	nop; not filled.
 2954  000033ac  23bd0010	addi	r29,r29,#16
 2955  000033b0          	L134_LF3:
 2956  000033b0  23bdfff0	addi	r29,r29,#-16
 2957  000033b4  3c070000	lhi	r7,((LC7_LF3)>>16)&0xffff
 2958  000033b8  24e7e3d0	addui	r7,r7,(LC7_LF3)&0xffff
 2959  000033bc  afa70000	sw	(r29),r7
 2960  000033c0  afa60004	sw	4(r29),r6
 2961  000033c4  3c010000	lhi	r1,((_nfreepages_LF3)>>16)&0xffff
 2962  000033c8  2421e454	addui	r1,r1,(_nfreepages_LF3)&0xffff
 2963  000033cc  8c210000	lw	r1,(r1)
 2964  000033d0  afa10008	sw	8(r29),r1
 2965  000033d4  0c008120	jal	_printf
 2966  000033d8  54000000	nop; not filled.
 2967  000033dc  23bd0010	addi	r29,r29,#16
 2968  000033e0  8fa20000	lw	r2,0(r29)
 2969  000033e4  8fa30004	lw	r3,4(r29)
 2970  000033e8  8fa40008	lw	r4,8(r29)
 2971  000033ec  8fa5000c	lw	r5,12(r29)
 2972  000033f0  8fa60010	lw	r6,16(r29)
 2973  000033f4  8fa70014	lw	r7,20(r29)
 2974  000033f8  8fdffff8	lw	r31,-8(r30)
 2975  000033fc  001ee820	add	r29,r0,r30
 2976  00003400  8fdefffc	lw	r30,-4(r30)
 2977  00003404  4be00000	jr	r31
 2978  00003408  54000000	nop
 2979  0000340c          	.endproc _MemoryFreePage
 2980  0000340c          	.data
 2981  0000e3f0          	.align 2
 2982  0000e3f0          	LC8_LF3:
 2983  0000e3f0  70616765	.ascii "page: %d      Process ID: %d\n\000"
 2983  0000e3f4  3a202564	
 2983  0000e3f8  20202020	
 2983  0000e3fc  20205072	
 2983  0000e400  6f636573	
 2983  0000e404  73204944	
 2983  0000e408  3a202564	
 2983  0000e40c  0a00    	
 2984  0000e40e          	.text
 2985  0000340c          	.align 2
 2986  0000340c          	.proc _MemoryTranslateUserToSystem
 2987  0000340c          	.global _MemoryTranslateUserToSystem
 2988  0000340c          	_MemoryTranslateUserToSystem:
 2989                      ;  Function 'MemoryTranslateUserToSystem'; 0 bytes of locals, 4 regs to save.
 2990  0000340c  afbefffc	sw	-4(r29),r30; push fp
 2991  00003410  001df020	add	r30,r0,r29; fp = sp
 2992  00003414  afbffff8	sw	-8(r29),r31; push ret addr
 2993  00003418  2fbd0018	subui	r29,r29,#24; alloc local storage
 2994  0000341c  afa20000	sw	0(r29),r2
 2995  00003420  afa30004	sw	4(r29),r3
 2996  00003424  afa40008	sw	8(r29),r4
 2997  00003428  afa5000c	sw	12(r29),r5
 2998  0000342c  8fc40000	lw	r4,(r30)
 2999  00003430  8fc10004	lw	r1,4(r30)
 3000  00003434  5822000d	srli	r2,r1,#0xd
 3001  00003438  30231fff	andi	r3,r1,#8191
 3002  0000343c  6c410040	sgti	r1,r2,#64
 3003  00003440  14200050	bnez	r1,L139_LF3
 3004  00003444  54000000	nop; not filled.
 3005  00003448  0c0046c8	jal	_GetCurrentPid
 3006  0000344c  54000000	nop; not filled.
 3007  00003450  23bdfff0	addi	r29,r29,#-16
 3008  00003454  3c050000	lhi	r5,((LC8_LF3)>>16)&0xffff
 3009  00003458  24a5e3f0	addui	r5,r5,(LC8_LF3)&0xffff
 3010  0000345c  afa50000	sw	(r29),r5
 3011  00003460  afa20004	sw	4(r29),r2
 3012  00003464  afa10008	sw	8(r29),r1
 3013  00003468  0c00808c	jal	_printf
 3014  0000346c  54000000	nop; not filled.
 3015  00003470  50410002	slli	r1,r2,#0x2
 3016  00003474  00240820	add	r1,r1,r4
 3017  00003478  8c210060	lw	r1,96(r1)
 3018  0000347c  2005fff8	addi	r5,r0,#-8
 3019  00003480  00250824	and	r1,r1,r5
 3020  00003484  00230820	add	r1,r1,r3
 3021  00003488  23bd0010	addi	r29,r29,#16
 3022  0000348c  08000008	j	L138_LF3
 3023  00003490  54000000	nop; not filled.
 3024  00003494          	L139_LF3:
 3025  00003494  20010000	addi	r1,r0,#0
 3026  00003498          	L138_LF3:
 3027  00003498  8fa20000	lw	r2,0(r29)
 3028  0000349c  8fa30004	lw	r3,4(r29)
 3029  000034a0  8fa40008	lw	r4,8(r29)
 3030  000034a4  8fa5000c	lw	r5,12(r29)
 3031  000034a8  8fdffff8	lw	r31,-8(r30)
 3032  000034ac  001ee820	add	r29,r0,r30
 3033  000034b0  8fdefffc	lw	r30,-4(r30)
 3034  000034b4  4be00000	jr	r31
 3035  000034b8  54000000	nop
 3036  000034bc          	.endproc _MemoryTranslateUserToSystem
 3037  000034bc          	.align 2
 3038  000034bc          	.proc _MemoryCopySystemToUser
 3039  000034bc          	.global _MemoryCopySystemToUser
 3040  000034bc          	_MemoryCopySystemToUser:
 3041                      ;  Function 'MemoryCopySystemToUser'; 0 bytes of locals, 9 regs to save.
 3042  000034bc  afbefffc	sw	-4(r29),r30; push fp
 3043  000034c0  001df020	add	r30,r0,r29; fp = sp
 3044  000034c4  afbffff8	sw	-8(r29),r31; push ret addr
 3045  000034c8  2fbd0030	subui	r29,r29,#48; alloc local storage
 3046  000034cc  afa20000	sw	0(r29),r2
 3047  000034d0  afa30004	sw	4(r29),r3
 3048  000034d4  afa40008	sw	8(r29),r4
 3049  000034d8  afa5000c	sw	12(r29),r5
 3050  000034dc  afa60010	sw	16(r29),r6
 3051  000034e0  afa70014	sw	20(r29),r7
 3052  000034e4  afa80018	sw	24(r29),r8
 3053  000034e8  afa9001c	sw	28(r29),r9
 3054  000034ec  afaa0020	sw	32(r29),r10
 3055  000034f0  8fc90000	lw	r9,(r30)
 3056  000034f4  8fc60004	lw	r6,4(r30)
 3057  000034f8  8fc40008	lw	r4,8(r30)
 3058  000034fc  8fc3000c	lw	r3,12(r30)
 3059  00003500  20070000	addi	r7,r0,#0
 3060  00003504  6c610000	sgti	r1,r3,#0
 3061  00003508  102000c8	beqz	r1,L167_LF3
 3062  0000350c  54000000	nop; not filled.
 3063  00003510  20082000	addi	r8,r0,#8192
 3064  00003514          	L168_LF3:
 3065  00003514  5882000d	srli	r2,r4,#0xd
 3066  00003518  30851fff	andi	r5,r4,#8191
 3067  0000351c  6c410040	sgti	r1,r2,#64
 3068  00003520  10200010	beqz	r1,L170_LF3
 3069  00003524  54000000	nop; not filled.
 3070  00003528  201f0000	addi	r31,r0,#0
 3071  0000352c  08000048	j	L169_LF3
 3072  00003530  54000000	nop; not filled.
 3073  00003534          	L170_LF3:
 3074  00003534  0c0045dc	jal	_GetCurrentPid
 3075  00003538  54000000	nop; not filled.
 3076  0000353c  23bdfff0	addi	r29,r29,#-16
 3077  00003540  3c0a0000	lhi	r10,((LC8_LF3)>>16)&0xffff
 3078  00003544  254ae3f0	addui	r10,r10,(LC8_LF3)&0xffff
 3079  00003548  afaa0000	sw	(r29),r10
 3080  0000354c  afa20004	sw	4(r29),r2
 3081  00003550  afa10008	sw	8(r29),r1
 3082  00003554  0c007fa0	jal	_printf
 3083  00003558  54000000	nop; not filled.
 3084  0000355c  50410002	slli	r1,r2,#0x2
 3085  00003560  00290820	add	r1,r1,r9
 3086  00003564  8c210060	lw	r1,96(r1)
 3087  00003568  200afff8	addi	r10,r0,#-8
 3088  0000356c  002a0824	and	r1,r1,r10
 3089  00003570  0025f820	add	r31,r1,r5
 3090  00003574  23bd0010	addi	r29,r29,#16
 3091  00003578          	L169_LF3:
 3092  00003578  67e10000	snei	r1,r31,#0
 3093  0000357c  10200054	beqz	r1,L167_LF3
 3094  00003580  54000000	nop; not filled.
 3095  00003584  33e11fff	andi	r1,r31,#8191
 3096  00003588  01011022	sub	r2,r8,r1
 3097  0000358c  0043082b	sgt	r1,r2,r3
 3098  00003590  10200008	beqz	r1,L172_LF3
 3099  00003594  54000000	nop; not filled.
 3100  00003598  00031020	add	r2,r0,r3
 3101  0000359c          	L172_LF3:
 3102  0000359c  23bdfff0	addi	r29,r29,#-16
 3103  000035a0  afa60000	sw	(r29),r6
 3104  000035a4  afbf0004	sw	4(r29),r31
 3105  000035a8  afa20008	sw	8(r29),r2
 3106  000035ac  0c000cd0	jal	_bcopy
 3107  000035b0  54000000	nop; not filled.
 3108  000035b4  23bd0010	addi	r29,r29,#16
 3109  000035b8  00621822	sub	r3,r3,r2
 3110  000035bc  00e23820	add	r7,r7,r2
 3111  000035c0  00c23020	add	r6,r6,r2
 3112  000035c4  00822020	add	r4,r4,r2
 3113  000035c8  6c610000	sgti	r1,r3,#0
 3114  000035cc  1420ff44	bnez	r1,L168_LF3
 3115  000035d0  54000000	nop; not filled.
 3116  000035d4          	L167_LF3:
 3117  000035d4  00070820	add	r1,r0,r7
 3118  000035d8  8fa20000	lw	r2,0(r29)
 3119  000035dc  8fa30004	lw	r3,4(r29)
 3120  000035e0  8fa40008	lw	r4,8(r29)
 3121  000035e4  8fa5000c	lw	r5,12(r29)
 3122  000035e8  8fa60010	lw	r6,16(r29)
 3123  000035ec  8fa70014	lw	r7,20(r29)
 3124  000035f0  8fa80018	lw	r8,24(r29)
 3125  000035f4  8fa9001c	lw	r9,28(r29)
 3126  000035f8  8faa0020	lw	r10,32(r29)
 3127  000035fc  8fdffff8	lw	r31,-8(r30)
 3128  00003600  001ee820	add	r29,r0,r30
 3129  00003604  8fdefffc	lw	r30,-4(r30)
 3130  00003608  4be00000	jr	r31
 3131  0000360c  54000000	nop
 3132  00003610          	.endproc _MemoryCopySystemToUser
 3133  00003610          	.align 2
 3134  00003610          	.proc _MemoryCopyUserToSystem
 3135  00003610          	.global _MemoryCopyUserToSystem
 3136  00003610          	_MemoryCopyUserToSystem:
 3137                      ;  Function 'MemoryCopyUserToSystem'; 0 bytes of locals, 9 regs to save.
 3138  00003610  afbefffc	sw	-4(r29),r30; push fp
 3139  00003614  001df020	add	r30,r0,r29; fp = sp
 3140  00003618  afbffff8	sw	-8(r29),r31; push ret addr
 3141  0000361c  2fbd0030	subui	r29,r29,#48; alloc local storage
 3142  00003620  afa20000	sw	0(r29),r2
 3143  00003624  afa30004	sw	4(r29),r3
 3144  00003628  afa40008	sw	8(r29),r4
 3145  0000362c  afa5000c	sw	12(r29),r5
 3146  00003630  afa60010	sw	16(r29),r6
 3147  00003634  afa70014	sw	20(r29),r7
 3148  00003638  afa80018	sw	24(r29),r8
 3149  0000363c  afa9001c	sw	28(r29),r9
 3150  00003640  afaa0020	sw	32(r29),r10
 3151  00003644  8fc90000	lw	r9,(r30)
 3152  00003648  8fc60008	lw	r6,8(r30)
 3153  0000364c  8fc40004	lw	r4,4(r30)
 3154  00003650  8fc3000c	lw	r3,12(r30)
 3155  00003654  20070000	addi	r7,r0,#0
 3156  00003658  6c610000	sgti	r1,r3,#0
 3157  0000365c  102000c8	beqz	r1,L191_LF3
 3158  00003660  54000000	nop; not filled.
 3159  00003664  20082000	addi	r8,r0,#8192
 3160  00003668          	L192_LF3:
 3161  00003668  5882000d	srli	r2,r4,#0xd
 3162  0000366c  30851fff	andi	r5,r4,#8191
 3163  00003670  6c410040	sgti	r1,r2,#64
 3164  00003674  10200010	beqz	r1,L194_LF3
 3165  00003678  54000000	nop; not filled.
 3166  0000367c  201f0000	addi	r31,r0,#0
 3167  00003680  08000048	j	L193_LF3
 3168  00003684  54000000	nop; not filled.
 3169  00003688          	L194_LF3:
 3170  00003688  0c004488	jal	_GetCurrentPid
 3171  0000368c  54000000	nop; not filled.
 3172  00003690  23bdfff0	addi	r29,r29,#-16
 3173  00003694  3c0a0000	lhi	r10,((LC8_LF3)>>16)&0xffff
 3174  00003698  254ae3f0	addui	r10,r10,(LC8_LF3)&0xffff
 3175  0000369c  afaa0000	sw	(r29),r10
 3176  000036a0  afa20004	sw	4(r29),r2
 3177  000036a4  afa10008	sw	8(r29),r1
 3178  000036a8  0c007e4c	jal	_printf
 3179  000036ac  54000000	nop; not filled.
 3180  000036b0  50410002	slli	r1,r2,#0x2
 3181  000036b4  00290820	add	r1,r1,r9
 3182  000036b8  8c210060	lw	r1,96(r1)
 3183  000036bc  200afff8	addi	r10,r0,#-8
 3184  000036c0  002a0824	and	r1,r1,r10
 3185  000036c4  0025f820	add	r31,r1,r5
 3186  000036c8  23bd0010	addi	r29,r29,#16
 3187  000036cc          	L193_LF3:
 3188  000036cc  67e10000	snei	r1,r31,#0
 3189  000036d0  10200054	beqz	r1,L191_LF3
 3190  000036d4  54000000	nop; not filled.
 3191  000036d8  33e11fff	andi	r1,r31,#8191
 3192  000036dc  01011022	sub	r2,r8,r1
 3193  000036e0  0043082b	sgt	r1,r2,r3
 3194  000036e4  10200008	beqz	r1,L197_LF3
 3195  000036e8  54000000	nop; not filled.
 3196  000036ec  00031020	add	r2,r0,r3
 3197  000036f0          	L197_LF3:
 3198  000036f0  23bdfff0	addi	r29,r29,#-16
 3199  000036f4  afbf0000	sw	(r29),r31
 3200  000036f8  afa60004	sw	4(r29),r6
 3201  000036fc  afa20008	sw	8(r29),r2
 3202  00003700  0c000b7c	jal	_bcopy
 3203  00003704  54000000	nop; not filled.
 3204  00003708  23bd0010	addi	r29,r29,#16
 3205  0000370c  00621822	sub	r3,r3,r2
 3206  00003710  00e23820	add	r7,r7,r2
 3207  00003714  00c23020	add	r6,r6,r2
 3208  00003718  00822020	add	r4,r4,r2
 3209  0000371c  6c610000	sgti	r1,r3,#0
 3210  00003720  1420ff44	bnez	r1,L192_LF3
 3211  00003724  54000000	nop; not filled.
 3212  00003728          	L191_LF3:
 3213  00003728  00070820	add	r1,r0,r7
 3214  0000372c  8fa20000	lw	r2,0(r29)
 3215  00003730  8fa30004	lw	r3,4(r29)
 3216  00003734  8fa40008	lw	r4,8(r29)
 3217  00003738  8fa5000c	lw	r5,12(r29)
 3218  0000373c  8fa60010	lw	r6,16(r29)
 3219  00003740  8fa70014	lw	r7,20(r29)
 3220  00003744  8fa80018	lw	r8,24(r29)
 3221  00003748  8fa9001c	lw	r9,28(r29)
 3222  0000374c  8faa0020	lw	r10,32(r29)
 3223  00003750  8fdffff8	lw	r31,-8(r30)
 3224  00003754  001ee820	add	r29,r0,r30
 3225  00003758  8fdefffc	lw	r30,-4(r30)
 3226  0000375c  4be00000	jr	r31
 3227  00003760  54000000	nop
 3228  00003764          	.endproc _MemoryCopyUserToSystem
 3229  00003764          	.align 2
 3230  00003764          	.proc _MemorySetupPte
 3231  00003764          	.global _MemorySetupPte
 3232  00003764          	_MemorySetupPte:
 3233                      ;  Function 'MemorySetupPte'; 0 bytes of locals, 0 regs to save.
 3234  00003764  afbefffc	sw	-4(r29),r30; push fp
 3235  00003768  001df020	add	r30,r0,r29; fp = sp
 3236  0000376c  afbffff8	sw	-8(r29),r31; push ret addr
 3237  00003770  2fbd0008	subui	r29,r29,#8; alloc local storage
 3238  00003774  8fc10000	lw	r1,(r30)
 3239  00003778  5021000d	slli	r1,r1,#0xd
 3240  0000377c  34210001	ori	r1,r1,#1
 3241  00003780  8fdffff8	lw	r31,-8(r30)
 3242  00003784  001ee820	add	r29,r0,r30
 3243  00003788  8fdefffc	lw	r30,-4(r30)
 3244  0000378c  4be00000	jr	r31
 3245  00003790  54000000	nop
 3246  00003794          	.endproc _MemorySetupPte
 3247  00003794          	.align 2
 3248  00003794          	.proc _MemoryFreePte
 3249  00003794          	.global _MemoryFreePte
 3250  00003794          	_MemoryFreePte:
 3251                      ;  Function 'MemoryFreePte'; 0 bytes of locals, 0 regs to save.
 3252  00003794  afbefffc	sw	-4(r29),r30; push fp
 3253  00003798  001df020	add	r30,r0,r29; fp = sp
 3254  0000379c  afbffff8	sw	-8(r29),r31; push ret addr
 3255  000037a0  2fbd0008	subui	r29,r29,#8; alloc local storage
 3256  000037a4  8fc10000	lw	r1,(r30)
 3257  000037a8  23bdfff8	addi	r29,r29,#-8
 3258  000037ac  5821000d	srli	r1,r1,#0xd
 3259  000037b0  afa10000	sw	(r29),r1
 3260  000037b4  0ffffa58	jal	_MemoryFreePage
 3261  000037b8  54000000	nop; not filled.
 3262  000037bc  23bd0008	addi	r29,r29,#8
 3263  000037c0  8fdffff8	lw	r31,-8(r30)
 3264  000037c4  001ee820	add	r29,r0,r30
 3265  000037c8  8fdefffc	lw	r30,-4(r30)
 3266  000037cc  4be00000	jr	r31
 3267  000037d0  54000000	nop
 3268  000037d4          	.endproc _MemoryFreePte
 3269  000037d4          	.align 2
 3270  000037d4          	.proc _MemoryPteToPage
 3271  000037d4          	.global _MemoryPteToPage
 3272  000037d4          	_MemoryPteToPage:
 3273                      ;  Function 'MemoryPteToPage'; 0 bytes of locals, 0 regs to save.
 3274  000037d4  afbefffc	sw	-4(r29),r30; push fp
 3275  000037d8  001df020	add	r30,r0,r29; fp = sp
 3276  000037dc  afbffff8	sw	-8(r29),r31; push ret addr
 3277  000037e0  2fbd0008	subui	r29,r29,#8; alloc local storage
 3278  000037e4  8fc10000	lw	r1,(r30)
 3279  000037e8  201ffff8	addi	r31,r0,#-8
 3280  000037ec  003f0824	and	r1,r1,r31
 3281  000037f0  8fdffff8	lw	r31,-8(r30)
 3282  000037f4  001ee820	add	r29,r0,r30
 3283  000037f8  8fdefffc	lw	r30,-4(r30)
 3284  000037fc  4be00000	jr	r31
 3285  00003800  54000000	nop
 3286  00003804          	.endproc _MemoryPteToPage
 3287  00003804          	.data
 3288  0000e40e          	.align 2
 3289  0000e410          	_invalidOps61_LF3:
 3290  0000e410  00003404	.word 13316
 3291  0000e414          	.align 2
 3292  0000e414          	LC9_LF3:
 3293  0000e414  4f706572	.ascii "Operand for instruction %08x is 0x%x (reg=<%d,0x%x>)\n\000"
 3293  0000e418  616e6420	
 3293  0000e41c  666f7220	
 3293  0000e420  696e7374	
 3293  0000e424  72756374	
 3293  0000e428  696f6e20	
 3293  0000e42c  25303878	
 3293  0000e430  20697320	
 3293  0000e434  30782578	
 3293  0000e438  20287265	
 3293  0000e43c  673d3c25	
 3293  0000e440  642c3078	
 3293  0000e444  25783e29	
 3293  0000e448  0a00    	
 3294  0000e44a          	.text
 3295  00003804          	.align 2
 3296  00003804          	.proc _MemoryGetOperandAddress
 3297  00003804          	.global _MemoryGetOperandAddress
 3298  00003804          	_MemoryGetOperandAddress:
 3299                      ;  Function 'MemoryGetOperandAddress'; 0 bytes of locals, 6 regs to save.
 3300  00003804  afbefffc	sw	-4(r29),r30; push fp
 3301  00003808  001df020	add	r30,r0,r29; fp = sp
 3302  0000380c  afbffff8	sw	-8(r29),r31; push ret addr
 3303  00003810  2fbd0020	subui	r29,r29,#32; alloc local storage
 3304  00003814  afa20000	sw	0(r29),r2
 3305  00003818  afa30004	sw	4(r29),r3
 3306  0000381c  afa40008	sw	8(r29),r4
 3307  00003820  afa5000c	sw	12(r29),r5
 3308  00003824  afa60010	sw	16(r29),r6
 3309  00003828  afa70014	sw	20(r29),r7
 3310  0000382c  8fc20000	lw	r2,(r30)
 3311  00003830  8fc50004	lw	r5,4(r30)
 3312  00003834  58a1001a	srli	r1,r5,#0x1a
 3313  00003838  203fffe0	addi	r31,r1,#-32
 3314  0000383c  6fe1000f	sgtui	r1,r31,#15
 3315  00003840  14200020	bnez	r1,L214_LF3
 3316  00003844  54000000	nop; not filled.
 3317  00003848  3c010000	lhi	r1,((_invalidOps61_LF3)>>16)&0xffff
 3318  0000384c  2421e410	addui	r1,r1,(_invalidOps61_LF3)&0xffff
 3319  00003850  8c210000	lw	r1,(r1)
 3320  00003854  003f0806	srl	r1,r1,r31
 3321  00003858  30210001	andi	r1,r1,#1
 3322  0000385c  10200010	beqz	r1,L213_LF3
 3323  00003860  54000000	nop; not filled.
 3324  00003864          	L214_LF3:
 3325  00003864  2001ffff	addi	r1,r0,#-1
 3326  00003868  080000c4	j	L218_LF3
 3327  0000386c  54000000	nop; not filled.
 3328  00003870          	L213_LF3:
 3329  00003870  58a10015	srli	r1,r5,#0x15
 3330  00003874  3026001f	andi	r6,r1,#31
 3331  00003878  30bfffff	andi	r31,r5,#0xffff
 3332  0000387c  5be1000f	srli	r1,r31,#0xf
 3333  00003880  10200010	beqz	r1,L215_LF3
 3334  00003884  54000000	nop; not filled.
 3335  00003888  3c07ffff	lhi	r7,#-1
 3336  0000388c  24e70000	addui	r7,r7,#0
 3337  00003890  03e7f825	or	r31,r31,r7
 3338  00003894          	L215_LF3:
 3339  00003894  8c420000	lw	r2,(r2)
 3340  00003898  50c10002	slli	r1,r6,#0x2
 3341  0000389c  00220820	add	r1,r1,r2
 3342  000038a0  8c230028	lw	r3,40(r1)
 3343  000038a4  007f2020	add	r4,r3,r31
 3344  000038a8  23bdfff8	addi	r29,r29,#-8
 3345  000038ac  3c020000	lhi	r2,((_debugstr)>>16)&0xffff
 3346  000038b0  2442ef7c	addui	r2,r2,(_debugstr)&0xffff
 3347  000038b4  afa20000	sw	(r29),r2
 3348  000038b8  2007006d	addi	r7,r0,#109
 3349  000038bc  afa70004	sw	4(r29),r7
 3350  000038c0  0c00062c	jal	_dindex
 3351  000038c4  54000000	nop; not filled.
 3352  000038c8  23bd0008	addi	r29,r29,#8
 3353  000038cc  64210000	snei	r1,r1,#0
 3354  000038d0  1420002c	bnez	r1,L217_LF3
 3355  000038d4  54000000	nop; not filled.
 3356  000038d8  23bdfff8	addi	r29,r29,#-8
 3357  000038dc  afa20000	sw	(r29),r2
 3358  000038e0  2007002b	addi	r7,r0,#43
 3359  000038e4  afa70004	sw	4(r29),r7
 3360  000038e8  0c000604	jal	_dindex
 3361  000038ec  54000000	nop; not filled.
 3362  000038f0  23bd0008	addi	r29,r29,#8
 3363  000038f4  64210000	snei	r1,r1,#0
 3364  000038f8  10200030	beqz	r1,L216_LF3
 3365  000038fc  54000000	nop; not filled.
 3366  00003900          	L217_LF3:
 3367  00003900  23bdffe8	addi	r29,r29,#-24
 3368  00003904  3c070000	lhi	r7,((LC9_LF3)>>16)&0xffff
 3369  00003908  24e7e414	addui	r7,r7,(LC9_LF3)&0xffff
 3370  0000390c  afa70000	sw	(r29),r7
 3371  00003910  afa50004	sw	4(r29),r5
 3372  00003914  afa40008	sw	8(r29),r4
 3373  00003918  afa6000c	sw	12(r29),r6
 3374  0000391c  afa30010	sw	16(r29),r3
 3375  00003920  0c007bd4	jal	_printf
 3376  00003924  54000000	nop; not filled.
 3377  00003928  23bd0018	addi	r29,r29,#24
 3378  0000392c          	L216_LF3:
 3379  0000392c  00040820	add	r1,r0,r4
 3380  00003930          	L218_LF3:
 3381  00003930  8fa20000	lw	r2,0(r29)
 3382  00003934  8fa30004	lw	r3,4(r29)
 3383  00003938  8fa40008	lw	r4,8(r29)
 3384  0000393c  8fa5000c	lw	r5,12(r29)
 3385  00003940  8fa60010	lw	r6,16(r29)
 3386  00003944  8fa70014	lw	r7,20(r29)
 3387  00003948  8fdffff8	lw	r31,-8(r30)
 3388  0000394c  001ee820	add	r29,r0,r30
 3389  00003950  8fdefffc	lw	r30,-4(r30)
 3390  00003954  4be00000	jr	r31
 3391  00003958  54000000	nop
 3392  0000395c          	.endproc _MemoryGetOperandAddress
 3393  0000395c          	.data
 3394  0000e44a          	.align 2
 3395  0000e44c          	_pagestart_LF3:
 3396  0000e44c          	.space 4
 3397  0000e450          	.align 2
 3398  0000e450          	_freemapmax_LF3:
 3399  0000e450          	.space 4
 3400  0000e454          	.align 2
 3401  0000e454          	_nfreepages_LF3:
 3402  0000e454          	.space 4
 3403  0000e458          	.align 2
 3404  0000e458          	_freepages_LF3:
 3405  0000e458          	.space 32
 3406                      ; Compiled by GCC
 3407  0000e478          	.text
 3408  0000395c          	.align 2
 3409  0000395c          	.proc _isspace
 3410  0000395c          	.global _isspace
 3411  0000395c          	_isspace:
 3412                      ;  Function 'isspace'; 0 bytes of locals, 1 regs to save.
 3413  0000395c  afbefffc	sw	-4(r29),r30; push fp
 3414  00003960  001df020	add	r30,r0,r29; fp = sp
 3415  00003964  afbffff8	sw	-8(r29),r31; push ret addr
 3416  00003968  2fbd0010	subui	r29,r29,#16; alloc local storage
 3417  0000396c  afa20000	sw	0(r29),r2
 3418  00003970  83c20003	lb	r2,3(r30)
 3419  00003974  201f0000	addi	r31,r0,#0
 3420  00003978  304100ff	andi	r1,r2,#0x00ff
 3421  0000397c  60210020	seqi	r1,r1,#32
 3422  00003980  14200018	bnez	r1,L6_LF4
 3423  00003984  54000000	nop; not filled.
 3424  00003988  2041fff7	addi	r1,r2,#-9
 3425  0000398c  302100ff	andi	r1,r1,#0x00ff
 3426  00003990  70210001	sleui	r1,r1,#1
 3427  00003994  10200008	beqz	r1,L5_LF4
 3428  00003998  54000000	nop; not filled.
 3429  0000399c          	L6_LF4:
 3430  0000399c  201f0001	addi	r31,r0,#1
 3431  000039a0          	L5_LF4:
 3432  000039a0  001f0820	add	r1,r0,r31
 3433  000039a4  8fa20000	lw	r2,0(r29)
 3434  000039a8  8fdffff8	lw	r31,-8(r30)
 3435  000039ac  001ee820	add	r29,r0,r30
 3436  000039b0  8fdefffc	lw	r30,-4(r30)
 3437  000039b4  4be00000	jr	r31
 3438  000039b8  54000000	nop
 3439  000039bc          	.endproc _isspace
 3440  000039bc          	.align 2
 3441  000039bc          	.proc _isxdigit
 3442  000039bc          	.global _isxdigit
 3443  000039bc          	_isxdigit:
 3444                      ;  Function 'isxdigit'; 0 bytes of locals, 1 regs to save.
 3445  000039bc  afbefffc	sw	-4(r29),r30; push fp
 3446  000039c0  001df020	add	r30,r0,r29; fp = sp
 3447  000039c4  afbffff8	sw	-8(r29),r31; push ret addr
 3448  000039c8  2fbd0010	subui	r29,r29,#16; alloc local storage
 3449  000039cc  afa20000	sw	0(r29),r2
 3450  000039d0  83df0003	lb	r31,3(r30)
 3451  000039d4  20020000	addi	r2,r0,#0
 3452  000039d8  23e1ffd0	addi	r1,r31,#-48
 3453  000039dc  302100ff	andi	r1,r1,#0x00ff
 3454  000039e0  70210009	sleui	r1,r1,#9
 3455  000039e4  14200028	bnez	r1,L12_LF4
 3456  000039e8  54000000	nop; not filled.
 3457  000039ec  23e1ff9f	addi	r1,r31,#-97
 3458  000039f0  302100ff	andi	r1,r1,#0x00ff
 3459  000039f4  70210005	sleui	r1,r1,#5
 3460  000039f8  14200014	bnez	r1,L12_LF4
 3461  000039fc  54000000	nop; not filled.
 3462  00003a00  33e100ff	andi	r1,r31,#0x00ff
 3463  00003a04  64210041	snei	r1,r1,#65
 3464  00003a08  14200008	bnez	r1,L11_LF4
 3465  00003a0c  54000000	nop; not filled.
 3466  00003a10          	L12_LF4:
 3467  00003a10  20020001	addi	r2,r0,#1
 3468  00003a14          	L11_LF4:
 3469  00003a14  00020820	add	r1,r0,r2
 3470  00003a18  8fa20000	lw	r2,0(r29)
 3471  00003a1c  8fdffff8	lw	r31,-8(r30)
 3472  00003a20  001ee820	add	r29,r0,r30
 3473  00003a24  8fdefffc	lw	r30,-4(r30)
 3474  00003a28  4be00000	jr	r31
 3475  00003a2c  54000000	nop
 3476  00003a30          	.endproc _isxdigit
 3477  00003a30          	.align 2
 3478  00003a30          	.proc _dstrcpy
 3479  00003a30          	.global _dstrcpy
 3480  00003a30          	_dstrcpy:
 3481                      ;  Function 'dstrcpy'; 0 bytes of locals, 2 regs to save.
 3482  00003a30  afbefffc	sw	-4(r29),r30; push fp
 3483  00003a34  001df020	add	r30,r0,r29; fp = sp
 3484  00003a38  afbffff8	sw	-8(r29),r31; push ret addr
 3485  00003a3c  2fbd0010	subui	r29,r29,#16; alloc local storage
 3486  00003a40  afa20000	sw	0(r29),r2
 3487  00003a44  afa30004	sw	4(r29),r3
 3488  00003a48  8fdf0000	lw	r31,(r30)
 3489  00003a4c  8fc20004	lw	r2,4(r30)
 3490  00003a50  001f1820	add	r3,r0,r31
 3491  00003a54          	L19_LF4:
 3492  00003a54  80410000	lb	r1,(r2)
 3493  00003a58  a3e10000	sb	(r31),r1
 3494  00003a5c  20420001	addi	r2,r2,#1
 3495  00003a60  23ff0001	addi	r31,r31,#1
 3496  00003a64  302100ff	andi	r1,r1,#0x00ff
 3497  00003a68  64210000	snei	r1,r1,#0
 3498  00003a6c  1420ffe4	bnez	r1,L19_LF4
 3499  00003a70  54000000	nop; not filled.
 3500  00003a74  00030820	add	r1,r0,r3
 3501  00003a78  8fa20000	lw	r2,0(r29)
 3502  00003a7c  8fa30004	lw	r3,4(r29)
 3503  00003a80  8fdffff8	lw	r31,-8(r30)
 3504  00003a84  001ee820	add	r29,r0,r30
 3505  00003a88  8fdefffc	lw	r30,-4(r30)
 3506  00003a8c  4be00000	jr	r31
 3507  00003a90  54000000	nop
 3508  00003a94          	.endproc _dstrcpy
 3509  00003a94          	.align 2
 3510  00003a94          	.proc _dstrncpy
 3511  00003a94          	.global _dstrncpy
 3512  00003a94          	_dstrncpy:
 3513                      ;  Function 'dstrncpy'; 0 bytes of locals, 3 regs to save.
 3514  00003a94  afbefffc	sw	-4(r29),r30; push fp
 3515  00003a98  001df020	add	r30,r0,r29; fp = sp
 3516  00003a9c  afbffff8	sw	-8(r29),r31; push ret addr
 3517  00003aa0  2fbd0018	subui	r29,r29,#24; alloc local storage
 3518  00003aa4  afa20000	sw	0(r29),r2
 3519  00003aa8  afa30004	sw	4(r29),r3
 3520  00003aac  afa40008	sw	8(r29),r4
 3521  00003ab0  8fc20000	lw	r2,(r30)
 3522  00003ab4  8fc30004	lw	r3,4(r30)
 3523  00003ab8  8fdf0008	lw	r31,8(r30)
 3524  00003abc  00022020	add	r4,r0,r2
 3525  00003ac0  08000024	j	L37_LF4
 3526  00003ac4  54000000	nop; not filled.
 3527  00003ac8          	L34_LF4:
 3528  00003ac8  80610000	lb	r1,(r3)
 3529  00003acc  a0410000	sb	(r2),r1
 3530  00003ad0  20630001	addi	r3,r3,#1
 3531  00003ad4  20420001	addi	r2,r2,#1
 3532  00003ad8  302100ff	andi	r1,r1,#0x00ff
 3533  00003adc  64210000	snei	r1,r1,#0
 3534  00003ae0  10200018	beqz	r1,L32_LF4
 3535  00003ae4  54000000	nop; not filled.
 3536  00003ae8          	L37_LF4:
 3537  00003ae8  001f0820	add	r1,r0,r31
 3538  00003aec  23ffffff	addi	r31,r31,#-1
 3539  00003af0  70210000	slei	r1,r1,#0
 3540  00003af4  1020ffd0	beqz	r1,L34_LF4
 3541  00003af8  54000000	nop; not filled.
 3542  00003afc          	L32_LF4:
 3543  00003afc  00040820	add	r1,r0,r4
 3544  00003b00  8fa20000	lw	r2,0(r29)
 3545  00003b04  8fa30004	lw	r3,4(r29)
 3546  00003b08  8fa40008	lw	r4,8(r29)
 3547  00003b0c  8fdffff8	lw	r31,-8(r30)
 3548  00003b10  001ee820	add	r29,r0,r30
 3549  00003b14  8fdefffc	lw	r30,-4(r30)
 3550  00003b18  4be00000	jr	r31
 3551  00003b1c  54000000	nop
 3552  00003b20          	.endproc _dstrncpy
 3553  00003b20          	.align 2
 3554  00003b20          	.proc _dstrcat
 3555  00003b20          	.global _dstrcat
 3556  00003b20          	_dstrcat:
 3557                      ;  Function 'dstrcat'; 0 bytes of locals, 2 regs to save.
 3558  00003b20  afbefffc	sw	-4(r29),r30; push fp
 3559  00003b24  001df020	add	r30,r0,r29; fp = sp
 3560  00003b28  afbffff8	sw	-8(r29),r31; push ret addr
 3561  00003b2c  2fbd0010	subui	r29,r29,#16; alloc local storage
 3562  00003b30  afa20000	sw	0(r29),r2
 3563  00003b34  afa30004	sw	4(r29),r3
 3564  00003b38  8fdf0000	lw	r31,(r30)
 3565  00003b3c  001f1820	add	r3,r0,r31
 3566  00003b40  90610000	lbu	r1,(r3)
 3567  00003b44  64210000	snei	r1,r1,#0
 3568  00003b48  10200018	beqz	r1,L50_LF4
 3569  00003b4c  54000000	nop; not filled.
 3570  00003b50          	L51_LF4:
 3571  00003b50  23ff0001	addi	r31,r31,#1
 3572  00003b54  93e10000	lbu	r1,(r31)
 3573  00003b58  64210000	snei	r1,r1,#0
 3574  00003b5c  1420fff0	bnez	r1,L51_LF4
 3575  00003b60  54000000	nop; not filled.
 3576  00003b64          	L50_LF4:
 3577  00003b64  001f1020	add	r2,r0,r31
 3578  00003b68  8fdf0004	lw	r31,4(r30)
 3579  00003b6c          	L54_LF4:
 3580  00003b6c  83e10000	lb	r1,(r31)
 3581  00003b70  a0410000	sb	(r2),r1
 3582  00003b74  23ff0001	addi	r31,r31,#1
 3583  00003b78  20420001	addi	r2,r2,#1
 3584  00003b7c  302100ff	andi	r1,r1,#0x00ff
 3585  00003b80  64210000	snei	r1,r1,#0
 3586  00003b84  1420ffe4	bnez	r1,L54_LF4
 3587  00003b88  54000000	nop; not filled.
 3588  00003b8c  00030820	add	r1,r0,r3
 3589  00003b90  8fa20000	lw	r2,0(r29)
 3590  00003b94  8fa30004	lw	r3,4(r29)
 3591  00003b98  8fdffff8	lw	r31,-8(r30)
 3592  00003b9c  001ee820	add	r29,r0,r30
 3593  00003ba0  8fdefffc	lw	r30,-4(r30)
 3594  00003ba4  4be00000	jr	r31
 3595  00003ba8  54000000	nop
 3596  00003bac          	.endproc _dstrcat
 3597  00003bac          	.align 2
 3598  00003bac          	.proc _dstrncmp
 3599  00003bac          	.global _dstrncmp
 3600  00003bac          	_dstrncmp:
 3601                      ;  Function 'dstrncmp'; 0 bytes of locals, 4 regs to save.
 3602  00003bac  afbefffc	sw	-4(r29),r30; push fp
 3603  00003bb0  001df020	add	r30,r0,r29; fp = sp
 3604  00003bb4  afbffff8	sw	-8(r29),r31; push ret addr
 3605  00003bb8  2fbd0018	subui	r29,r29,#24; alloc local storage
 3606  00003bbc  afa20000	sw	0(r29),r2
 3607  00003bc0  afa30004	sw	4(r29),r3
 3608  00003bc4  afa40008	sw	8(r29),r4
 3609  00003bc8  afa5000c	sw	12(r29),r5
 3610  00003bcc  8fc30000	lw	r3,(r30)
 3611  00003bd0  8fc40004	lw	r4,4(r30)
 3612  00003bd4  8fc50008	lw	r5,8(r30)
 3613  00003bd8  20020000	addi	r2,r0,#0
 3614  00003bdc  0045082a	slt	r1,r2,r5
 3615  00003be0  1020003c	beqz	r1,L73_LF4
 3616  00003be4  54000000	nop; not filled.
 3617  00003be8          	L75_LF4:
 3618  00003be8  909f0000	lbu	r31,(r4)
 3619  00003bec  67e10000	snei	r1,r31,#0
 3620  00003bf0  10200038	beqz	r1,L86_LF4
 3621  00003bf4  54000000	nop; not filled.
 3622  00003bf8  90610000	lbu	r1,(r3)
 3623  00003bfc  003f0829	sne	r1,r1,r31
 3624  00003c00  1420001c	bnez	r1,L73_LF4
 3625  00003c04  54000000	nop; not filled.
 3626  00003c08  20630001	addi	r3,r3,#1
 3627  00003c0c  20840001	addi	r4,r4,#1
 3628  00003c10  20420001	addi	r2,r2,#1
 3629  00003c14  0045082a	slt	r1,r2,r5
 3630  00003c18  1420ffcc	bnez	r1,L75_LF4
 3631  00003c1c  54000000	nop; not filled.
 3632  00003c20          	L73_LF4:
 3633  00003c20  00450828	seq	r1,r2,r5
 3634  00003c24  10200010	beqz	r1,L80_LF4
 3635  00003c28  54000000	nop; not filled.
 3636  00003c2c          	L86_LF4:
 3637  00003c2c  20010000	addi	r1,r0,#0
 3638  00003c30  08000028	j	L84_LF4
 3639  00003c34  54000000	nop; not filled.
 3640  00003c38          	L80_LF4:
 3641  00003c38  907f0000	lbu	r31,(r3)
 3642  00003c3c  90830000	lbu	r3,(r4)
 3643  00003c40  03e30822	sub	r1,r31,r3
 3644  00003c44  74210000	sgei	r1,r1,#0
 3645  00003c48  2002ffff	addi	r2,r0,#-1
 3646  00003c4c  10200008	beqz	r1,L82_LF4
 3647  00003c50  54000000	nop; not filled.
 3648  00003c54  03e31029	sne	r2,r31,r3
 3649  00003c58          	L82_LF4:
 3650  00003c58  00020820	add	r1,r0,r2
 3651  00003c5c          	L84_LF4:
 3652  00003c5c  8fa20000	lw	r2,0(r29)
 3653  00003c60  8fa30004	lw	r3,4(r29)
 3654  00003c64  8fa40008	lw	r4,8(r29)
 3655  00003c68  8fa5000c	lw	r5,12(r29)
 3656  00003c6c  8fdffff8	lw	r31,-8(r30)
 3657  00003c70  001ee820	add	r29,r0,r30
 3658  00003c74  8fdefffc	lw	r30,-4(r30)
 3659  00003c78  4be00000	jr	r31
 3660  00003c7c  54000000	nop
 3661  00003c80          	.endproc _dstrncmp
 3662  00003c80          	.align 2
 3663  00003c80          	.proc _dstrlen
 3664  00003c80          	.global _dstrlen
 3665  00003c80          	_dstrlen:
 3666                      ;  Function 'dstrlen'; 0 bytes of locals, 1 regs to save.
 3667  00003c80  afbefffc	sw	-4(r29),r30; push fp
 3668  00003c84  001df020	add	r30,r0,r29; fp = sp
 3669  00003c88  afbffff8	sw	-8(r29),r31; push ret addr
 3670  00003c8c  2fbd0010	subui	r29,r29,#16; alloc local storage
 3671  00003c90  afa20000	sw	0(r29),r2
 3672  00003c94  8fdf0000	lw	r31,(r30)
 3673  00003c98  20020000	addi	r2,r0,#0
 3674  00003c9c  08000008	j	L97_LF4
 3675  00003ca0  54000000	nop; not filled.
 3676  00003ca4          	L95_LF4:
 3677  00003ca4  20420001	addi	r2,r2,#1
 3678  00003ca8          	L97_LF4:
 3679  00003ca8  93e10000	lbu	r1,(r31)
 3680  00003cac  23ff0001	addi	r31,r31,#1
 3681  00003cb0  64210000	snei	r1,r1,#0
 3682  00003cb4  1420ffec	bnez	r1,L95_LF4
 3683  00003cb8  54000000	nop; not filled.
 3684  00003cbc  00020820	add	r1,r0,r2
 3685  00003cc0  8fa20000	lw	r2,0(r29)
 3686  00003cc4  8fdffff8	lw	r31,-8(r30)
 3687  00003cc8  001ee820	add	r29,r0,r30
 3688  00003ccc  8fdefffc	lw	r30,-4(r30)
 3689  00003cd0  4be00000	jr	r31
 3690  00003cd4  54000000	nop
 3691  00003cd8          	.endproc _dstrlen
 3692  00003cd8          	.align 2
 3693  00003cd8          	.proc _dstrstr
 3694  00003cd8          	.global _dstrstr
 3695  00003cd8          	_dstrstr:
 3696                      ;  Function 'dstrstr'; 0 bytes of locals, 6 regs to save.
 3697  00003cd8  afbefffc	sw	-4(r29),r30; push fp
 3698  00003cdc  001df020	add	r30,r0,r29; fp = sp
 3699  00003ce0  afbffff8	sw	-8(r29),r31; push ret addr
 3700  00003ce4  2fbd0020	subui	r29,r29,#32; alloc local storage
 3701  00003ce8  afa20000	sw	0(r29),r2
 3702  00003cec  afa30004	sw	4(r29),r3
 3703  00003cf0  afa40008	sw	8(r29),r4
 3704  00003cf4  afa5000c	sw	12(r29),r5
 3705  00003cf8  afa60010	sw	16(r29),r6
 3706  00003cfc  afa70014	sw	20(r29),r7
 3707  00003d00  8fc50000	lw	r5,(r30)
 3708  00003d04  8fc70004	lw	r7,4(r30)
 3709  00003d08  20030000	addi	r3,r0,#0
 3710  00003d0c  90e10000	lbu	r1,(r7)
 3711  00003d10  20e20001	addi	r2,r7,#1
 3712  00003d14  64210000	snei	r1,r1,#0
 3713  00003d18  1020001c	beqz	r1,L125_LF4
 3714  00003d1c  54000000	nop; not filled.
 3715  00003d20          	L126_LF4:
 3716  00003d20  20630001	addi	r3,r3,#1
 3717  00003d24  90410000	lbu	r1,(r2)
 3718  00003d28  20420001	addi	r2,r2,#1
 3719  00003d2c  64210000	snei	r1,r1,#0
 3720  00003d30  1420ffec	bnez	r1,L126_LF4
 3721  00003d34  54000000	nop; not filled.
 3722  00003d38          	L125_LF4:
 3723  00003d38  00033020	add	r6,r0,r3
 3724  00003d3c  080000ac	j	L149_LF4
 3725  00003d40  54000000	nop; not filled.
 3726  00003d44          	L130_LF4:
 3727  00003d44  00051820	add	r3,r0,r5
 3728  00003d48  00072020	add	r4,r0,r7
 3729  00003d4c  20020000	addi	r2,r0,#0
 3730  00003d50  0046082a	slt	r1,r2,r6
 3731  00003d54  1020003c	beqz	r1,L134_LF4
 3732  00003d58  54000000	nop; not filled.
 3733  00003d5c          	L136_LF4:
 3734  00003d5c  909f0000	lbu	r31,(r4)
 3735  00003d60  67e10000	snei	r1,r31,#0
 3736  00003d64  10200038	beqz	r1,L150_LF4
 3737  00003d68  54000000	nop; not filled.
 3738  00003d6c  90610000	lbu	r1,(r3)
 3739  00003d70  003f0829	sne	r1,r1,r31
 3740  00003d74  1420001c	bnez	r1,L134_LF4
 3741  00003d78  54000000	nop; not filled.
 3742  00003d7c  20630001	addi	r3,r3,#1
 3743  00003d80  20840001	addi	r4,r4,#1
 3744  00003d84  20420001	addi	r2,r2,#1
 3745  00003d88  0046082a	slt	r1,r2,r6
 3746  00003d8c  1420ffcc	bnez	r1,L136_LF4
 3747  00003d90  54000000	nop; not filled.
 3748  00003d94          	L134_LF4:
 3749  00003d94  00460828	seq	r1,r2,r6
 3750  00003d98  10200010	beqz	r1,L141_LF4
 3751  00003d9c  54000000	nop; not filled.
 3752  00003da0          	L150_LF4:
 3753  00003da0  20010000	addi	r1,r0,#0
 3754  00003da4  08000028	j	L132_LF4
 3755  00003da8  54000000	nop; not filled.
 3756  00003dac          	L141_LF4:
 3757  00003dac  90630000	lbu	r3,(r3)
 3758  00003db0  90820000	lbu	r2,(r4)
 3759  00003db4  00620822	sub	r1,r3,r2
 3760  00003db8  74210000	sgei	r1,r1,#0
 3761  00003dbc  201fffff	addi	r31,r0,#-1
 3762  00003dc0  10200008	beqz	r1,L143_LF4
 3763  00003dc4  54000000	nop; not filled.
 3764  00003dc8  0062f829	sne	r31,r3,r2
 3765  00003dcc          	L143_LF4:
 3766  00003dcc  001f0820	add	r1,r0,r31
 3767  00003dd0          	L132_LF4:
 3768  00003dd0  64210000	snei	r1,r1,#0
 3769  00003dd4  14200010	bnez	r1,L131_LF4
 3770  00003dd8  54000000	nop; not filled.
 3771  00003ddc  00050820	add	r1,r0,r5
 3772  00003de0  0800001c	j	L146_LF4
 3773  00003de4  54000000	nop; not filled.
 3774  00003de8          	L131_LF4:
 3775  00003de8  20a50001	addi	r5,r5,#1
 3776  00003dec          	L149_LF4:
 3777  00003dec  90a10000	lbu	r1,(r5)
 3778  00003df0  64210000	snei	r1,r1,#0
 3779  00003df4  1420ff4c	bnez	r1,L130_LF4
 3780  00003df8  54000000	nop; not filled.
 3781  00003dfc  20010000	addi	r1,r0,#0
 3782  00003e00          	L146_LF4:
 3783  00003e00  8fa20000	lw	r2,0(r29)
 3784  00003e04  8fa30004	lw	r3,4(r29)
 3785  00003e08  8fa40008	lw	r4,8(r29)
 3786  00003e0c  8fa5000c	lw	r5,12(r29)
 3787  00003e10  8fa60010	lw	r6,16(r29)
 3788  00003e14  8fa70014	lw	r7,20(r29)
 3789  00003e18  8fdffff8	lw	r31,-8(r30)
 3790  00003e1c  001ee820	add	r29,r0,r30
 3791  00003e20  8fdefffc	lw	r30,-4(r30)
 3792  00003e24  4be00000	jr	r31
 3793  00003e28  54000000	nop
 3794  00003e2c          	.endproc _dstrstr
 3795  00003e2c          	.align 2
 3796  00003e2c          	.proc _dmindex
 3797  00003e2c          	.global _dmindex
 3798  00003e2c          	_dmindex:
 3799                      ;  Function 'dmindex'; 0 bytes of locals, 5 regs to save.
 3800  00003e2c  afbefffc	sw	-4(r29),r30; push fp
 3801  00003e30  001df020	add	r30,r0,r29; fp = sp
 3802  00003e34  afbffff8	sw	-8(r29),r31; push ret addr
 3803  00003e38  2fbd0020	subui	r29,r29,#32; alloc local storage
 3804  00003e3c  afa20000	sw	0(r29),r2
 3805  00003e40  afa30004	sw	4(r29),r3
 3806  00003e44  afa40008	sw	8(r29),r4
 3807  00003e48  afa5000c	sw	12(r29),r5
 3808  00003e4c  afa60010	sw	16(r29),r6
 3809  00003e50  8fc40000	lw	r4,(r30)
 3810  00003e54  8fc60004	lw	r6,4(r30)
 3811  00003e58  90810000	lbu	r1,(r4)
 3812  00003e5c  64210000	snei	r1,r1,#0
 3813  00003e60  10200060	beqz	r1,L164_LF4
 3814  00003e64  54000000	nop; not filled.
 3815  00003e68  00012820	add	r5,r0,r1
 3816  00003e6c          	L165_LF4:
 3817  00003e6c  00061020	add	r2,r0,r6
 3818  00003e70  80df0000	lb	r31,(r6)
 3819  00003e74  33e100ff	andi	r1,r31,#0x00ff
 3820  00003e78  64210000	snei	r1,r1,#0
 3821  00003e7c  1020003c	beqz	r1,L163_LF4
 3822  00003e80  54000000	nop; not filled.
 3823  00003e84  90830000	lbu	r3,(r4)
 3824  00003e88          	L169_LF4:
 3825  00003e88  33e100ff	andi	r1,r31,#0x00ff
 3826  00003e8c  00610828	seq	r1,r3,r1
 3827  00003e90  10200010	beqz	r1,L168_LF4
 3828  00003e94  54000000	nop; not filled.
 3829  00003e98  00040820	add	r1,r0,r4
 3830  00003e9c  08000028	j	L173_LF4
 3831  00003ea0  54000000	nop; not filled.
 3832  00003ea4          	L168_LF4:
 3833  00003ea4  20420001	addi	r2,r2,#1
 3834  00003ea8  805f0000	lb	r31,(r2)
 3835  00003eac  33e100ff	andi	r1,r31,#0x00ff
 3836  00003eb0  64210000	snei	r1,r1,#0
 3837  00003eb4  1420ffd0	bnez	r1,L169_LF4
 3838  00003eb8  54000000	nop; not filled.
 3839  00003ebc          	L163_LF4:
 3840  00003ebc  14a0ffac	bnez	r5,L165_LF4
 3841  00003ec0  54000000	nop; not filled.
 3842  00003ec4          	L164_LF4:
 3843  00003ec4  20010000	addi	r1,r0,#0
 3844  00003ec8          	L173_LF4:
 3845  00003ec8  8fa20000	lw	r2,0(r29)
 3846  00003ecc  8fa30004	lw	r3,4(r29)
 3847  00003ed0  8fa40008	lw	r4,8(r29)
 3848  00003ed4  8fa5000c	lw	r5,12(r29)
 3849  00003ed8  8fa60010	lw	r6,16(r29)
 3850  00003edc  8fdffff8	lw	r31,-8(r30)
 3851  00003ee0  001ee820	add	r29,r0,r30
 3852  00003ee4  8fdefffc	lw	r30,-4(r30)
 3853  00003ee8  4be00000	jr	r31
 3854  00003eec  54000000	nop
 3855  00003ef0          	.endproc _dmindex
 3856  00003ef0          	.align 2
 3857  00003ef0          	.proc _dindex
 3858  00003ef0          	.global _dindex
 3859  00003ef0          	_dindex:
 3860                      ;  Function 'dindex'; 0 bytes of locals, 2 regs to save.
 3861  00003ef0  afbefffc	sw	-4(r29),r30; push fp
 3862  00003ef4  001df020	add	r30,r0,r29; fp = sp
 3863  00003ef8  afbffff8	sw	-8(r29),r31; push ret addr
 3864  00003efc  2fbd0010	subui	r29,r29,#16; alloc local storage
 3865  00003f00  afa20000	sw	0(r29),r2
 3866  00003f04  afa30004	sw	4(r29),r3
 3867  00003f08  8fc20000	lw	r2,(r30)
 3868  00003f0c  8fc30004	lw	r3,4(r30)
 3869  00003f10  08000024	j	L187_LF4
 3870  00003f14  54000000	nop; not filled.
 3871  00003f18          	L183_LF4:
 3872  00003f18  33e100ff	andi	r1,r31,#0x00ff
 3873  00003f1c  00230828	seq	r1,r1,r3
 3874  00003f20  10200010	beqz	r1,L184_LF4
 3875  00003f24  54000000	nop; not filled.
 3876  00003f28  00020820	add	r1,r0,r2
 3877  00003f2c  08000020	j	L186_LF4
 3878  00003f30  54000000	nop; not filled.
 3879  00003f34          	L184_LF4:
 3880  00003f34  20420001	addi	r2,r2,#1
 3881  00003f38          	L187_LF4:
 3882  00003f38  805f0000	lb	r31,(r2)
 3883  00003f3c  33e100ff	andi	r1,r31,#0x00ff
 3884  00003f40  64210000	snei	r1,r1,#0
 3885  00003f44  1420ffd0	bnez	r1,L183_LF4
 3886  00003f48  54000000	nop; not filled.
 3887  00003f4c  20010000	addi	r1,r0,#0
 3888  00003f50          	L186_LF4:
 3889  00003f50  8fa20000	lw	r2,0(r29)
 3890  00003f54  8fa30004	lw	r3,4(r29)
 3891  00003f58  8fdffff8	lw	r31,-8(r30)
 3892  00003f5c  001ee820	add	r29,r0,r30
 3893  00003f60  8fdefffc	lw	r30,-4(r30)
 3894  00003f64  4be00000	jr	r31
 3895  00003f68  54000000	nop
 3896  00003f6c          	.endproc _dindex
 3897  00003f6c          	.align 2
 3898  00003f6c          	.proc _ditoa
 3899  00003f6c          	.global _ditoa
 3900  00003f6c          	_ditoa:
 3901                      ;  Function 'ditoa'; 0 bytes of locals, 5 regs to save.
 3902  00003f6c  afbefffc	sw	-4(r29),r30; push fp
 3903  00003f70  001df020	add	r30,r0,r29; fp = sp
 3904  00003f74  afbffff8	sw	-8(r29),r31; push ret addr
 3905  00003f78  2fbd0020	subui	r29,r29,#32; alloc local storage
 3906  00003f7c  afa20000	sw	0(r29),r2
 3907  00003f80  afa30004	sw	4(r29),r3
 3908  00003f84  afa40008	sw	8(r29),r4
 3909  00003f88  afa5000c	sw	12(r29),r5
 3910  00003f8c  afa60010	sw	16(r29),r6
 3911  00003f90  8fc30000	lw	r3,(r30)
 3912  00003f94  8fc40004	lw	r4,4(r30)
 3913  00003f98  68610000	slti	r1,r3,#0
 3914  00003f9c  10200010	beqz	r1,L203_LF4
 3915  00003fa0  54000000	nop; not filled.
 3916  00003fa4  2006002d	addi	r6,r0,(#0x2d)&0xff
 3917  00003fa8  08000014	j	L216_LF4
 3918  00003fac  54000000	nop; not filled.
 3919  00003fb0          	L203_LF4:
 3920  00003fb0  64610000	snei	r1,r3,#0
 3921  00003fb4  14200018	bnez	r1,L205_LF4
 3922  00003fb8  54000000	nop; not filled.
 3923  00003fbc  20060030	addi	r6,r0,(#0x30)&0xff
 3924  00003fc0          	L216_LF4:
 3925  00003fc0  a0860000	sb	(r4),r6
 3926  00003fc4  20840001	addi	r4,r4,#1
 3927  00003fc8  0800007c	j	L204_LF4
 3928  00003fcc  54000000	nop; not filled.
 3929  00003fd0          	L205_LF4:
 3930  00003fd0  201f0001	addi	r31,r0,#1
 3931  00003fd4  03e3082c	sle	r1,r31,r3
 3932  00003fd8  1020001c	beqz	r1,L208_LF4
 3933  00003fdc  54000000	nop; not filled.
 3934  00003fe0          	L209_LF4:
 3935  00003fe0  53e10002	slli	r1,r31,#0x2
 3936  00003fe4  003f0820	add	r1,r1,r31
 3937  00003fe8  503f0001	slli	r31,r1,#0x1
 3938  00003fec  03e3082c	sle	r1,r31,r3
 3939  00003ff0  1420ffec	bnez	r1,L209_LF4
 3940  00003ff4  54000000	nop; not filled.
 3941  00003ff8          	L208_LF4:
 3942  00003ff8  2005000a	addi	r5,r0,#10
 3943  00003ffc          	L212_LF4:
 3944  00003ffc  03e00035	movi2fp	f0,r31
 3945  00004000  00a00835	movi2fp	f1,r5
 3946  00004004  0401000f	div	f0,f0,f1
 3947  00004008  0000f834	movfp2i	r31,f0
 3948  0000400c  00600035	movi2fp	f0,r3
 3949  00004010  03e00835	movi2fp	f1,r31
 3950  00004014  0401000f	div	f0,f0,f1
 3951  00004018  00001034	movfp2i	r2,f0
 3952  0000401c  20410030	addi	r1,r2,#48
 3953  00004020  a0810000	sb	(r4),r1
 3954  00004024  20840001	addi	r4,r4,#1
 3955  00004028  00400035	movi2fp	f0,r2
 3956  0000402c  03e00835	movi2fp	f1,r31
 3957  00004030  0401000e	mult	f0,f0,f1
 3958  00004034  00000834	movfp2i	r1,f0
 3959  00004038  00611822	sub	r3,r3,r1
 3960  0000403c  6fe10001	sgti	r1,r31,#1
 3961  00004040  1420ffb8	bnez	r1,L212_LF4
 3962  00004044  54000000	nop; not filled.
 3963  00004048          	L204_LF4:
 3964  00004048  20060000	addi	r6,r0,(#0x0)&0xff
 3965  0000404c  a0860000	sb	(r4),r6
 3966  00004050  8fa20000	lw	r2,0(r29)
 3967  00004054  8fa30004	lw	r3,4(r29)
 3968  00004058  8fa40008	lw	r4,8(r29)
 3969  0000405c  8fa5000c	lw	r5,12(r29)
 3970  00004060  8fa60010	lw	r6,16(r29)
 3971  00004064  8fdffff8	lw	r31,-8(r30)
 3972  00004068  001ee820	add	r29,r0,r30
 3973  0000406c  8fdefffc	lw	r30,-4(r30)
 3974  00004070  4be00000	jr	r31
 3975  00004074  54000000	nop
 3976  00004078          	.endproc _ditoa
 3977  00004078          	.align 2
 3978  00004078          	.proc _dstrtol
 3979  00004078          	.global _dstrtol
 3980  00004078          	_dstrtol:
 3981                      ;  Function 'dstrtol'; 0 bytes of locals, 5 regs to save.
 3982  00004078  afbefffc	sw	-4(r29),r30; push fp
 3983  0000407c  001df020	add	r30,r0,r29; fp = sp
 3984  00004080  afbffff8	sw	-8(r29),r31; push ret addr
 3985  00004084  2fbd0020	subui	r29,r29,#32; alloc local storage
 3986  00004088  afa20000	sw	0(r29),r2
 3987  0000408c  afa30004	sw	4(r29),r3
 3988  00004090  afa40008	sw	8(r29),r4
 3989  00004094  afa5000c	sw	12(r29),r5
 3990  00004098  afa60010	sw	16(r29),r6
 3991  0000409c  8fc20000	lw	r2,(r30)
 3992  000040a0  8fc50004	lw	r5,4(r30)
 3993  000040a4  8fc40008	lw	r4,8(r30)
 3994  000040a8  20030000	addi	r3,r0,#0
 3995  000040ac  08000008	j	L247_LF4
 3996  000040b0  54000000	nop; not filled.
 3997  000040b4          	L220_LF4:
 3998  000040b4  20420001	addi	r2,r2,#1
 3999  000040b8          	L247_LF4:
 4000  000040b8  805f0000	lb	r31,(r2)
 4001  000040bc  33e100ff	andi	r1,r31,#0x00ff
 4002  000040c0  60210020	seqi	r1,r1,#32
 4003  000040c4  1420ffec	bnez	r1,L220_LF4
 4004  000040c8  54000000	nop; not filled.
 4005  000040cc  23e1fff7	addi	r1,r31,#-9
 4006  000040d0  302100ff	andi	r1,r1,#0x00ff
 4007  000040d4  70210001	sleui	r1,r1,#1
 4008  000040d8  1420ffd8	bnez	r1,L220_LF4
 4009  000040dc  54000000	nop; not filled.
 4010  000040e0  64a10000	snei	r1,r5,#0
 4011  000040e4  10200008	beqz	r1,L222_LF4
 4012  000040e8  54000000	nop; not filled.
 4013  000040ec  aca20000	sw	(r5),r2
 4014  000040f0          	L222_LF4:
 4015  000040f0  905f0000	lbu	r31,(r2)
 4016  000040f4  67e10000	snei	r1,r31,#0
 4017  000040f8  10200090	beqz	r1,L248_LF4
 4018  000040fc  54000000	nop; not filled.
 4019  00004100  63e1002d	seqi	r1,r31,#45
 4020  00004104  10200014	beqz	r1,L224_LF4
 4021  00004108  54000000	nop; not filled.
 4022  0000410c  2006ffff	addi	r6,r0,#-1
 4023  00004110  20420001	addi	r2,r2,#1
 4024  00004114  08000008	j	L225_LF4
 4025  00004118  54000000	nop; not filled.
 4026  0000411c          	L224_LF4:
 4027  0000411c  20060001	addi	r6,r0,#1
 4028  00004120          	L225_LF4:
 4029  00004120  64810000	snei	r1,r4,#0
 4030  00004124  14200054	bnez	r1,L226_LF4
 4031  00004128  54000000	nop; not filled.
 4032  0000412c  90410000	lbu	r1,(r2)
 4033  00004130  60210030	seqi	r1,r1,#48
 4034  00004134  10200040	beqz	r1,L227_LF4
 4035  00004138  54000000	nop; not filled.
 4036  0000413c  20420001	addi	r2,r2,#1
 4037  00004140  905f0000	lbu	r31,(r2)
 4038  00004144  63e10078	seqi	r1,r31,#120
 4039  00004148  14200010	bnez	r1,L229_LF4
 4040  0000414c  54000000	nop; not filled.
 4041  00004150  63e10058	seqi	r1,r31,#88
 4042  00004154  10200014	beqz	r1,L228_LF4
 4043  00004158  54000000	nop; not filled.
 4044  0000415c          	L229_LF4:
 4045  0000415c  20040010	addi	r4,r0,#16
 4046  00004160  20420001	addi	r2,r2,#1
 4047  00004164  08000014	j	L226_LF4
 4048  00004168  54000000	nop; not filled.
 4049  0000416c          	L228_LF4:
 4050  0000416c  20040008	addi	r4,r0,#8
 4051  00004170  08000008	j	L226_LF4
 4052  00004174  54000000	nop; not filled.
 4053  00004178          	L227_LF4:
 4054  00004178  2004000a	addi	r4,r0,#10
 4055  0000417c          	L226_LF4:
 4056  0000417c  2081ffff	addi	r1,r4,#-1
 4057  00004180  6c21000f	sgtui	r1,r1,#15
 4058  00004184  10200010	beqz	r1,L233_LF4
 4059  00004188  54000000	nop; not filled.
 4060  0000418c          	L248_LF4:
 4061  0000418c  00030820	add	r1,r0,r3
 4062  00004190  080000c4	j	L245_LF4
 4063  00004194  54000000	nop; not filled.
 4064  00004198          	L233_LF4:
 4065  00004198  805f0000	lb	r31,(r2)
 4066  0000419c  23e1ffd0	addi	r1,r31,#-48
 4067  000041a0  302100ff	andi	r1,r1,#0x00ff
 4068  000041a4  70210009	sleui	r1,r1,#9
 4069  000041a8  10200014	beqz	r1,L236_LF4
 4070  000041ac  54000000	nop; not filled.
 4071  000041b0  33e100ff	andi	r1,r31,#0x00ff
 4072  000041b4  2021ffd0	addi	r1,r1,#-48
 4073  000041b8  08000050	j	L237_LF4
 4074  000041bc  54000000	nop; not filled.
 4075  000041c0          	L236_LF4:
 4076  000041c0  23e1ff9f	addi	r1,r31,#-97
 4077  000041c4  302100ff	andi	r1,r1,#0x00ff
 4078  000041c8  70210019	sleui	r1,r1,#25
 4079  000041cc  10200014	beqz	r1,L238_LF4
 4080  000041d0  54000000	nop; not filled.
 4081  000041d4  33e100ff	andi	r1,r31,#0x00ff
 4082  000041d8  2021ffa9	addi	r1,r1,#-87
 4083  000041dc  0800002c	j	L237_LF4
 4084  000041e0  54000000	nop; not filled.
 4085  000041e4          	L238_LF4:
 4086  000041e4  23e1ffbf	addi	r1,r31,#-65
 4087  000041e8  302100ff	andi	r1,r1,#0x00ff
 4088  000041ec  70210019	sleui	r1,r1,#25
 4089  000041f0  10200014	beqz	r1,L240_LF4
 4090  000041f4  54000000	nop; not filled.
 4091  000041f8  33e100ff	andi	r1,r31,#0x00ff
 4092  000041fc  2021ffc9	addi	r1,r1,#-55
 4093  00004200  08000008	j	L237_LF4
 4094  00004204  54000000	nop; not filled.
 4095  00004208          	L240_LF4:
 4096  00004208  200103e8	addi	r1,r0,#1000
 4097  0000420c          	L237_LF4:
 4098  0000420c  0024f82a	slt	r31,r1,r4
 4099  00004210  13e00024	beqz	r31,L246_LF4
 4100  00004214  54000000	nop; not filled.
 4101  00004218  00600035	movi2fp	f0,r3
 4102  0000421c  00800835	movi2fp	f1,r4
 4103  00004220  0401000e	mult	f0,f0,f1
 4104  00004224  00001834	movfp2i	r3,f0
 4105  00004228  00611820	add	r3,r3,r1
 4106  0000422c  20420001	addi	r2,r2,#1
 4107  00004230  17e0ff64	bnez	r31,L233_LF4
 4108  00004234  54000000	nop; not filled.
 4109  00004238          	L246_LF4:
 4110  00004238  64a10000	snei	r1,r5,#0
 4111  0000423c  10200008	beqz	r1,L244_LF4
 4112  00004240  54000000	nop; not filled.
 4113  00004244  aca20000	sw	(r5),r2
 4114  00004248          	L244_LF4:
 4115  00004248  00600035	movi2fp	f0,r3
 4116  0000424c  00c00835	movi2fp	f1,r6
 4117  00004250  0401000e	mult	f0,f0,f1
 4118  00004254  00000834	movfp2i	r1,f0
 4119  00004258          	L245_LF4:
 4120  00004258  8fa20000	lw	r2,0(r29)
 4121  0000425c  8fa30004	lw	r3,4(r29)
 4122  00004260  8fa40008	lw	r4,8(r29)
 4123  00004264  8fa5000c	lw	r5,12(r29)
 4124  00004268  8fa60010	lw	r6,16(r29)
 4125  0000426c  8fdffff8	lw	r31,-8(r30)
 4126  00004270  001ee820	add	r29,r0,r30
 4127  00004274  8fdefffc	lw	r30,-4(r30)
 4128  00004278  4be00000	jr	r31
 4129  0000427c  54000000	nop
 4130  00004280          	.endproc _dstrtol
 4131  00004280          	.align 2
 4132  00004280          	.proc _bcopy
 4133  00004280          	.global _bcopy
 4134  00004280          	_bcopy:
 4135                      ;  Function 'bcopy'; 0 bytes of locals, 3 regs to save.
 4136  00004280  afbefffc	sw	-4(r29),r30; push fp
 4137  00004284  001df020	add	r30,r0,r29; fp = sp
 4138  00004288  afbffff8	sw	-8(r29),r31; push ret addr
 4139  0000428c  2fbd0018	subui	r29,r29,#24; alloc local storage
 4140  00004290  afa20000	sw	0(r29),r2
 4141  00004294  afa30004	sw	4(r29),r3
 4142  00004298  afa40008	sw	8(r29),r4
 4143  0000429c  8fc30000	lw	r3,(r30)
 4144  000042a0  8fc20004	lw	r2,4(r30)
 4145  000042a4  8fdf0008	lw	r31,8(r30)
 4146  000042a8  08000014	j	L259_LF4
 4147  000042ac  54000000	nop; not filled.
 4148  000042b0          	L257_LF4:
 4149  000042b0  80640000	lb	r4,(r3)
 4150  000042b4  a0440000	sb	(r2),r4
 4151  000042b8  20630001	addi	r3,r3,#1
 4152  000042bc  20420001	addi	r2,r2,#1
 4153  000042c0          	L259_LF4:
 4154  000042c0  001f0820	add	r1,r0,r31
 4155  000042c4  23ffffff	addi	r31,r31,#-1
 4156  000042c8  6c210000	sgti	r1,r1,#0
 4157  000042cc  1420ffe0	bnez	r1,L257_LF4
 4158  000042d0  54000000	nop; not filled.
 4159  000042d4  8fa20000	lw	r2,0(r29)
 4160  000042d8  8fa30004	lw	r3,4(r29)
 4161  000042dc  8fa40008	lw	r4,8(r29)
 4162  000042e0  8fdffff8	lw	r31,-8(r30)
 4163  000042e4  001ee820	add	r29,r0,r30
 4164  000042e8  8fdefffc	lw	r30,-4(r30)
 4165  000042ec  4be00000	jr	r31
 4166  000042f0  54000000	nop
 4167  000042f4          	.endproc _bcopy
 4168  000042f4          	.align 2
 4169  000042f4          	.proc _bzero
 4170  000042f4          	.global _bzero
 4171  000042f4          	_bzero:
 4172                      ;  Function 'bzero'; 0 bytes of locals, 2 regs to save.
 4173  000042f4  afbefffc	sw	-4(r29),r30; push fp
 4174  000042f8  001df020	add	r30,r0,r29; fp = sp
 4175  000042fc  afbffff8	sw	-8(r29),r31; push ret addr
 4176  00004300  2fbd0010	subui	r29,r29,#16; alloc local storage
 4177  00004304  afa20000	sw	0(r29),r2
 4178  00004308  afa30004	sw	4(r29),r3
 4179  0000430c  8fc20000	lw	r2,(r30)
 4180  00004310  8fdf0004	lw	r31,4(r30)
 4181  00004314  08000010	j	L270_LF4
 4182  00004318  54000000	nop; not filled.
 4183  0000431c          	L268_LF4:
 4184  0000431c  20030000	addi	r3,r0,(#0x0)&0xff
 4185  00004320  a0430000	sb	(r2),r3
 4186  00004324  20420001	addi	r2,r2,#1
 4187  00004328          	L270_LF4:
 4188  00004328  001f0820	add	r1,r0,r31
 4189  0000432c  23ffffff	addi	r31,r31,#-1
 4190  00004330  6c210000	sgti	r1,r1,#0
 4191  00004334  1420ffe4	bnez	r1,L268_LF4
 4192  00004338  54000000	nop; not filled.
 4193  0000433c  8fa20000	lw	r2,0(r29)
 4194  00004340  8fa30004	lw	r3,4(r29)
 4195  00004344  8fdffff8	lw	r31,-8(r30)
 4196  00004348  001ee820	add	r29,r0,r30
 4197  0000434c  8fdefffc	lw	r30,-4(r30)
 4198  00004350  4be00000	jr	r31
 4199  00004354  54000000	nop
 4200  00004358          	.endproc _bzero
 4201                      ; Compiled by GCC
 4203  00004358          	.align 2
 4204  00004358          	.proc _isspace
 4205  00004358          	.global _isspace
 4206  00004358          	_isspace:
 4207                      ;  Function 'isspace'; 0 bytes of locals, 1 regs to save.
 4208  00004358  afbefffc	sw	-4(r29),r30; push fp
 4209  0000435c  001df020	add	r30,r0,r29; fp = sp
 4210  00004360  afbffff8	sw	-8(r29),r31; push ret addr
 4211  00004364  2fbd0010	subui	r29,r29,#16; alloc local storage
 4212  00004368  afa20000	sw	0(r29),r2
 4213  0000436c  83c20003	lb	r2,3(r30)
 4214  00004370  201f0000	addi	r31,r0,#0
 4215  00004374  304100ff	andi	r1,r2,#0x00ff
 4216  00004378  60210020	seqi	r1,r1,#32
 4217  0000437c  14200018	bnez	r1,L6_LF5
 4218  00004380  54000000	nop; not filled.
 4219  00004384  2041fff7	addi	r1,r2,#-9
 4220  00004388  302100ff	andi	r1,r1,#0x00ff
 4221  0000438c  70210001	sleui	r1,r1,#1
 4222  00004390  10200008	beqz	r1,L5_LF5
 4223  00004394  54000000	nop; not filled.
 4224  00004398          	L6_LF5:
 4225  00004398  201f0001	addi	r31,r0,#1
 4226  0000439c          	L5_LF5:
 4227  0000439c  001f0820	add	r1,r0,r31
 4228  000043a0  8fa20000	lw	r2,0(r29)
 4229  000043a4  8fdffff8	lw	r31,-8(r30)
 4230  000043a8  001ee820	add	r29,r0,r30
 4231  000043ac  8fdefffc	lw	r30,-4(r30)
 4232  000043b0  4be00000	jr	r31
 4233  000043b4  54000000	nop
 4234  000043b8          	.endproc _isspace
 4235  000043b8          	.align 2
 4236  000043b8          	.proc _isxdigit
 4237  000043b8          	.global _isxdigit
 4238  000043b8          	_isxdigit:
 4239                      ;  Function 'isxdigit'; 0 bytes of locals, 1 regs to save.
 4240  000043b8  afbefffc	sw	-4(r29),r30; push fp
 4241  000043bc  001df020	add	r30,r0,r29; fp = sp
 4242  000043c0  afbffff8	sw	-8(r29),r31; push ret addr
 4243  000043c4  2fbd0010	subui	r29,r29,#16; alloc local storage
 4244  000043c8  afa20000	sw	0(r29),r2
 4245  000043cc  83df0003	lb	r31,3(r30)
 4246  000043d0  20020000	addi	r2,r0,#0
 4247  000043d4  23e1ffd0	addi	r1,r31,#-48
 4248  000043d8  302100ff	andi	r1,r1,#0x00ff
 4249  000043dc  70210009	sleui	r1,r1,#9
 4250  000043e0  14200028	bnez	r1,L12_LF5
 4251  000043e4  54000000	nop; not filled.
 4252  000043e8  23e1ff9f	addi	r1,r31,#-97
 4253  000043ec  302100ff	andi	r1,r1,#0x00ff
 4254  000043f0  70210005	sleui	r1,r1,#5
 4255  000043f4  14200014	bnez	r1,L12_LF5
 4256  000043f8  54000000	nop; not filled.
 4257  000043fc  33e100ff	andi	r1,r31,#0x00ff
 4258  00004400  64210041	snei	r1,r1,#65
 4259  00004404  14200008	bnez	r1,L11_LF5
 4260  00004408  54000000	nop; not filled.
 4261  0000440c          	L12_LF5:
 4262  0000440c  20020001	addi	r2,r0,#1
 4263  00004410          	L11_LF5:
 4264  00004410  00020820	add	r1,r0,r2
 4265  00004414  8fa20000	lw	r2,0(r29)
 4266  00004418  8fdffff8	lw	r31,-8(r30)
 4267  0000441c  001ee820	add	r29,r0,r30
 4268  00004420  8fdefffc	lw	r30,-4(r30)
 4269  00004424  4be00000	jr	r31
 4270  00004428  54000000	nop
 4271  0000442c          	.endproc _isxdigit
 4272  0000442c          	.align 2
 4273  0000442c          	.proc _DisableIntrs
 4274  0000442c          	.global _DisableIntrs
 4275  0000442c          	_DisableIntrs:
 4276                      ;  Function 'DisableIntrs'; 0 bytes of locals, 1 regs to save.
 4277  0000442c  afbefffc	sw	-4(r29),r30; push fp
 4278  00004430  001df020	add	r30,r0,r29; fp = sp
 4279  00004434  afbffff8	sw	-8(r29),r31; push ret addr
 4280  00004438  2fbd0010	subui	r29,r29,#16; alloc local storage
 4281  0000443c  afa20000	sw	0(r29),r2
 4282  00004440  23bdfff8	addi	r29,r29,#-8
 4283  00004444  2002000f	addi	r2,r0,#15
 4284  00004448  afa20000	sw	(r29),r2
 4285  0000444c  0fffce38	jal	_SetIntrs
 4286  00004450  54000000	nop; not filled.
 4287  00004454  23bd0008	addi	r29,r29,#8
 4288  00004458  8fa20000	lw	r2,0(r29)
 4289  0000445c  8fdffff8	lw	r31,-8(r30)
 4290  00004460  001ee820	add	r29,r0,r30
 4291  00004464  8fdefffc	lw	r30,-4(r30)
 4292  00004468  4be00000	jr	r31
 4293  0000446c  54000000	nop
 4294  00004470          	.endproc _DisableIntrs
 4295  00004470          	.align 2
 4296  00004470          	.proc _EnableIntrs
 4297  00004470          	.global _EnableIntrs
 4298  00004470          	_EnableIntrs:
 4299                      ;  Function 'EnableIntrs'; 0 bytes of locals, 1 regs to save.
 4300  00004470  afbefffc	sw	-4(r29),r30; push fp
 4301  00004474  001df020	add	r30,r0,r29; fp = sp
 4302  00004478  afbffff8	sw	-8(r29),r31; push ret addr
 4303  0000447c  2fbd0010	subui	r29,r29,#16; alloc local storage
 4304  00004480  afa20000	sw	0(r29),r2
 4305  00004484  23bdfff8	addi	r29,r29,#-8
 4306  00004488  20020000	addi	r2,r0,#0
 4307  0000448c  afa20000	sw	(r29),r2
 4308  00004490  0fffcdf4	jal	_SetIntrs
 4309  00004494  54000000	nop; not filled.
 4310  00004498  23bd0008	addi	r29,r29,#8
 4311  0000449c  8fa20000	lw	r2,0(r29)
 4312  000044a0  8fdffff8	lw	r31,-8(r30)
 4313  000044a4  001ee820	add	r29,r0,r30
 4314  000044a8  8fdefffc	lw	r30,-4(r30)
 4315  000044ac  4be00000	jr	r31
 4316  000044b0  54000000	nop
 4317  000044b4          	.endproc _EnableIntrs
 4318  000044b4          	.align 2
 4319  000044b4          	.proc _RestoreIntrs
 4320  000044b4          	.global _RestoreIntrs
 4321  000044b4          	_RestoreIntrs:
 4322                      ;  Function 'RestoreIntrs'; 0 bytes of locals, 1 regs to save.
 4323  000044b4  afbefffc	sw	-4(r29),r30; push fp
 4324  000044b8  001df020	add	r30,r0,r29; fp = sp
 4325  000044bc  afbffff8	sw	-8(r29),r31; push ret addr
 4326  000044c0  2fbd0010	subui	r29,r29,#16; alloc local storage
 4327  000044c4  afa20000	sw	0(r29),r2
 4328  000044c8  23bdfff8	addi	r29,r29,#-8
 4329  000044cc  8fc20000	lw	r2,(r30)
 4330  000044d0  afa20000	sw	(r29),r2
 4331  000044d4  0fffcdb0	jal	_SetIntrs
 4332  000044d8  54000000	nop; not filled.
 4333  000044dc  23bd0008	addi	r29,r29,#8
 4334  000044e0  8fa20000	lw	r2,0(r29)
 4335  000044e4  8fdffff8	lw	r31,-8(r30)
 4336  000044e8  001ee820	add	r29,r0,r30
 4337  000044ec  8fdefffc	lw	r30,-4(r30)
 4338  000044f0  4be00000	jr	r31
 4339  000044f4  54000000	nop
 4340  000044f8          	.endproc _RestoreIntrs
 4341  000044f8          	.align 2
 4342  000044f8          	.proc _QueueLinkInit
 4343  000044f8          	.global _QueueLinkInit
 4344  000044f8          	_QueueLinkInit:
 4345                      ;  Function 'QueueLinkInit'; 0 bytes of locals, 1 regs to save.
 4346  000044f8  afbefffc	sw	-4(r29),r30; push fp
 4347  000044fc  001df020	add	r30,r0,r29; fp = sp
 4348  00004500  afbffff8	sw	-8(r29),r31; push ret addr
 4349  00004504  2fbd0010	subui	r29,r29,#16; alloc local storage
 4350  00004508  afa20000	sw	0(r29),r2
 4351  0000450c  8fc10000	lw	r1,(r30)
 4352  00004510  8fc20004	lw	r2,4(r30)
 4353  00004514  201f0000	addi	r31,r0,#0
 4354  00004518  ac3f0000	sw	(r1),r31
 4355  0000451c  ac22000c	sw	12(r1),r2
 4356  00004520  8fa20000	lw	r2,0(r29)
 4357  00004524  8fdffff8	lw	r31,-8(r30)
 4358  00004528  001ee820	add	r29,r0,r30
 4359  0000452c  8fdefffc	lw	r30,-4(r30)
 4360  00004530  4be00000	jr	r31
 4361  00004534  54000000	nop
 4362  00004538          	.endproc _QueueLinkInit
 4363  00004538          	.align 2
 4364  00004538          	.proc _QueueNext
 4365  00004538          	.global _QueueNext
 4366  00004538          	_QueueNext:
 4367                      ;  Function 'QueueNext'; 0 bytes of locals, 0 regs to save.
 4368  00004538  afbefffc	sw	-4(r29),r30; push fp
 4369  0000453c  001df020	add	r30,r0,r29; fp = sp
 4370  00004540  afbffff8	sw	-8(r29),r31; push ret addr
 4371  00004544  2fbd0008	subui	r29,r29,#8; alloc local storage
 4372  00004548  8fc10000	lw	r1,(r30)
 4373  0000454c  8c210000	lw	r1,(r1)
 4374  00004550  8fdffff8	lw	r31,-8(r30)
 4375  00004554  001ee820	add	r29,r0,r30
 4376  00004558  8fdefffc	lw	r30,-4(r30)
 4377  0000455c  4be00000	jr	r31
 4378  00004560  54000000	nop
 4379  00004564          	.endproc _QueueNext
 4380  00004564          	.align 2
 4381  00004564          	.proc _QueuePrev
 4382  00004564          	.global _QueuePrev
 4383  00004564          	_QueuePrev:
 4384                      ;  Function 'QueuePrev'; 0 bytes of locals, 0 regs to save.
 4385  00004564  afbefffc	sw	-4(r29),r30; push fp
 4386  00004568  001df020	add	r30,r0,r29; fp = sp
 4387  0000456c  afbffff8	sw	-8(r29),r31; push ret addr
 4388  00004570  2fbd0008	subui	r29,r29,#8; alloc local storage
 4389  00004574  8fc10000	lw	r1,(r30)
 4390  00004578  8c210004	lw	r1,4(r1)
 4391  0000457c  8fdffff8	lw	r31,-8(r30)
 4392  00004580  001ee820	add	r29,r0,r30
 4393  00004584  8fdefffc	lw	r30,-4(r30)
 4394  00004588  4be00000	jr	r31
 4395  0000458c  54000000	nop
 4396  00004590          	.endproc _QueuePrev
 4397  00004590          	.align 2
 4398  00004590          	.proc _QueueFirst
 4399  00004590          	.global _QueueFirst
 4400  00004590          	_QueueFirst:
 4401                      ;  Function 'QueueFirst'; 0 bytes of locals, 0 regs to save.
 4402  00004590  afbefffc	sw	-4(r29),r30; push fp
 4403  00004594  001df020	add	r30,r0,r29; fp = sp
 4404  00004598  afbffff8	sw	-8(r29),r31; push ret addr
 4405  0000459c  2fbd0008	subui	r29,r29,#8; alloc local storage
 4406  000045a0  8fc10000	lw	r1,(r30)
 4407  000045a4  8c210000	lw	r1,(r1)
 4408  000045a8  8fdffff8	lw	r31,-8(r30)
 4409  000045ac  001ee820	add	r29,r0,r30
 4410  000045b0  8fdefffc	lw	r30,-4(r30)
 4411  000045b4  4be00000	jr	r31
 4412  000045b8  54000000	nop
 4413  000045bc          	.endproc _QueueFirst
 4414  000045bc          	.align 2
 4415  000045bc          	.proc _QueueLast
 4416  000045bc          	.global _QueueLast
 4417  000045bc          	_QueueLast:
 4418                      ;  Function 'QueueLast'; 0 bytes of locals, 0 regs to save.
 4419  000045bc  afbefffc	sw	-4(r29),r30; push fp
 4420  000045c0  001df020	add	r30,r0,r29; fp = sp
 4421  000045c4  afbffff8	sw	-8(r29),r31; push ret addr
 4422  000045c8  2fbd0008	subui	r29,r29,#8; alloc local storage
 4423  000045cc  8fc10000	lw	r1,(r30)
 4424  000045d0  8c210004	lw	r1,4(r1)
 4425  000045d4  8fdffff8	lw	r31,-8(r30)
 4426  000045d8  001ee820	add	r29,r0,r30
 4427  000045dc  8fdefffc	lw	r30,-4(r30)
 4428  000045e0  4be00000	jr	r31
 4429  000045e4  54000000	nop
 4430  000045e8          	.endproc _QueueLast
 4431  000045e8          	.align 2
 4432  000045e8          	.proc _QueueInsertAfter
 4433  000045e8          	.global _QueueInsertAfter
 4434  000045e8          	_QueueInsertAfter:
 4435                      ;  Function 'QueueInsertAfter'; 0 bytes of locals, 2 regs to save.
 4436  000045e8  afbefffc	sw	-4(r29),r30; push fp
 4437  000045ec  001df020	add	r30,r0,r29; fp = sp
 4438  000045f0  afbffff8	sw	-8(r29),r31; push ret addr
 4439  000045f4  2fbd0010	subui	r29,r29,#16; alloc local storage
 4440  000045f8  afa20000	sw	0(r29),r2
 4441  000045fc  afa30004	sw	4(r29),r3
 4442  00004600  8fc30000	lw	r3,(r30)
 4443  00004604  8fc20004	lw	r2,4(r30)
 4444  00004608  8fc10008	lw	r1,8(r30)
 4445  0000460c  ac230008	sw	8(r1),r3
 4446  00004610  ac220004	sw	4(r1),r2
 4447  00004614  8c5f0000	lw	r31,(r2)
 4448  00004618  ac3f0000	sw	(r1),r31
 4449  0000461c  ac410000	sw	(r2),r1
 4450  00004620  8c220000	lw	r2,(r1)
 4451  00004624  ac410004	sw	4(r2),r1
 4452  00004628  8c610008	lw	r1,8(r3)
 4453  0000462c  20210001	addi	r1,r1,#1
 4454  00004630  ac610008	sw	8(r3),r1
 4455  00004634  8fa20000	lw	r2,0(r29)
 4456  00004638  8fa30004	lw	r3,4(r29)
 4457  0000463c  8fdffff8	lw	r31,-8(r30)
 4458  00004640  001ee820	add	r29,r0,r30
 4459  00004644  8fdefffc	lw	r30,-4(r30)
 4460  00004648  4be00000	jr	r31
 4461  0000464c  54000000	nop
 4462  00004650          	.endproc _QueueInsertAfter
 4463  00004650          	.align 2
 4464  00004650          	.proc _QueueInsertFirst
 4465  00004650          	.global _QueueInsertFirst
 4466  00004650          	_QueueInsertFirst:
 4467                      ;  Function 'QueueInsertFirst'; 0 bytes of locals, 2 regs to save.
 4468  00004650  afbefffc	sw	-4(r29),r30; push fp
 4469  00004654  001df020	add	r30,r0,r29; fp = sp
 4470  00004658  afbffff8	sw	-8(r29),r31; push ret addr
 4471  0000465c  2fbd0010	subui	r29,r29,#16; alloc local storage
 4472  00004660  afa20000	sw	0(r29),r2
 4473  00004664  afa30004	sw	4(r29),r3
 4474  00004668  8fc30000	lw	r3,(r30)
 4475  0000466c  8fc10004	lw	r1,4(r30)
 4476  00004670  ac230008	sw	8(r1),r3
 4477  00004674  ac230004	sw	4(r1),r3
 4478  00004678  8c7f0000	lw	r31,(r3)
 4479  0000467c  ac3f0000	sw	(r1),r31
 4480  00004680  ac610000	sw	(r3),r1
 4481  00004684  8c220000	lw	r2,(r1)
 4482  00004688  ac410004	sw	4(r2),r1
 4483  0000468c  8c610008	lw	r1,8(r3)
 4484  00004690  20210001	addi	r1,r1,#1
 4485  00004694  ac610008	sw	8(r3),r1
 4486  00004698  8fa20000	lw	r2,0(r29)
 4487  0000469c  8fa30004	lw	r3,4(r29)
 4488  000046a0  8fdffff8	lw	r31,-8(r30)
 4489  000046a4  001ee820	add	r29,r0,r30
 4490  000046a8  8fdefffc	lw	r30,-4(r30)
 4491  000046ac  4be00000	jr	r31
 4492  000046b0  54000000	nop
 4493  000046b4          	.endproc _QueueInsertFirst
 4494  000046b4          	.align 2
 4495  000046b4          	.proc _QueueInsertLast
 4496  000046b4          	.global _QueueInsertLast
 4497  000046b4          	_QueueInsertLast:
 4498                      ;  Function 'QueueInsertLast'; 0 bytes of locals, 2 regs to save.
 4499  000046b4  afbefffc	sw	-4(r29),r30; push fp
 4500  000046b8  001df020	add	r30,r0,r29; fp = sp
 4501  000046bc  afbffff8	sw	-8(r29),r31; push ret addr
 4502  000046c0  2fbd0010	subui	r29,r29,#16; alloc local storage
 4503  000046c4  afa20000	sw	0(r29),r2
 4504  000046c8  afa30004	sw	4(r29),r3
 4505  000046cc  8fc30000	lw	r3,(r30)
 4506  000046d0  8fc10004	lw	r1,4(r30)
 4507  000046d4  8c620004	lw	r2,4(r3)
 4508  000046d8  ac230008	sw	8(r1),r3
 4509  000046dc  ac220004	sw	4(r1),r2
 4510  000046e0  8c5f0000	lw	r31,(r2)
 4511  000046e4  ac3f0000	sw	(r1),r31
 4512  000046e8  ac410000	sw	(r2),r1
 4513  000046ec  8c220000	lw	r2,(r1)
 4514  000046f0  ac410004	sw	4(r2),r1
 4515  000046f4  8c610008	lw	r1,8(r3)
 4516  000046f8  20210001	addi	r1,r1,#1
 4517  000046fc  ac610008	sw	8(r3),r1
 4518  00004700  8fa20000	lw	r2,0(r29)
 4519  00004704  8fa30004	lw	r3,4(r29)
 4520  00004708  8fdffff8	lw	r31,-8(r30)
 4521  0000470c  001ee820	add	r29,r0,r30
 4522  00004710  8fdefffc	lw	r30,-4(r30)
 4523  00004714  4be00000	jr	r31
 4524  00004718  54000000	nop
 4525  0000471c          	.endproc _QueueInsertLast
 4526  0000471c          	.align 2
 4527  0000471c          	.proc _QueueRemove
 4528  0000471c          	.global _QueueRemove
 4529  0000471c          	_QueueRemove:
 4530                      ;  Function 'QueueRemove'; 0 bytes of locals, 2 regs to save.
 4531  0000471c  afbefffc	sw	-4(r29),r30; push fp
 4532  00004720  001df020	add	r30,r0,r29; fp = sp
 4533  00004724  afbffff8	sw	-8(r29),r31; push ret addr
 4534  00004728  2fbd0010	subui	r29,r29,#16; alloc local storage
 4535  0000472c  afa20000	sw	0(r29),r2
 4536  00004730  afa30004	sw	4(r29),r3
 4537  00004734  8fdf0000	lw	r31,(r30)
 4538  00004738  8fe10008	lw	r1,8(r31)
 4539  0000473c  8c210008	lw	r1,8(r1)
 4540  00004740  6c210000	sgti	r1,r1,#0
 4541  00004744  1020002c	beqz	r1,L44_LF5
 4542  00004748  54000000	nop; not filled.
 4543  0000474c  8fe10004	lw	r1,4(r31)
 4544  00004750  8fe30000	lw	r3,(r31)
 4545  00004754  ac230000	sw	(r1),r3
 4546  00004758  8fe10000	lw	r1,(r31)
 4547  0000475c  8fe30004	lw	r3,4(r31)
 4548  00004760  ac230004	sw	4(r1),r3
 4549  00004764  8fe20008	lw	r2,8(r31)
 4550  00004768  8c410008	lw	r1,8(r2)
 4551  0000476c  2021ffff	addi	r1,r1,#-1
 4552  00004770  ac410008	sw	8(r2),r1
 4553  00004774          	L44_LF5:
 4554  00004774  20030000	addi	r3,r0,#0
 4555  00004778  afe30000	sw	(r31),r3
 4556  0000477c  8fa20000	lw	r2,0(r29)
 4557  00004780  8fa30004	lw	r3,4(r29)
 4558  00004784  8fdffff8	lw	r31,-8(r30)
 4559  00004788  001ee820	add	r29,r0,r30
 4560  0000478c  8fdefffc	lw	r30,-4(r30)
 4561  00004790  4be00000	jr	r31
 4562  00004794  54000000	nop
 4563  00004798          	.endproc _QueueRemove
 4564  00004798          	.align 2
 4565  00004798          	.proc _QueueLength
 4566  00004798          	.global _QueueLength
 4567  00004798          	_QueueLength:
 4568                      ;  Function 'QueueLength'; 0 bytes of locals, 0 regs to save.
 4569  00004798  afbefffc	sw	-4(r29),r30; push fp
 4570  0000479c  001df020	add	r30,r0,r29; fp = sp
 4571  000047a0  afbffff8	sw	-8(r29),r31; push ret addr
 4572  000047a4  2fbd0008	subui	r29,r29,#8; alloc local storage
 4573  000047a8  8fc10000	lw	r1,(r30)
 4574  000047ac  8c210008	lw	r1,8(r1)
 4575  000047b0  8fdffff8	lw	r31,-8(r30)
 4576  000047b4  001ee820	add	r29,r0,r30
 4577  000047b8  8fdefffc	lw	r30,-4(r30)
 4578  000047bc  4be00000	jr	r31
 4579  000047c0  54000000	nop
 4580  000047c4          	.endproc _QueueLength
 4581  000047c4          	.align 2
 4582  000047c4          	.proc _QueueEmpty
 4583  000047c4          	.global _QueueEmpty
 4584  000047c4          	_QueueEmpty:
 4585                      ;  Function 'QueueEmpty'; 0 bytes of locals, 0 regs to save.
 4586  000047c4  afbefffc	sw	-4(r29),r30; push fp
 4587  000047c8  001df020	add	r30,r0,r29; fp = sp
 4588  000047cc  afbffff8	sw	-8(r29),r31; push ret addr
 4589  000047d0  2fbd0008	subui	r29,r29,#8; alloc local storage
 4590  000047d4  8fc10000	lw	r1,(r30)
 4591  000047d8  8c210008	lw	r1,8(r1)
 4592  000047dc  60210000	seqi	r1,r1,#0
 4593  000047e0  8fdffff8	lw	r31,-8(r30)
 4594  000047e4  001ee820	add	r29,r0,r30
 4595  000047e8  8fdefffc	lw	r30,-4(r30)
 4596  000047ec  4be00000	jr	r31
 4597  000047f0  54000000	nop
 4598  000047f4          	.endproc _QueueEmpty
 4599  000047f4          	.data
 4600  0000e478          	.align 2
 4601  0000e478          	_processQuantum_LF5:
 4602  0000e478  00002710	.word 10000
 4603  0000e47c          	.align 2
 4604  0000e47c          	LC0_LF5:
 4605  0000e47c  456e7465	.ascii "Entering ProcessModuleInit\n\000"
 4605  0000e480  72696e67	
 4605  0000e484  2050726f	
 4605  0000e488  63657373	
 4605  0000e48c  4d6f6475	
 4605  0000e490  6c65496e	
 4605  0000e494  69740a00	
 4606  0000e498          	.align 2
 4607  0000e498          	LC1_LF5:
 4608  0000e498  496e6974	.ascii "Initializing PCB %d @ 0x%x.\n\000"
 4608  0000e49c  69616c69	
 4608  0000e4a0  7a696e67	
 4608  0000e4a4  20504342	
 4608  0000e4a8  20256420	
 4608  0000e4ac  40203078	
 4608  0000e4b0  25782e0a	
 4608  0000e4b4  00      	
 4609  0000e4b5          	.align 2
 4610  0000e4b8          	LC2_LF5:
 4611  0000e4b8  4c656176	.ascii "Leaving ProcessModuleInit\n\000"
 4611  0000e4bc  696e6720	
 4611  0000e4c0  50726f63	
 4611  0000e4c4  6573734d	
 4611  0000e4c8  6f64756c	
 4611  0000e4cc  65496e69	
 4611  0000e4d0  740a00  	
 4612  0000e4d3          	.text
 4613  000047f4          	.align 2
 4614  000047f4          	.proc _ProcessModuleInit
 4615  000047f4          	.global _ProcessModuleInit
 4616  000047f4          	_ProcessModuleInit:
 4617                      ;  Function 'ProcessModuleInit'; 0 bytes of locals, 7 regs to save.
 4618  000047f4  afbefffc	sw	-4(r29),r30; push fp
 4619  000047f8  001df020	add	r30,r0,r29; fp = sp
 4620  000047fc  afbffff8	sw	-8(r29),r31; push ret addr
 4621  00004800  2fbd0028	subui	r29,r29,#40; alloc local storage
 4622  00004804  afa20000	sw	0(r29),r2
 4623  00004808  afa30004	sw	4(r29),r3
 4624  0000480c  afa40008	sw	8(r29),r4
 4625  00004810  afa5000c	sw	12(r29),r5
 4626  00004814  afa60010	sw	16(r29),r6
 4627  00004818  afa70014	sw	20(r29),r7
 4628  0000481c  afa80018	sw	24(r29),r8
 4629  00004820  23bdfff8	addi	r29,r29,#-8
 4630  00004824  3c020000	lhi	r2,((_debugstr)>>16)&0xffff
 4631  00004828  2442ef7c	addui	r2,r2,(_debugstr)&0xffff
 4632  0000482c  afa20000	sw	(r29),r2
 4633  00004830  20080070	addi	r8,r0,#112
 4634  00004834  afa80004	sw	4(r29),r8
 4635  00004838  0ffff6b4	jal	_dindex
 4636  0000483c  54000000	nop; not filled.
 4637  00004840  23bd0008	addi	r29,r29,#8
 4638  00004844  64210000	snei	r1,r1,#0
 4639  00004848  1420002c	bnez	r1,L53_LF5
 4640  0000484c  54000000	nop; not filled.
 4641  00004850  23bdfff8	addi	r29,r29,#-8
 4642  00004854  afa20000	sw	(r29),r2
 4643  00004858  2008002b	addi	r8,r0,#43
 4644  0000485c  afa80004	sw	4(r29),r8
 4645  00004860  0ffff68c	jal	_dindex
 4646  00004864  54000000	nop; not filled.
 4647  00004868  23bd0008	addi	r29,r29,#8
 4648  0000486c  64210000	snei	r1,r1,#0
 4649  00004870  10200020	beqz	r1,L52_LF5
 4650  00004874  54000000	nop; not filled.
 4651  00004878          	L53_LF5:
 4652  00004878  23bdfff8	addi	r29,r29,#-8
 4653  0000487c  3c080000	lhi	r8,((LC0_LF5)>>16)&0xffff
 4654  00004880  2508e47c	addui	r8,r8,(LC0_LF5)&0xffff
 4655  00004884  afa80000	sw	(r29),r8
 4656  00004888  0c006c6c	jal	_printf
 4657  0000488c  54000000	nop; not filled.
 4658  00004890  23bd0008	addi	r29,r29,#8
 4659  00004894          	L52_LF5:
 4660  00004894  23bdfff8	addi	r29,r29,#-8
 4661  00004898  3c020000	lhi	r2,((_freepcbs_LF5)>>16)&0xffff
 4662  0000489c  2442f048	addui	r2,r2,(_freepcbs_LF5)&0xffff
 4663  000048a0  afa20000	sw	(r29),r2
 4664  000048a4  0c003d00	jal	_QueueInit
 4665  000048a8  54000000	nop; not filled.
 4666  000048ac  3c080000	lhi	r8,((_runQueue_LF5)>>16)&0xffff
 4667  000048b0  2508f054	addui	r8,r8,(_runQueue_LF5)&0xffff
 4668  000048b4  afa80000	sw	(r29),r8
 4669  000048b8  0c003cec	jal	_QueueInit
 4670  000048bc  54000000	nop; not filled.
 4671  000048c0  3c080000	lhi	r8,((_waitQueue_LF5)>>16)&0xffff
 4672  000048c4  2508f060	addui	r8,r8,(_waitQueue_LF5)&0xffff
 4673  000048c8  afa80000	sw	(r29),r8
 4674  000048cc  0c003cd8	jal	_QueueInit
 4675  000048d0  54000000	nop; not filled.
 4676  000048d4  3c080000	lhi	r8,((_zombieQueue_LF5)>>16)&0xffff
 4677  000048d8  2508f06c	addui	r8,r8,(_zombieQueue_LF5)&0xffff
 4678  000048dc  afa80000	sw	(r29),r8
 4679  000048e0  0c003cc4	jal	_QueueInit
 4680  000048e4  54000000	nop; not filled.
 4681  000048e8  20040000	addi	r4,r0,#0
 4682  000048ec  23bd0008	addi	r29,r29,#8
 4683  000048f0  3c070000	lhi	r7,((_debugstr)>>16)&0xffff
 4684  000048f4  24e7ef7c	addui	r7,r7,(_debugstr)&0xffff
 4685  000048f8  3c010000	lhi	r1,((_pcbs_LF5)>>16)&0xffff
 4686  000048fc  2421f078	addui	r1,r1,(_pcbs_LF5)&0xffff
 4687  00004900  00022820	add	r5,r0,r2
 4688  00004904  20220164	addi	r2,r1,#356
 4689  00004908  00011820	add	r3,r0,r1
 4690  0000490c  00033020	add	r6,r0,r3
 4691  00004910          	L57_LF5:
 4692  00004910  23bdfff8	addi	r29,r29,#-8
 4693  00004914  afa70000	sw	(r29),r7
 4694  00004918  20080070	addi	r8,r0,#112
 4695  0000491c  afa80004	sw	4(r29),r8
 4696  00004920  0ffff5cc	jal	_dindex
 4697  00004924  54000000	nop; not filled.
 4698  00004928  23bd0008	addi	r29,r29,#8
 4699  0000492c  64210000	snei	r1,r1,#0
 4700  00004930  1420002c	bnez	r1,L59_LF5
 4701  00004934  54000000	nop; not filled.
 4702  00004938  23bdfff8	addi	r29,r29,#-8
 4703  0000493c  afa70000	sw	(r29),r7
 4704  00004940  2008002b	addi	r8,r0,#43
 4705  00004944  afa80004	sw	4(r29),r8
 4706  00004948  0ffff5a4	jal	_dindex
 4707  0000494c  54000000	nop; not filled.
 4708  00004950  23bd0008	addi	r29,r29,#8
 4709  00004954  64210000	snei	r1,r1,#0
 4710  00004958  10200028	beqz	r1,L58_LF5
 4711  0000495c  54000000	nop; not filled.
 4712  00004960          	L59_LF5:
 4713  00004960  23bdfff0	addi	r29,r29,#-16
 4714  00004964  3c080000	lhi	r8,((LC1_LF5)>>16)&0xffff
 4715  00004968  2508e498	addui	r8,r8,(LC1_LF5)&0xffff
 4716  0000496c  afa80000	sw	(r29),r8
 4717  00004970  afa40004	sw	4(r29),r4
 4718  00004974  afa60008	sw	8(r29),r6
 4719  00004978  0c006b7c	jal	_printf
 4720  0000497c  54000000	nop; not filled.
 4721  00004980  23bd0010	addi	r29,r29,#16
 4722  00004984          	L58_LF5:
 4723  00004984  20080001	addi	r8,r0,#1
 4724  00004988  ac68000c	sw	12(r3),r8
 4725  0000498c  20080000	addi	r8,r0,#0
 4726  00004990  ac480000	sw	(r2),r8
 4727  00004994  ac43000c	sw	12(r2),r3
 4728  00004998  ac450008	sw	8(r2),r5
 4729  0000499c  ac450004	sw	4(r2),r5
 4730  000049a0  8ca80000	lw	r8,(r5)
 4731  000049a4  ac480000	sw	(r2),r8
 4732  000049a8  aca20000	sw	(r5),r2
 4733  000049ac  8c410000	lw	r1,(r2)
 4734  000049b0  ac220004	sw	4(r1),r2
 4735  000049b4  8ca10008	lw	r1,8(r5)
 4736  000049b8  20210001	addi	r1,r1,#1
 4737  000049bc  aca10008	sw	8(r5),r1
 4738  000049c0  20420174	addi	r2,r2,#372
 4739  000049c4  20630174	addi	r3,r3,#372
 4740  000049c8  20c60174	addi	r6,r6,#372
 4741  000049cc  20840001	addi	r4,r4,#1
 4742  000049d0  7081001f	slei	r1,r4,#31
 4743  000049d4  1420ff38	bnez	r1,L57_LF5
 4744  000049d8  54000000	nop; not filled.
 4745  000049dc  3c010000	lhi	r1,((_currentPCB)>>16)&0xffff
 4746  000049e0  2421f044	addui	r1,r1,(_currentPCB)&0xffff
 4747  000049e4  20080000	addi	r8,r0,#0
 4748  000049e8  ac280000	sw	(r1),r8
 4749  000049ec  23bdfff8	addi	r29,r29,#-8
 4750  000049f0  3c020000	lhi	r2,((_debugstr)>>16)&0xffff
 4751  000049f4  2442ef7c	addui	r2,r2,(_debugstr)&0xffff
 4752  000049f8  afa20000	sw	(r29),r2
 4753  000049fc  20080070	addi	r8,r0,#112
 4754  00004a00  afa80004	sw	4(r29),r8
 4755  00004a04  0ffff4e8	jal	_dindex
 4756  00004a08  54000000	nop; not filled.
 4757  00004a0c  23bd0008	addi	r29,r29,#8
 4758  00004a10  64210000	snei	r1,r1,#0
 4759  00004a14  1420002c	bnez	r1,L65_LF5
 4760  00004a18  54000000	nop; not filled.
 4761  00004a1c  23bdfff8	addi	r29,r29,#-8
 4762  00004a20  afa20000	sw	(r29),r2
 4763  00004a24  2008002b	addi	r8,r0,#43
 4764  00004a28  afa80004	sw	4(r29),r8
 4765  00004a2c  0ffff4c0	jal	_dindex
 4766  00004a30  54000000	nop; not filled.
 4767  00004a34  23bd0008	addi	r29,r29,#8
 4768  00004a38  64210000	snei	r1,r1,#0
 4769  00004a3c  10200020	beqz	r1,L64_LF5
 4770  00004a40  54000000	nop; not filled.
 4771  00004a44          	L65_LF5:
 4772  00004a44  23bdfff8	addi	r29,r29,#-8
 4773  00004a48  3c080000	lhi	r8,((LC2_LF5)>>16)&0xffff
 4774  00004a4c  2508e4b8	addui	r8,r8,(LC2_LF5)&0xffff
 4775  00004a50  afa80000	sw	(r29),r8
 4776  00004a54  0c006aa0	jal	_printf
 4777  00004a58  54000000	nop; not filled.
 4778  00004a5c  23bd0008	addi	r29,r29,#8
 4779  00004a60          	L64_LF5:
 4780  00004a60  8fa20000	lw	r2,0(r29)
 4781  00004a64  8fa30004	lw	r3,4(r29)
 4782  00004a68  8fa40008	lw	r4,8(r29)
 4783  00004a6c  8fa5000c	lw	r5,12(r29)
 4784  00004a70  8fa60010	lw	r6,16(r29)
 4785  00004a74  8fa70014	lw	r7,20(r29)
 4786  00004a78  8fa80018	lw	r8,24(r29)
 4787  00004a7c  8fdffff8	lw	r31,-8(r30)
 4788  00004a80  001ee820	add	r29,r0,r30
 4789  00004a84  8fdefffc	lw	r30,-4(r30)
 4790  00004a88  4be00000	jr	r31
 4791  00004a8c  54000000	nop
 4792  00004a90          	.endproc _ProcessModuleInit
 4793  00004a90          	.align 2
 4794  00004a90          	.proc _ProcessSetStatus
 4795  00004a90          	.global _ProcessSetStatus
 4796  00004a90          	_ProcessSetStatus:
 4797                      ;  Function 'ProcessSetStatus'; 0 bytes of locals, 2 regs to save.
 4798  00004a90  afbefffc	sw	-4(r29),r30; push fp
 4799  00004a94  001df020	add	r30,r0,r29; fp = sp
 4800  00004a98  afbffff8	sw	-8(r29),r31; push ret addr
 4801  00004a9c  2fbd0010	subui	r29,r29,#16; alloc local storage
 4802  00004aa0  afa20000	sw	0(r29),r2
 4803  00004aa4  afa30004	sw	4(r29),r3
 4804  00004aa8  8fc30000	lw	r3,(r30)
 4805  00004aac  8fc20004	lw	r2,4(r30)
 4806  00004ab0  8c61000c	lw	r1,12(r3)
 4807  00004ab4  201fffc0	addi	r31,r0,#-64
 4808  00004ab8  003f0824	and	r1,r1,r31
 4809  00004abc  00220825	or	r1,r1,r2
 4810  00004ac0  ac61000c	sw	12(r3),r1
 4811  00004ac4  8fa20000	lw	r2,0(r29)
 4812  00004ac8  8fa30004	lw	r3,4(r29)
 4813  00004acc  8fdffff8	lw	r31,-8(r30)
 4814  00004ad0  001ee820	add	r29,r0,r30
 4815  00004ad4  8fdefffc	lw	r30,-4(r30)
 4816  00004ad8  4be00000	jr	r31
 4817  00004adc  54000000	nop
 4818  00004ae0          	.endproc _ProcessSetStatus
 4819  00004ae0          	.data
 4820  0000e4d3          	.align 2
 4821  0000e4d4          	LC3_LF5:
 4822  0000e4d4  4265666f	.ascii "Before freeing resource,  npages: %d\n\000"
 4822  0000e4d8  72652066	
 4822  0000e4dc  72656569	
 4822  0000e4e0  6e672072	
 4822  0000e4e4  65736f75	
 4822  0000e4e8  7263652c	
 4822  0000e4ec  20206e70	
 4822  0000e4f0  61676573	
 4822  0000e4f4  3a202564	
 4822  0000e4f8  0a00    	
 4823  0000e4fa          	.align 2
 4824  0000e4fc          	LC4_LF5:
 4825  0000e4fc  41667465	.ascii "After freeing resource, npages: %d\n\000"
 4825  0000e500  72206672	
 4825  0000e504  6565696e	
 4825  0000e508  67207265	
 4825  0000e50c  736f7572	
 4825  0000e510  63652c20	
 4825  0000e514  6e706167	
 4825  0000e518  65733a20	
 4825  0000e51c  25640a00	
 4826  0000e520          	.text
 4827  00004ae0          	.align 2
 4828  00004ae0          	.proc _ProcessFreeResources
 4829  00004ae0          	.global _ProcessFreeResources
 4830  00004ae0          	_ProcessFreeResources:
 4831                      ;  Function 'ProcessFreeResources'; 0 bytes of locals, 5 regs to save.
 4832  00004ae0  afbefffc	sw	-4(r29),r30; push fp
 4833  00004ae4  001df020	add	r30,r0,r29; fp = sp
 4834  00004ae8  afbffff8	sw	-8(r29),r31; push ret addr
 4835  00004aec  2fbd0020	subui	r29,r29,#32; alloc local storage
 4836  00004af0  afa20000	sw	0(r29),r2
 4837  00004af4  afa30004	sw	4(r29),r3
 4838  00004af8  afa40008	sw	8(r29),r4
 4839  00004afc  afa5000c	sw	12(r29),r5
 4840  00004b00  afa60010	sw	16(r29),r6
 4841  00004b04  8fc40000	lw	r4,(r30)
 4842  00004b08  3c030000	lhi	r3,((_freepcbs_LF5)>>16)&0xffff
 4843  00004b0c  2463f048	addui	r3,r3,(_freepcbs_LF5)&0xffff
 4844  00004b10  20820164	addi	r2,r4,#356
 4845  00004b14  8c610004	lw	r1,4(r3)
 4846  00004b18  ac83016c	sw	364(r4),r3
 4847  00004b1c  ac810168	sw	360(r4),r1
 4848  00004b20  8c260000	lw	r6,(r1)
 4849  00004b24  ac460000	sw	(r2),r6
 4850  00004b28  ac220000	sw	(r1),r2
 4851  00004b2c  8c410000	lw	r1,(r2)
 4852  00004b30  ac220004	sw	4(r1),r2
 4853  00004b34  8c610008	lw	r1,8(r3)
 4854  00004b38  20210001	addi	r1,r1,#1
 4855  00004b3c  ac610008	sw	8(r3),r1
 4856  00004b40  00041820	add	r3,r0,r4
 4857  00004b44  208500fc	addi	r5,r4,#252
 4858  00004b48          	L86_LF5:
 4859  00004b48  20620060	addi	r2,r3,#96
 4860  00004b4c  8c410000	lw	r1,(r2)
 4861  00004b50  30210001	andi	r1,r1,#1
 4862  00004b54  10200060	beqz	r1,L85_LF5
 4863  00004b58  54000000	nop; not filled.
 4864  00004b5c  23bdfff8	addi	r29,r29,#-8
 4865  00004b60  3c060000	lhi	r6,((LC3_LF5)>>16)&0xffff
 4866  00004b64  24c6e4d4	addui	r6,r6,(LC3_LF5)&0xffff
 4867  00004b68  afa60000	sw	(r29),r6
 4868  00004b6c  8c810160	lw	r1,352(r4)
 4869  00004b70  afa10004	sw	4(r29),r1
 4870  00004b74  0c006980	jal	_printf
 4871  00004b78  54000000	nop; not filled.
 4872  00004b7c  8c420000	lw	r2,(r2)
 4873  00004b80  afa20000	sw	(r29),r2
 4874  00004b84  0fffec0c	jal	_MemoryFreePte
 4875  00004b88  54000000	nop; not filled.
 4876  00004b8c  8c810160	lw	r1,352(r4)
 4877  00004b90  2021ffff	addi	r1,r1,#-1
 4878  00004b94  ac810160	sw	352(r4),r1
 4879  00004b98  3c060000	lhi	r6,((LC4_LF5)>>16)&0xffff
 4880  00004b9c  24c6e4fc	addui	r6,r6,(LC4_LF5)&0xffff
 4881  00004ba0  afa60000	sw	(r29),r6
 4882  00004ba4  8c810160	lw	r1,352(r4)
 4883  00004ba8  afa10004	sw	4(r29),r1
 4884  00004bac  0c006948	jal	_printf
 4885  00004bb0  54000000	nop; not filled.
 4886  00004bb4  23bd0008	addi	r29,r29,#8
 4887  00004bb8          	L85_LF5:
 4888  00004bb8  20630004	addi	r3,r3,#4
 4889  00004bbc  0065082c	sle	r1,r3,r5
 4890  00004bc0  1420ff84	bnez	r1,L86_LF5
 4891  00004bc4  54000000	nop; not filled.
 4892  00004bc8  23bdfff8	addi	r29,r29,#-8
 4893  00004bcc  8c810008	lw	r1,8(r4)
 4894  00004bd0  5821000d	srli	r1,r1,#0xd
 4895  00004bd4  afa10000	sw	(r29),r1
 4896  00004bd8  0fffe634	jal	_MemoryFreePage
 4897  00004bdc  54000000	nop; not filled.
 4898  00004be0  23bd0008	addi	r29,r29,#8
 4899  00004be4  8c81000c	lw	r1,12(r4)
 4900  00004be8  2006ffc0	addi	r6,r0,#-64
 4901  00004bec  00260824	and	r1,r1,r6
 4902  00004bf0  34210001	ori	r1,r1,#1
 4903  00004bf4  ac81000c	sw	12(r4),r1
 4904  00004bf8  8fa20000	lw	r2,0(r29)
 4905  00004bfc  8fa30004	lw	r3,4(r29)
 4906  00004c00  8fa40008	lw	r4,8(r29)
 4907  00004c04  8fa5000c	lw	r5,12(r29)
 4908  00004c08  8fa60010	lw	r6,16(r29)
 4909  00004c0c  8fdffff8	lw	r31,-8(r30)
 4910  00004c10  001ee820	add	r29,r0,r30
 4911  00004c14  8fdefffc	lw	r30,-4(r30)
 4912  00004c18  4be00000	jr	r31
 4913  00004c1c  54000000	nop
 4914  00004c20          	.endproc _ProcessFreeResources
 4915  00004c20          	.align 2
 4916  00004c20          	.proc _ProcessSetResult
 4917  00004c20          	.global _ProcessSetResult
 4918  00004c20          	_ProcessSetResult:
 4919                      ;  Function 'ProcessSetResult'; 0 bytes of locals, 0 regs to save.
 4920  00004c20  afbefffc	sw	-4(r29),r30; push fp
 4921  00004c24  001df020	add	r30,r0,r29; fp = sp
 4922  00004c28  afbffff8	sw	-8(r29),r31; push ret addr
 4923  00004c2c  2fbd0008	subui	r29,r29,#8; alloc local storage
 4924  00004c30  8fc10000	lw	r1,(r30)
 4925  00004c34  8c210000	lw	r1,(r1)
 4926  00004c38  8fdf0004	lw	r31,4(r30)
 4927  00004c3c  ac3f002c	sw	44(r1),r31
 4928  00004c40  8fdffff8	lw	r31,-8(r30)
 4929  00004c44  001ee820	add	r29,r0,r30
 4930  00004c48  8fdefffc	lw	r30,-4(r30)
 4931  00004c4c  4be00000	jr	r31
 4932  00004c50  54000000	nop
 4933  00004c54          	.endproc _ProcessSetResult
 4934  00004c54          	.data
 4935  0000e520          	.align 2
 4936  0000e520          	LC5_LF5:
 4937  0000e520  4e6f7720	.ascii "Now entering ProcessSchedule (cur=0x%x, %d ready)\n\000"
 4937  0000e524  656e7465	
 4937  0000e528  72696e67	
 4937  0000e52c  2050726f	
 4937  0000e530  63657373	
 4937  0000e534  53636865	
 4937  0000e538  64756c65	
 4937  0000e53c  20286375	
 4937  0000e540  723d3078	
 4937  0000e544  25782c20	
 4937  0000e548  25642072	
 4937  0000e54c  65616479	
 4937  0000e550  290a00  	
 4938  0000e553          	.align 2
 4939  0000e554          	LC6_LF5:
 4940  0000e554  4e6f2072	.ascii "No runnable processes - exiting!\n\000"
 4940  0000e558  756e6e61	
 4940  0000e55c  626c6520	
 4940  0000e560  70726f63	
 4940  0000e564  65737365	
 4940  0000e568  73202d20	
 4940  0000e56c  65786974	
 4940  0000e570  696e6721	
 4940  0000e574  0a00    	
 4941  0000e576          	.align 2
 4942  0000e578          	LC7_LF5:
 4943  0000e578  41626f75	.ascii "About to switch to PCB 0x%x,flags=0x%x @ 0x%x\n\000"
 4943  0000e57c  7420746f	
 4943  0000e580  20737769	
 4943  0000e584  74636820	
 4943  0000e588  746f2050	
 4943  0000e58c  43422030	
 4943  0000e590  7825782c	
 4943  0000e594  666c6167	
 4943  0000e598  733d3078	
 4943  0000e59c  25782040	
 4943  0000e5a0  20307825	
 4943  0000e5a4  780a00  	
 4944  0000e5a7          	.align 2
 4945  0000e5a8          	LC8_LF5:
 4946  0000e5a8  46726565	.ascii "Freeing zombie PCB 0x%x.\n\000"
 4946  0000e5ac  696e6720	
 4946  0000e5b0  7a6f6d62	
 4946  0000e5b4  69652050	
 4946  0000e5b8  43422030	
 4946  0000e5bc  7825782e	
 4946  0000e5c0  0a00    	
 4947  0000e5c2          	.align 2
 4948  0000e5c4          	LC9_LF5:
 4949  0000e5c4  4c656176	.ascii "Leaving ProcessSchedule (cur=0x%x)\n\000"
 4949  0000e5c8  696e6720	
 4949  0000e5cc  50726f63	
 4949  0000e5d0  65737353	
 4949  0000e5d4  63686564	
 4949  0000e5d8  756c6520	
 4949  0000e5dc  28637572	
 4949  0000e5e0  3d307825	
 4949  0000e5e4  78290a00	
 4950  0000e5e8          	.text
 4951  00004c54          	.align 2
 4952  00004c54          	.proc _ProcessSchedule
 4953  00004c54          	.global _ProcessSchedule
 4954  00004c54          	_ProcessSchedule:
 4955                      ;  Function 'ProcessSchedule'; 0 bytes of locals, 8 regs to save.
 4956  00004c54  afbefffc	sw	-4(r29),r30; push fp
 4957  00004c58  001df020	add	r30,r0,r29; fp = sp
 4958  00004c5c  afbffff8	sw	-8(r29),r31; push ret addr
 4959  00004c60  2fbd0028	subui	r29,r29,#40; alloc local storage
 4960  00004c64  afa20000	sw	0(r29),r2
 4961  00004c68  afa30004	sw	4(r29),r3
 4962  00004c6c  afa40008	sw	8(r29),r4
 4963  00004c70  afa5000c	sw	12(r29),r5
 4964  00004c74  afa60010	sw	16(r29),r6
 4965  00004c78  afa70014	sw	20(r29),r7
 4966  00004c7c  afa80018	sw	24(r29),r8
 4967  00004c80  afa9001c	sw	28(r29),r9
 4968  00004c84  23bdfff8	addi	r29,r29,#-8
 4969  00004c88  3c020000	lhi	r2,((_debugstr)>>16)&0xffff
 4970  00004c8c  2442ef7c	addui	r2,r2,(_debugstr)&0xffff
 4971  00004c90  afa20000	sw	(r29),r2
 4972  00004c94  20090070	addi	r9,r0,#112
 4973  00004c98  afa90004	sw	4(r29),r9
 4974  00004c9c  0ffff250	jal	_dindex
 4975  00004ca0  54000000	nop; not filled.
 4976  00004ca4  23bd0008	addi	r29,r29,#8
 4977  00004ca8  64210000	snei	r1,r1,#0
 4978  00004cac  1420002c	bnez	r1,L94_LF5
 4979  00004cb0  54000000	nop; not filled.
 4980  00004cb4  23bdfff8	addi	r29,r29,#-8
 4981  00004cb8  afa20000	sw	(r29),r2
 4982  00004cbc  2009002b	addi	r9,r0,#43
 4983  00004cc0  afa90004	sw	4(r29),r9
 4984  00004cc4  0ffff228	jal	_dindex
 4985  00004cc8  54000000	nop; not filled.
 4986  00004ccc  23bd0008	addi	r29,r29,#8
 4987  00004cd0  64210000	snei	r1,r1,#0
 4988  00004cd4  10200040	beqz	r1,L93_LF5
 4989  00004cd8  54000000	nop; not filled.
 4990  00004cdc          	L94_LF5:
 4991  00004cdc  3c010000	lhi	r1,((_runQueue_LF5)>>16)&0xffff
 4992  00004ce0  2421f054	addui	r1,r1,(_runQueue_LF5)&0xffff
 4993  00004ce4  8c220008	lw	r2,8(r1)
 4994  00004ce8  23bdfff0	addi	r29,r29,#-16
 4995  00004cec  3c090000	lhi	r9,((LC5_LF5)>>16)&0xffff
 4996  00004cf0  2529e520	addui	r9,r9,(LC5_LF5)&0xffff
 4997  00004cf4  afa90000	sw	(r29),r9
 4998  00004cf8  3c010000	lhi	r1,((_currentPCB)>>16)&0xffff
 4999  00004cfc  2421f044	addui	r1,r1,(_currentPCB)&0xffff
 5000  00004d00  8c210000	lw	r1,(r1)
 5001  00004d04  afa10004	sw	4(r29),r1
 5002  00004d08  afa20008	sw	8(r29),r2
 5003  00004d0c  0c0067e8	jal	_printf
 5004  00004d10  54000000	nop; not filled.
 5005  00004d14  23bd0010	addi	r29,r29,#16
 5006  00004d18          	L93_LF5:
 5007  00004d18  3c050000	lhi	r5,((_runQueue_LF5)>>16)&0xffff
 5008  00004d1c  24a5f054	addui	r5,r5,(_runQueue_LF5)&0xffff
 5009  00004d20  8ca10008	lw	r1,8(r5)
 5010  00004d24  60210000	seqi	r1,r1,#0
 5011  00004d28  10200028	beqz	r1,L96_LF5
 5012  00004d2c  54000000	nop; not filled.
 5013  00004d30  23bdfff8	addi	r29,r29,#-8
 5014  00004d34  3c090000	lhi	r9,((LC6_LF5)>>16)&0xffff
 5015  00004d38  2529e554	addui	r9,r9,(LC6_LF5)&0xffff
 5016  00004d3c  afa90000	sw	(r29),r9
 5017  00004d40  0c0067b4	jal	_printf
 5018  00004d44  54000000	nop; not filled.
 5019  00004d48  0c006794	jal	_exitsim
 5020  00004d4c  54000000	nop; not filled.
 5021  00004d50  23bd0008	addi	r29,r29,#8
 5022  00004d54          	L96_LF5:
 5023  00004d54  8ca10000	lw	r1,(r5)
 5024  00004d58  8c23000c	lw	r3,12(r1)
 5025  00004d5c  3c010000	lhi	r1,((_currentPCB)>>16)&0xffff
 5026  00004d60  2421f044	addui	r1,r1,(_currentPCB)&0xffff
 5027  00004d64  8c210000	lw	r1,(r1)
 5028  00004d68  00610828	seq	r1,r3,r1
 5029  00004d6c  10200078	beqz	r1,L100_LF5
 5030  00004d70  54000000	nop; not filled.
 5031  00004d74  20640164	addi	r4,r3,#356
 5032  00004d78  8c61016c	lw	r1,364(r3)
 5033  00004d7c  8c210008	lw	r1,8(r1)
 5034  00004d80  6c210000	sgti	r1,r1,#0
 5035  00004d84  1020002c	beqz	r1,L102_LF5
 5036  00004d88  54000000	nop; not filled.
 5037  00004d8c  8c610168	lw	r1,360(r3)
 5038  00004d90  8c890000	lw	r9,(r4)
 5039  00004d94  ac290000	sw	(r1),r9
 5040  00004d98  8c810000	lw	r1,(r4)
 5041  00004d9c  8c690168	lw	r9,360(r3)
 5042  00004da0  ac290004	sw	4(r1),r9
 5043  00004da4  8c62016c	lw	r2,364(r3)
 5044  00004da8  8c410008	lw	r1,8(r2)
 5045  00004dac  2021ffff	addi	r1,r1,#-1
 5046  00004db0  ac410008	sw	8(r2),r1
 5047  00004db4          	L102_LF5:
 5048  00004db4  20090000	addi	r9,r0,#0
 5049  00004db8  ac890000	sw	(r4),r9
 5050  00004dbc  8ca10004	lw	r1,4(r5)
 5051  00004dc0  ac65016c	sw	364(r3),r5
 5052  00004dc4  ac610168	sw	360(r3),r1
 5053  00004dc8  8c290000	lw	r9,(r1)
 5054  00004dcc  ac890000	sw	(r4),r9
 5055  00004dd0  ac240000	sw	(r1),r4
 5056  00004dd4  8c810000	lw	r1,(r4)
 5057  00004dd8  ac240004	sw	4(r1),r4
 5058  00004ddc  8ca10008	lw	r1,8(r5)
 5059  00004de0  20210001	addi	r1,r1,#1
 5060  00004de4  aca10008	sw	8(r5),r1
 5061  00004de8          	L100_LF5:
 5062  00004de8  3c010000	lhi	r1,((_runQueue_LF5)>>16)&0xffff
 5063  00004dec  2421f054	addui	r1,r1,(_runQueue_LF5)&0xffff
 5064  00004df0  8c210000	lw	r1,(r1)
 5065  00004df4  8c23000c	lw	r3,12(r1)
 5066  00004df8  3c010000	lhi	r1,((_currentPCB)>>16)&0xffff
 5067  00004dfc  2421f044	addui	r1,r1,(_currentPCB)&0xffff
 5068  00004e00  ac230000	sw	(r1),r3
 5069  00004e04  23bdfff8	addi	r29,r29,#-8
 5070  00004e08  3c020000	lhi	r2,((_debugstr)>>16)&0xffff
 5071  00004e0c  2442ef7c	addui	r2,r2,(_debugstr)&0xffff
 5072  00004e10  afa20000	sw	(r29),r2
 5073  00004e14  20090070	addi	r9,r0,#112
 5074  00004e18  afa90004	sw	4(r29),r9
 5075  00004e1c  0ffff0d0	jal	_dindex
 5076  00004e20  54000000	nop; not filled.
 5077  00004e24  23bd0008	addi	r29,r29,#8
 5078  00004e28  64210000	snei	r1,r1,#0
 5079  00004e2c  1420002c	bnez	r1,L108_LF5
 5080  00004e30  54000000	nop; not filled.
 5081  00004e34  23bdfff8	addi	r29,r29,#-8
 5082  00004e38  afa20000	sw	(r29),r2
 5083  00004e3c  2009002b	addi	r9,r0,#43
 5084  00004e40  afa90004	sw	4(r29),r9
 5085  00004e44  0ffff0a8	jal	_dindex
 5086  00004e48  54000000	nop; not filled.
 5087  00004e4c  23bd0008	addi	r29,r29,#8
 5088  00004e50  64210000	snei	r1,r1,#0
 5089  00004e54  10200038	beqz	r1,L107_LF5
 5090  00004e58  54000000	nop; not filled.
 5091  00004e5c          	L108_LF5:
 5092  00004e5c  23bdfff0	addi	r29,r29,#-16
 5093  00004e60  3c090000	lhi	r9,((LC7_LF5)>>16)&0xffff
 5094  00004e64  2529e578	addui	r9,r9,(LC7_LF5)&0xffff
 5095  00004e68  afa90000	sw	(r29),r9
 5096  00004e6c  afa30004	sw	4(r29),r3
 5097  00004e70  8c69000c	lw	r9,12(r3)
 5098  00004e74  afa90008	sw	8(r29),r9
 5099  00004e78  8c610004	lw	r1,4(r3)
 5100  00004e7c  8c210128	lw	r1,296(r1)
 5101  00004e80  afa1000c	sw	12(r29),r1
 5102  00004e84  0c006670	jal	_printf
 5103  00004e88  54000000	nop; not filled.
 5104  00004e8c  23bd0010	addi	r29,r29,#16
 5105  00004e90          	L107_LF5:
 5106  00004e90  3c080000	lhi	r8,((_zombieQueue_LF5)>>16)&0xffff
 5107  00004e94  2508f06c	addui	r8,r8,(_zombieQueue_LF5)&0xffff
 5108  00004e98  3c070000	lhi	r7,((_debugstr)>>16)&0xffff
 5109  00004e9c  24e7ef7c	addui	r7,r7,(_debugstr)&0xffff
 5110  00004ea0  3c060000	lhi	r6,((_freepcbs_LF5)>>16)&0xffff
 5111  00004ea4  24c6f048	addui	r6,r6,(_freepcbs_LF5)&0xffff
 5112  00004ea8          	L109_LF5:
 5113  00004ea8  8d010008	lw	r1,8(r8)
 5114  00004eac  60210000	seqi	r1,r1,#0
 5115  00004eb0  142001b0	bnez	r1,L110_LF5
 5116  00004eb4  54000000	nop; not filled.
 5117  00004eb8  8d010000	lw	r1,(r8)
 5118  00004ebc  8c23000c	lw	r3,12(r1)
 5119  00004ec0  23bdfff8	addi	r29,r29,#-8
 5120  00004ec4  afa70000	sw	(r29),r7
 5121  00004ec8  20090070	addi	r9,r0,#112
 5122  00004ecc  afa90004	sw	4(r29),r9
 5123  00004ed0  0ffff01c	jal	_dindex
 5124  00004ed4  54000000	nop; not filled.
 5125  00004ed8  23bd0008	addi	r29,r29,#8
 5126  00004edc  64210000	snei	r1,r1,#0
 5127  00004ee0  1420002c	bnez	r1,L116_LF5
 5128  00004ee4  54000000	nop; not filled.
 5129  00004ee8  23bdfff8	addi	r29,r29,#-8
 5130  00004eec  afa70000	sw	(r29),r7
 5131  00004ef0  2009002b	addi	r9,r0,#43
 5132  00004ef4  afa90004	sw	4(r29),r9
 5133  00004ef8  0fffeff4	jal	_dindex
 5134  00004efc  54000000	nop; not filled.
 5135  00004f00  23bd0008	addi	r29,r29,#8
 5136  00004f04  64210000	snei	r1,r1,#0
 5137  00004f08  10200024	beqz	r1,L115_LF5
 5138  00004f0c  54000000	nop; not filled.
 5139  00004f10          	L116_LF5:
 5140  00004f10  23bdfff8	addi	r29,r29,#-8
 5141  00004f14  3c090000	lhi	r9,((LC8_LF5)>>16)&0xffff
 5142  00004f18  2529e5a8	addui	r9,r9,(LC8_LF5)&0xffff
 5143  00004f1c  afa90000	sw	(r29),r9
 5144  00004f20  afa30004	sw	4(r29),r3
 5145  00004f24  0c0065d0	jal	_printf
 5146  00004f28  54000000	nop; not filled.
 5147  00004f2c  23bd0008	addi	r29,r29,#8
 5148  00004f30          	L115_LF5:
 5149  00004f30  207f0164	addi	r31,r3,#356
 5150  00004f34  8c61016c	lw	r1,364(r3)
 5151  00004f38  8c210008	lw	r1,8(r1)
 5152  00004f3c  6c210000	sgti	r1,r1,#0
 5153  00004f40  1020002c	beqz	r1,L118_LF5
 5154  00004f44  54000000	nop; not filled.
 5155  00004f48  8c610168	lw	r1,360(r3)
 5156  00004f4c  8fe90000	lw	r9,(r31)
 5157  00004f50  ac290000	sw	(r1),r9
 5158  00004f54  8fe10000	lw	r1,(r31)
 5159  00004f58  8c690168	lw	r9,360(r3)
 5160  00004f5c  ac290004	sw	4(r1),r9
 5161  00004f60  8c62016c	lw	r2,364(r3)
 5162  00004f64  8c410008	lw	r1,8(r2)
 5163  00004f68  2021ffff	addi	r1,r1,#-1
 5164  00004f6c  ac410008	sw	8(r2),r1
 5165  00004f70          	L118_LF5:
 5166  00004f70  20090000	addi	r9,r0,#0
 5167  00004f74  afe90000	sw	(r31),r9
 5168  00004f78  8cc10004	lw	r1,4(r6)
 5169  00004f7c  ac66016c	sw	364(r3),r6
 5170  00004f80  ac610168	sw	360(r3),r1
 5171  00004f84  8c290000	lw	r9,(r1)
 5172  00004f88  afe90000	sw	(r31),r9
 5173  00004f8c  ac3f0000	sw	(r1),r31
 5174  00004f90  8fe10000	lw	r1,(r31)
 5175  00004f94  ac3f0004	sw	4(r1),r31
 5176  00004f98  8cc10008	lw	r1,8(r6)
 5177  00004f9c  20210001	addi	r1,r1,#1
 5178  00004fa0  acc10008	sw	8(r6),r1
 5179  00004fa4  00032020	add	r4,r0,r3
 5180  00004fa8  206500fc	addi	r5,r3,#252
 5181  00004fac          	L126_LF5:
 5182  00004fac  20820060	addi	r2,r4,#96
 5183  00004fb0  8c410000	lw	r1,(r2)
 5184  00004fb4  30210001	andi	r1,r1,#1
 5185  00004fb8  10200060	beqz	r1,L125_LF5
 5186  00004fbc  54000000	nop; not filled.
 5187  00004fc0  23bdfff8	addi	r29,r29,#-8
 5188  00004fc4  3c090000	lhi	r9,((LC3_LF5)>>16)&0xffff
 5189  00004fc8  2529e4d4	addui	r9,r9,(LC3_LF5)&0xffff
 5190  00004fcc  afa90000	sw	(r29),r9
 5191  00004fd0  8c610160	lw	r1,352(r3)
 5192  00004fd4  afa10004	sw	4(r29),r1
 5193  00004fd8  0c00651c	jal	_printf
 5194  00004fdc  54000000	nop; not filled.
 5195  00004fe0  8c420000	lw	r2,(r2)
 5196  00004fe4  afa20000	sw	(r29),r2
 5197  00004fe8  0fffe7a8	jal	_MemoryFreePte
 5198  00004fec  54000000	nop; not filled.
 5199  00004ff0  8c610160	lw	r1,352(r3)
 5200  00004ff4  2021ffff	addi	r1,r1,#-1
 5201  00004ff8  ac610160	sw	352(r3),r1
 5202  00004ffc  3c090000	lhi	r9,((LC4_LF5)>>16)&0xffff
 5203  00005000  2529e4fc	addui	r9,r9,(LC4_LF5)&0xffff
 5204  00005004  afa90000	sw	(r29),r9
 5205  00005008  8c610160	lw	r1,352(r3)
 5206  0000500c  afa10004	sw	4(r29),r1
 5207  00005010  0c0064e4	jal	_printf
 5208  00005014  54000000	nop; not filled.
 5209  00005018  23bd0008	addi	r29,r29,#8
 5210  0000501c          	L125_LF5:
 5211  0000501c  20840004	addi	r4,r4,#4
 5212  00005020  0085082c	sle	r1,r4,r5
 5213  00005024  1420ff84	bnez	r1,L126_LF5
 5214  00005028  54000000	nop; not filled.
 5215  0000502c  23bdfff8	addi	r29,r29,#-8
 5216  00005030  8c610008	lw	r1,8(r3)
 5217  00005034  5821000d	srli	r1,r1,#0xd
 5218  00005038  afa10000	sw	(r29),r1
 5219  0000503c  0fffe1d0	jal	_MemoryFreePage
 5220  00005040  54000000	nop; not filled.
 5221  00005044  23bd0008	addi	r29,r29,#8
 5222  00005048  8c61000c	lw	r1,12(r3)
 5223  0000504c  2009ffc0	addi	r9,r0,#-64
 5224  00005050  00290824	and	r1,r1,r9
 5225  00005054  34210001	ori	r1,r1,#1
 5226  00005058  ac61000c	sw	12(r3),r1
 5227  0000505c  0bfffe48	j	L109_LF5
 5228  00005060  54000000	nop; not filled.
 5229  00005064          	L110_LF5:
 5230  00005064  23bdfff8	addi	r29,r29,#-8
 5231  00005068  3c010000	lhi	r1,((_processQuantum_LF5)>>16)&0xffff
 5232  0000506c  2421e478	addui	r1,r1,(_processQuantum_LF5)&0xffff
 5233  00005070  8c210000	lw	r1,(r1)
 5234  00005074  afa10000	sw	(r29),r1
 5235  00005078  0c004878	jal	_TimerSet
 5236  0000507c  54000000	nop; not filled.
 5237  00005080  3c020000	lhi	r2,((_debugstr)>>16)&0xffff
 5238  00005084  2442ef7c	addui	r2,r2,(_debugstr)&0xffff
 5239  00005088  afa20000	sw	(r29),r2
 5240  0000508c  20090070	addi	r9,r0,#112
 5241  00005090  afa90004	sw	4(r29),r9
 5242  00005094  0fffee58	jal	_dindex
 5243  00005098  54000000	nop; not filled.
 5244  0000509c  23bd0008	addi	r29,r29,#8
 5245  000050a0  64210000	snei	r1,r1,#0
 5246  000050a4  1420002c	bnez	r1,L131_LF5
 5247  000050a8  54000000	nop; not filled.
 5248  000050ac  23bdfff8	addi	r29,r29,#-8
 5249  000050b0  afa20000	sw	(r29),r2
 5250  000050b4  2009002b	addi	r9,r0,#43
 5251  000050b8  afa90004	sw	4(r29),r9
 5252  000050bc  0fffee30	jal	_dindex
 5253  000050c0  54000000	nop; not filled.
 5254  000050c4  23bd0008	addi	r29,r29,#8
 5255  000050c8  64210000	snei	r1,r1,#0
 5256  000050cc  10200030	beqz	r1,L130_LF5
 5257  000050d0  54000000	nop; not filled.
 5258  000050d4          	L131_LF5:
 5259  000050d4  23bdfff8	addi	r29,r29,#-8
 5260  000050d8  3c090000	lhi	r9,((LC9_LF5)>>16)&0xffff
 5261  000050dc  2529e5c4	addui	r9,r9,(LC9_LF5)&0xffff
 5262  000050e0  afa90000	sw	(r29),r9
 5263  000050e4  3c010000	lhi	r1,((_currentPCB)>>16)&0xffff
 5264  000050e8  2421f044	addui	r1,r1,(_currentPCB)&0xffff
 5265  000050ec  8c210000	lw	r1,(r1)
 5266  000050f0  afa10004	sw	4(r29),r1
 5267  000050f4  0c006400	jal	_printf
 5268  000050f8  54000000	nop; not filled.
 5269  000050fc  23bd0008	addi	r29,r29,#8
 5270  00005100          	L130_LF5:
 5271  00005100  8fa20000	lw	r2,0(r29)
 5272  00005104  8fa30004	lw	r3,4(r29)
 5273  00005108  8fa40008	lw	r4,8(r29)
 5274  0000510c  8fa5000c	lw	r5,12(r29)
 5275  00005110  8fa60010	lw	r6,16(r29)
 5276  00005114  8fa70014	lw	r7,20(r29)
 5277  00005118  8fa80018	lw	r8,24(r29)
 5278  0000511c  8fa9001c	lw	r9,28(r29)
 5279  00005120  8fdffff8	lw	r31,-8(r30)
 5280  00005124  001ee820	add	r29,r0,r30
 5281  00005128  8fdefffc	lw	r30,-4(r30)
 5282  0000512c  4be00000	jr	r31
 5283  00005130  54000000	nop
 5284  00005134          	.endproc _ProcessSchedule
 5285  00005134          	.data
 5286  0000e5e8          	.align 2
 5287  0000e5e8          	LC10_LF5:
 5288  0000e5e8  53757370	.ascii "Suspending PCB 0x%x (%s).\n\000"
 5288  0000e5ec  656e6469	
 5288  0000e5f0  6e672050	
 5288  0000e5f4  43422030	
 5288  0000e5f8  78257820	
 5288  0000e5fc  28257329	
 5288  0000e600  2e0a00  	
 5289  0000e603          	.align 2
 5290  0000e604          	LC11_LF5:
 5291  0000e604  25733a20	.ascii "%s: %s\n\000"
 5291  0000e608  25730a00	
 5292  0000e60c          	.align 2
 5293  0000e60c          	LC12_LF5:
 5294  0000e60c  50726f63	.ascii "ProcessSuspend\000"
 5294  0000e610  65737353	
 5294  0000e614  75737065	
 5294  0000e618  6e6400  	
 5295  0000e61b          	.align 2
 5296  0000e61c          	LC13_LF5:
 5297  0000e61c  54727969	.ascii "Trying to suspend a non-running process!\n\000"
 5297  0000e620  6e672074	
 5297  0000e624  6f207375	
 5297  0000e628  7370656e	
 5297  0000e62c  64206120	
 5297  0000e630  6e6f6e2d	
 5297  0000e634  72756e6e	
 5297  0000e638  696e6720	
 5297  0000e63c  70726f63	
 5297  0000e640  65737321	
 5297  0000e644  0a00    	
 5298  0000e646          	.text
 5299  00005134          	.align 2
 5300  00005134          	.proc _ProcessSuspend
 5301  00005134          	.global _ProcessSuspend
 5302  00005134          	_ProcessSuspend:
 5303                      ;  Function 'ProcessSuspend'; 0 bytes of locals, 3 regs to save.
 5304  00005134  afbefffc	sw	-4(r29),r30; push fp
 5305  00005138  001df020	add	r30,r0,r29; fp = sp
 5306  0000513c  afbffff8	sw	-8(r29),r31; push ret addr
 5307  00005140  2fbd0018	subui	r29,r29,#24; alloc local storage
 5308  00005144  afa20000	sw	0(r29),r2
 5309  00005148  afa30004	sw	4(r29),r3
 5310  0000514c  afa40008	sw	8(r29),r4
 5311  00005150  8fc30000	lw	r3,(r30)
 5312  00005154  23bdfff8	addi	r29,r29,#-8
 5313  00005158  3c020000	lhi	r2,((_debugstr)>>16)&0xffff
 5314  0000515c  2442ef7c	addui	r2,r2,(_debugstr)&0xffff
 5315  00005160  afa20000	sw	(r29),r2
 5316  00005164  20040070	addi	r4,r0,#112
 5317  00005168  afa40004	sw	4(r29),r4
 5318  0000516c  0fffed80	jal	_dindex
 5319  00005170  54000000	nop; not filled.
 5320  00005174  23bd0008	addi	r29,r29,#8
 5321  00005178  64210000	snei	r1,r1,#0
 5322  0000517c  1420002c	bnez	r1,L134_LF5
 5323  00005180  54000000	nop; not filled.
 5324  00005184  23bdfff8	addi	r29,r29,#-8
 5325  00005188  afa20000	sw	(r29),r2
 5326  0000518c  2004002b	addi	r4,r0,#43
 5327  00005190  afa40004	sw	4(r29),r4
 5328  00005194  0fffed58	jal	_dindex
 5329  00005198  54000000	nop; not filled.
 5330  0000519c  23bd0008	addi	r29,r29,#8
 5331  000051a0  64210000	snei	r1,r1,#0
 5332  000051a4  1020002c	beqz	r1,L133_LF5
 5333  000051a8  54000000	nop; not filled.
 5334  000051ac          	L134_LF5:
 5335  000051ac  23bdfff0	addi	r29,r29,#-16
 5336  000051b0  3c040000	lhi	r4,((LC10_LF5)>>16)&0xffff
 5337  000051b4  2484e5e8	addui	r4,r4,(LC10_LF5)&0xffff
 5338  000051b8  afa40000	sw	(r29),r4
 5339  000051bc  afa30004	sw	4(r29),r3
 5340  000051c0  20610010	addi	r1,r3,#16
 5341  000051c4  afa10008	sw	8(r29),r1
 5342  000051c8  0c00632c	jal	_printf
 5343  000051cc  54000000	nop; not filled.
 5344  000051d0  23bd0010	addi	r29,r29,#16
 5345  000051d4          	L133_LF5:
 5346  000051d4  8064000f	lb	r4,15(r3)
 5347  000051d8  58810001	srli	r1,r4,#0x1
 5348  000051dc  30210001	andi	r1,r1,#1
 5349  000051e0  14200038	bnez	r1,L136_LF5
 5350  000051e4  54000000	nop; not filled.
 5351  000051e8  23bdfff0	addi	r29,r29,#-16
 5352  000051ec  3c040000	lhi	r4,((LC11_LF5)>>16)&0xffff
 5353  000051f0  2484e604	addui	r4,r4,(LC11_LF5)&0xffff
 5354  000051f4  afa40000	sw	(r29),r4
 5355  000051f8  3c010000	lhi	r1,((LC12_LF5)>>16)&0xffff
 5356  000051fc  2421e60c	addui	r1,r1,(LC12_LF5)&0xffff
 5357  00005200  afa10004	sw	4(r29),r1
 5358  00005204  3c040000	lhi	r4,((LC13_LF5)>>16)&0xffff
 5359  00005208  2484e61c	addui	r4,r4,(LC13_LF5)&0xffff
 5360  0000520c  afa40008	sw	8(r29),r4
 5361  00005210  0c0062e4	jal	_printf
 5362  00005214  54000000	nop; not filled.
 5363  00005218  23bd0010	addi	r29,r29,#16
 5364  0000521c          	L136_LF5:
 5365  0000521c  8c61000c	lw	r1,12(r3)
 5366  00005220  2004ffc0	addi	r4,r0,#-64
 5367  00005224  00240824	and	r1,r1,r4
 5368  00005228  34210004	ori	r1,r1,#4
 5369  0000522c  ac61000c	sw	12(r3),r1
 5370  00005230  207f0164	addi	r31,r3,#356
 5371  00005234  8c61016c	lw	r1,364(r3)
 5372  00005238  8c210008	lw	r1,8(r1)
 5373  0000523c  6c210000	sgti	r1,r1,#0
 5374  00005240  1020002c	beqz	r1,L139_LF5
 5375  00005244  54000000	nop; not filled.
 5376  00005248  8c610168	lw	r1,360(r3)
 5377  0000524c  8fe40000	lw	r4,(r31)
 5378  00005250  ac240000	sw	(r1),r4
 5379  00005254  8fe10000	lw	r1,(r31)
 5380  00005258  8c640168	lw	r4,360(r3)
 5381  0000525c  ac240004	sw	4(r1),r4
 5382  00005260  8c62016c	lw	r2,364(r3)
 5383  00005264  8c410008	lw	r1,8(r2)
 5384  00005268  2021ffff	addi	r1,r1,#-1
 5385  0000526c  ac410008	sw	8(r2),r1
 5386  00005270          	L139_LF5:
 5387  00005270  20040000	addi	r4,r0,#0
 5388  00005274  afe40000	sw	(r31),r4
 5389  00005278  3c020000	lhi	r2,((_waitQueue_LF5)>>16)&0xffff
 5390  0000527c  2442f060	addui	r2,r2,(_waitQueue_LF5)&0xffff
 5391  00005280  8c410004	lw	r1,4(r2)
 5392  00005284  ac62016c	sw	364(r3),r2
 5393  00005288  ac610168	sw	360(r3),r1
 5394  0000528c  8c240000	lw	r4,(r1)
 5395  00005290  afe40000	sw	(r31),r4
 5396  00005294  ac3f0000	sw	(r1),r31
 5397  00005298  8fe10000	lw	r1,(r31)
 5398  0000529c  ac3f0004	sw	4(r1),r31
 5399  000052a0  8c410008	lw	r1,8(r2)
 5400  000052a4  20210001	addi	r1,r1,#1
 5401  000052a8  ac410008	sw	8(r2),r1
 5402  000052ac  8fa20000	lw	r2,0(r29)
 5403  000052b0  8fa30004	lw	r3,4(r29)
 5404  000052b4  8fa40008	lw	r4,8(r29)
 5405  000052b8  8fdffff8	lw	r31,-8(r30)
 5406  000052bc  001ee820	add	r29,r0,r30
 5407  000052c0  8fdefffc	lw	r30,-4(r30)
 5408  000052c4  4be00000	jr	r31
 5409  000052c8  54000000	nop
 5410  000052cc          	.endproc _ProcessSuspend
 5411  000052cc          	.data
 5412  0000e646          	.align 2
 5413  0000e648          	LC14_LF5:
 5414  0000e648  57616b69	.ascii "Waking up PCB 0x%x.\n\000"
 5414  0000e64c  6e672075	
 5414  0000e650  70205043	
 5414  0000e654  42203078	
 5414  0000e658  25782e0a	
 5414  0000e65c  00      	
 5415  0000e65d          	.align 2
 5416  0000e660          	LC15_LF5:
 5417  0000e660  50726f63	.ascii "ProcessWakeup\000"
 5417  0000e664  65737357	
 5417  0000e668  616b6575	
 5417  0000e66c  7000    	
 5418  0000e66e          	.align 2
 5419  0000e670          	LC16_LF5:
 5420  0000e670  54727969	.ascii "Trying to wake up a non-sleeping process!\n\000"
 5420  0000e674  6e672074	
 5420  0000e678  6f207761	
 5420  0000e67c  6b652075	
 5420  0000e680  70206120	
 5420  0000e684  6e6f6e2d	
 5420  0000e688  736c6565	
 5420  0000e68c  70696e67	
 5420  0000e690  2070726f	
 5420  0000e694  63657373	
 5420  0000e698  210a00  	
 5421  0000e69b          	.text
 5422  000052cc          	.align 2
 5423  000052cc          	.proc _ProcessWakeup
 5424  000052cc          	.global _ProcessWakeup
 5425  000052cc          	_ProcessWakeup:
 5426                      ;  Function 'ProcessWakeup'; 0 bytes of locals, 3 regs to save.
 5427  000052cc  afbefffc	sw	-4(r29),r30; push fp
 5428  000052d0  001df020	add	r30,r0,r29; fp = sp
 5429  000052d4  afbffff8	sw	-8(r29),r31; push ret addr
 5430  000052d8  2fbd0018	subui	r29,r29,#24; alloc local storage
 5431  000052dc  afa20000	sw	0(r29),r2
 5432  000052e0  afa30004	sw	4(r29),r3
 5433  000052e4  afa40008	sw	8(r29),r4
 5434  000052e8  8fc30000	lw	r3,(r30)
 5435  000052ec  23bdfff8	addi	r29,r29,#-8
 5436  000052f0  3c020000	lhi	r2,((_debugstr)>>16)&0xffff
 5437  000052f4  2442ef7c	addui	r2,r2,(_debugstr)&0xffff
 5438  000052f8  afa20000	sw	(r29),r2
 5439  000052fc  20040070	addi	r4,r0,#112
 5440  00005300  afa40004	sw	4(r29),r4
 5441  00005304  0fffebe8	jal	_dindex
 5442  00005308  54000000	nop; not filled.
 5443  0000530c  23bd0008	addi	r29,r29,#8
 5444  00005310  64210000	snei	r1,r1,#0
 5445  00005314  1420002c	bnez	r1,L145_LF5
 5446  00005318  54000000	nop; not filled.
 5447  0000531c  23bdfff8	addi	r29,r29,#-8
 5448  00005320  afa20000	sw	(r29),r2
 5449  00005324  2004002b	addi	r4,r0,#43
 5450  00005328  afa40004	sw	4(r29),r4
 5451  0000532c  0fffebc0	jal	_dindex
 5452  00005330  54000000	nop; not filled.
 5453  00005334  23bd0008	addi	r29,r29,#8
 5454  00005338  64210000	snei	r1,r1,#0
 5455  0000533c  10200024	beqz	r1,L144_LF5
 5456  00005340  54000000	nop; not filled.
 5457  00005344          	L145_LF5:
 5458  00005344  23bdfff8	addi	r29,r29,#-8
 5459  00005348  3c040000	lhi	r4,((LC14_LF5)>>16)&0xffff
 5460  0000534c  2484e648	addui	r4,r4,(LC14_LF5)&0xffff
 5461  00005350  afa40000	sw	(r29),r4
 5462  00005354  afa30004	sw	4(r29),r3
 5463  00005358  0c00619c	jal	_printf
 5464  0000535c  54000000	nop; not filled.
 5465  00005360  23bd0008	addi	r29,r29,#8
 5466  00005364          	L144_LF5:
 5467  00005364  8064000f	lb	r4,15(r3)
 5468  00005368  58810002	srli	r1,r4,#0x2
 5469  0000536c  30210001	andi	r1,r1,#1
 5470  00005370  14200038	bnez	r1,L147_LF5
 5471  00005374  54000000	nop; not filled.
 5472  00005378  23bdfff0	addi	r29,r29,#-16
 5473  0000537c  3c040000	lhi	r4,((LC11_LF5)>>16)&0xffff
 5474  00005380  2484e604	addui	r4,r4,(LC11_LF5)&0xffff
 5475  00005384  afa40000	sw	(r29),r4
 5476  00005388  3c010000	lhi	r1,((LC15_LF5)>>16)&0xffff
 5477  0000538c  2421e660	addui	r1,r1,(LC15_LF5)&0xffff
 5478  00005390  afa10004	sw	4(r29),r1
 5479  00005394  3c040000	lhi	r4,((LC16_LF5)>>16)&0xffff
 5480  00005398  2484e670	addui	r4,r4,(LC16_LF5)&0xffff
 5481  0000539c  afa40008	sw	8(r29),r4
 5482  000053a0  0c006154	jal	_printf
 5483  000053a4  54000000	nop; not filled.
 5484  000053a8  23bd0010	addi	r29,r29,#16
 5485  000053ac          	L147_LF5:
 5486  000053ac  8c61000c	lw	r1,12(r3)
 5487  000053b0  2004ffc0	addi	r4,r0,#-64
 5488  000053b4  00240824	and	r1,r1,r4
 5489  000053b8  34210002	ori	r1,r1,#2
 5490  000053bc  ac61000c	sw	12(r3),r1
 5491  000053c0  207f0164	addi	r31,r3,#356
 5492  000053c4  8c61016c	lw	r1,364(r3)
 5493  000053c8  8c210008	lw	r1,8(r1)
 5494  000053cc  6c210000	sgti	r1,r1,#0
 5495  000053d0  1020002c	beqz	r1,L150_LF5
 5496  000053d4  54000000	nop; not filled.
 5497  000053d8  8c610168	lw	r1,360(r3)
 5498  000053dc  8fe40000	lw	r4,(r31)
 5499  000053e0  ac240000	sw	(r1),r4
 5500  000053e4  8fe10000	lw	r1,(r31)
 5501  000053e8  8c640168	lw	r4,360(r3)
 5502  000053ec  ac240004	sw	4(r1),r4
 5503  000053f0  8c62016c	lw	r2,364(r3)
 5504  000053f4  8c410008	lw	r1,8(r2)
 5505  000053f8  2021ffff	addi	r1,r1,#-1
 5506  000053fc  ac410008	sw	8(r2),r1
 5507  00005400          	L150_LF5:
 5508  00005400  20040000	addi	r4,r0,#0
 5509  00005404  afe40000	sw	(r31),r4
 5510  00005408  3c020000	lhi	r2,((_runQueue_LF5)>>16)&0xffff
 5511  0000540c  2442f054	addui	r2,r2,(_runQueue_LF5)&0xffff
 5512  00005410  8c410004	lw	r1,4(r2)
 5513  00005414  ac62016c	sw	364(r3),r2
 5514  00005418  ac610168	sw	360(r3),r1
 5515  0000541c  8c240000	lw	r4,(r1)
 5516  00005420  afe40000	sw	(r31),r4
 5517  00005424  ac3f0000	sw	(r1),r31
 5518  00005428  8fe10000	lw	r1,(r31)
 5519  0000542c  ac3f0004	sw	4(r1),r31
 5520  00005430  8c410008	lw	r1,8(r2)
 5521  00005434  20210001	addi	r1,r1,#1
 5522  00005438  ac410008	sw	8(r2),r1
 5523  0000543c  8fa20000	lw	r2,0(r29)
 5524  00005440  8fa30004	lw	r3,4(r29)
 5525  00005444  8fa40008	lw	r4,8(r29)
 5526  00005448  8fdffff8	lw	r31,-8(r30)
 5527  0000544c  001ee820	add	r29,r0,r30
 5528  00005450  8fdefffc	lw	r30,-4(r30)
 5529  00005454  4be00000	jr	r31
 5530  00005458  54000000	nop
 5531  0000545c          	.endproc _ProcessWakeup
 5532  0000545c          	.data
 5533  0000e69b          	.align 2
 5534  0000e69c          	LC17_LF5:
 5535  0000e69c  456e7465	.ascii "Entering ProcessDestroy for 0x%x.\n\000"
 5535  0000e6a0  72696e67	
 5535  0000e6a4  2050726f	
 5535  0000e6a8  63657373	
 5535  0000e6ac  44657374	
 5535  0000e6b0  726f7920	
 5535  0000e6b4  666f7220	
 5535  0000e6b8  30782578	
 5535  0000e6bc  2e0a00  	
 5536  0000e6bf          	.align 2
 5537  0000e6c0          	LC18_LF5:
 5538  0000e6c0  4c656176	.ascii "Leaving ProcessDestroy for 0x%x.\n\000"
 5538  0000e6c4  696e6720	
 5538  0000e6c8  50726f63	
 5538  0000e6cc  65737344	
 5538  0000e6d0  65737472	
 5538  0000e6d4  6f792066	
 5538  0000e6d8  6f722030	
 5538  0000e6dc  7825782e	
 5538  0000e6e0  0a00    	
 5539  0000e6e2          	.text
 5540  0000545c          	.align 2
 5541  0000545c          	.proc _ProcessDestroy
 5542  0000545c          	.global _ProcessDestroy
 5543  0000545c          	_ProcessDestroy:
 5544                      ;  Function 'ProcessDestroy'; 0 bytes of locals, 3 regs to save.
 5545  0000545c  afbefffc	sw	-4(r29),r30; push fp
 5546  00005460  001df020	add	r30,r0,r29; fp = sp
 5547  00005464  afbffff8	sw	-8(r29),r31; push ret addr
 5548  00005468  2fbd0018	subui	r29,r29,#24; alloc local storage
 5549  0000546c  afa20000	sw	0(r29),r2
 5550  00005470  afa30004	sw	4(r29),r3
 5551  00005474  afa40008	sw	8(r29),r4
 5552  00005478  8fc30000	lw	r3,(r30)
 5553  0000547c  23bdfff8	addi	r29,r29,#-8
 5554  00005480  3c020000	lhi	r2,((_debugstr)>>16)&0xffff
 5555  00005484  2442ef7c	addui	r2,r2,(_debugstr)&0xffff
 5556  00005488  afa20000	sw	(r29),r2
 5557  0000548c  20040070	addi	r4,r0,#112
 5558  00005490  afa40004	sw	4(r29),r4
 5559  00005494  0fffea58	jal	_dindex
 5560  00005498  54000000	nop; not filled.
 5561  0000549c  23bd0008	addi	r29,r29,#8
 5562  000054a0  64210000	snei	r1,r1,#0
 5563  000054a4  1420002c	bnez	r1,L156_LF5
 5564  000054a8  54000000	nop; not filled.
 5565  000054ac  23bdfff8	addi	r29,r29,#-8
 5566  000054b0  afa20000	sw	(r29),r2
 5567  000054b4  2004002b	addi	r4,r0,#43
 5568  000054b8  afa40004	sw	4(r29),r4
 5569  000054bc  0fffea30	jal	_dindex
 5570  000054c0  54000000	nop; not filled.
 5571  000054c4  23bd0008	addi	r29,r29,#8
 5572  000054c8  64210000	snei	r1,r1,#0
 5573  000054cc  10200024	beqz	r1,L155_LF5
 5574  000054d0  54000000	nop; not filled.
 5575  000054d4          	L156_LF5:
 5576  000054d4  23bdfff8	addi	r29,r29,#-8
 5577  000054d8  3c040000	lhi	r4,((LC17_LF5)>>16)&0xffff
 5578  000054dc  2484e69c	addui	r4,r4,(LC17_LF5)&0xffff
 5579  000054e0  afa40000	sw	(r29),r4
 5580  000054e4  afa30004	sw	4(r29),r3
 5581  000054e8  0c00600c	jal	_printf
 5582  000054ec  54000000	nop; not filled.
 5583  000054f0  23bd0008	addi	r29,r29,#8
 5584  000054f4          	L155_LF5:
 5585  000054f4  8c61000c	lw	r1,12(r3)
 5586  000054f8  2004ffc0	addi	r4,r0,#-64
 5587  000054fc  00240824	and	r1,r1,r4
 5588  00005500  34210010	ori	r1,r1,#16
 5589  00005504  ac61000c	sw	12(r3),r1
 5590  00005508  207f0164	addi	r31,r3,#356
 5591  0000550c  8c61016c	lw	r1,364(r3)
 5592  00005510  8c210008	lw	r1,8(r1)
 5593  00005514  6c210000	sgti	r1,r1,#0
 5594  00005518  1020002c	beqz	r1,L159_LF5
 5595  0000551c  54000000	nop; not filled.
 5596  00005520  8c610168	lw	r1,360(r3)
 5597  00005524  8fe40000	lw	r4,(r31)
 5598  00005528  ac240000	sw	(r1),r4
 5599  0000552c  8fe10000	lw	r1,(r31)
 5600  00005530  8c640168	lw	r4,360(r3)
 5601  00005534  ac240004	sw	4(r1),r4
 5602  00005538  8c62016c	lw	r2,364(r3)
 5603  0000553c  8c410008	lw	r1,8(r2)
 5604  00005540  2021ffff	addi	r1,r1,#-1
 5605  00005544  ac410008	sw	8(r2),r1
 5606  00005548          	L159_LF5:
 5607  00005548  20040000	addi	r4,r0,#0
 5608  0000554c  afe40000	sw	(r31),r4
 5609  00005550  3c020000	lhi	r2,((_zombieQueue_LF5)>>16)&0xffff
 5610  00005554  2442f06c	addui	r2,r2,(_zombieQueue_LF5)&0xffff
 5611  00005558  ac62016c	sw	364(r3),r2
 5612  0000555c  ac620168	sw	360(r3),r2
 5613  00005560  8c440000	lw	r4,(r2)
 5614  00005564  afe40000	sw	(r31),r4
 5615  00005568  ac5f0000	sw	(r2),r31
 5616  0000556c  8fe10000	lw	r1,(r31)
 5617  00005570  ac3f0004	sw	4(r1),r31
 5618  00005574  8c410008	lw	r1,8(r2)
 5619  00005578  20210001	addi	r1,r1,#1
 5620  0000557c  ac410008	sw	8(r2),r1
 5621  00005580  23bdfff8	addi	r29,r29,#-8
 5622  00005584  3c020000	lhi	r2,((_debugstr)>>16)&0xffff
 5623  00005588  2442ef7c	addui	r2,r2,(_debugstr)&0xffff
 5624  0000558c  afa20000	sw	(r29),r2
 5625  00005590  20040070	addi	r4,r0,#112
 5626  00005594  afa40004	sw	4(r29),r4
 5627  00005598  0fffe954	jal	_dindex
 5628  0000559c  54000000	nop; not filled.
 5629  000055a0  23bd0008	addi	r29,r29,#8
 5630  000055a4  64210000	snei	r1,r1,#0
 5631  000055a8  1420002c	bnez	r1,L163_LF5
 5632  000055ac  54000000	nop; not filled.
 5633  000055b0  23bdfff8	addi	r29,r29,#-8
 5634  000055b4  afa20000	sw	(r29),r2
 5635  000055b8  2004002b	addi	r4,r0,#43
 5636  000055bc  afa40004	sw	4(r29),r4
 5637  000055c0  0fffe92c	jal	_dindex
 5638  000055c4  54000000	nop; not filled.
 5639  000055c8  23bd0008	addi	r29,r29,#8
 5640  000055cc  64210000	snei	r1,r1,#0
 5641  000055d0  10200024	beqz	r1,L162_LF5
 5642  000055d4  54000000	nop; not filled.
 5643  000055d8          	L163_LF5:
 5644  000055d8  23bdfff8	addi	r29,r29,#-8
 5645  000055dc  3c040000	lhi	r4,((LC18_LF5)>>16)&0xffff
 5646  000055e0  2484e6c0	addui	r4,r4,(LC18_LF5)&0xffff
 5647  000055e4  afa40000	sw	(r29),r4
 5648  000055e8  afa30004	sw	4(r29),r3
 5649  000055ec  0c005f08	jal	_printf
 5650  000055f0  54000000	nop; not filled.
 5651  000055f4  23bd0008	addi	r29,r29,#8
 5652  000055f8          	L162_LF5:
 5653  000055f8  8fa20000	lw	r2,0(r29)
 5654  000055fc  8fa30004	lw	r3,4(r29)
 5655  00005600  8fa40008	lw	r4,8(r29)
 5656  00005604  8fdffff8	lw	r31,-8(r30)
 5657  00005608  001ee820	add	r29,r0,r30
 5658  0000560c  8fdefffc	lw	r30,-4(r30)
 5659  00005610  4be00000	jr	r31
 5660  00005614  54000000	nop
 5661  00005618          	.endproc _ProcessDestroy
 5662  00005618          	.data
 5663  0000e6e2          	.align 2
 5664  0000e6e4          	_str52_LF5:
 5665  0000e6e4          	.space 4
 5666  0000e6e8          	.align 2
 5667  0000e6e8          	_location53_LF5:
 5668  0000e6e8  00000000	.word 0
 5669  0000e6ec          	.text
 5670  00005618          	.align 2
 5671  00005618          	.proc _get_argument
 5672  00005618          	.global _get_argument
 5673  00005618          	_get_argument:
 5674                      ;  Function 'get_argument'; 0 bytes of locals, 4 regs to save.
 5675  00005618  afbefffc	sw	-4(r29),r30; push fp
 5676  0000561c  001df020	add	r30,r0,r29; fp = sp
 5677  00005620  afbffff8	sw	-8(r29),r31; push ret addr
 5678  00005624  2fbd0018	subui	r29,r29,#24; alloc local storage
 5679  00005628  afa20000	sw	0(r29),r2
 5680  0000562c  afa30004	sw	4(r29),r3
 5681  00005630  afa40008	sw	8(r29),r4
 5682  00005634  afa5000c	sw	12(r29),r5
 5683  00005638  8fc20000	lw	r2,(r30)
 5684  0000563c  64410000	snei	r1,r2,#0
 5685  00005640  10200020	beqz	r1,L176_LF5
 5686  00005644  54000000	nop; not filled.
 5687  00005648  3c010000	lhi	r1,((_str52_LF5)>>16)&0xffff
 5688  0000564c  2421e6e4	addui	r1,r1,(_str52_LF5)&0xffff
 5689  00005650  ac220000	sw	(r1),r2
 5690  00005654  3c010000	lhi	r1,((_location53_LF5)>>16)&0xffff
 5691  00005658  2421e6e8	addui	r1,r1,(_location53_LF5)&0xffff
 5692  0000565c  20050000	addi	r5,r0,#0
 5693  00005660  ac250000	sw	(r1),r5
 5694  00005664          	L176_LF5:
 5695  00005664  3c1f0000	lhi	r31,((_location53_LF5)>>16)&0xffff
 5696  00005668  27ffe6e8	addui	r31,r31,(_location53_LF5)&0xffff
 5697  0000566c  8fe30000	lw	r3,(r31)
 5698  00005670  3c010000	lhi	r1,((_str52_LF5)>>16)&0xffff
 5699  00005674  2421e6e4	addui	r1,r1,(_str52_LF5)&0xffff
 5700  00005678  8c220000	lw	r2,(r1)
 5701  0000567c  00430820	add	r1,r2,r3
 5702  00005680  90210000	lbu	r1,(r1)
 5703  00005684  64210000	snei	r1,r1,#0
 5704  00005688  10200010	beqz	r1,L178_LF5
 5705  0000568c  54000000	nop; not filled.
 5706  00005690  6c610062	sgti	r1,r3,#98
 5707  00005694  10200020	beqz	r1,L177_LF5
 5708  00005698  54000000	nop; not filled.
 5709  0000569c          	L178_LF5:
 5710  0000569c  20010000	addi	r1,r0,#0
 5711  000056a0  08000058	j	L185_LF5
 5712  000056a4  54000000	nop; not filled.
 5713  000056a8          	L186_LF5:
 5714  000056a8  23e10001	addi	r1,r31,#1
 5715  000056ac  ac410000	sw	(r2),r1
 5716  000056b0  08000044	j	L180_LF5
 5717  000056b4  54000000	nop; not filled.
 5718  000056b8          	L177_LF5:
 5719  000056b8  70610063	slei	r1,r3,#99
 5720  000056bc  10200038	beqz	r1,L180_LF5
 5721  000056c0  54000000	nop; not filled.
 5722  000056c4  00022020	add	r4,r0,r2
 5723  000056c8  001f1020	add	r2,r0,r31
 5724  000056cc          	L182_LF5:
 5725  000056cc  8c5f0000	lw	r31,(r2)
 5726  000056d0  009f0820	add	r1,r4,r31
 5727  000056d4  90210000	lbu	r1,(r1)
 5728  000056d8  64210000	snei	r1,r1,#0
 5729  000056dc  1020ffc8	beqz	r1,L186_LF5
 5730  000056e0  54000000	nop; not filled.
 5731  000056e4  23e10001	addi	r1,r31,#1
 5732  000056e8  ac410000	sw	(r2),r1
 5733  000056ec  70210063	slei	r1,r1,#99
 5734  000056f0  1420ffd8	bnez	r1,L182_LF5
 5735  000056f4  54000000	nop; not filled.
 5736  000056f8          	L180_LF5:
 5737  000056f8  00030820	add	r1,r0,r3
 5738  000056fc          	L185_LF5:
 5739  000056fc  8fa20000	lw	r2,0(r29)
 5740  00005700  8fa30004	lw	r3,4(r29)
 5741  00005704  8fa40008	lw	r4,8(r29)
 5742  00005708  8fa5000c	lw	r5,12(r29)
 5743  0000570c  8fdffff8	lw	r31,-8(r30)
 5744  00005710  001ee820	add	r29,r0,r30
 5745  00005714  8fdefffc	lw	r30,-4(r30)
 5746  00005718  4be00000	jr	r31
 5747  0000571c  54000000	nop
 5748  00005720          	.endproc _get_argument
 5749  00005720          	.data
 5750  0000e6ec          	.align 2
 5751  0000e6ec          	LC19_LF5:
 5752  0000e6ec  4f6c6420	.ascii "Old interrupt value was 0x%x.\n\000"
 5752  0000e6f0  696e7465	
 5752  0000e6f4  72727570	
 5752  0000e6f8  74207661	
 5752  0000e6fc  6c756520	
 5752  0000e700  77617320	
 5752  0000e704  30782578	
 5752  0000e708  2e0a00  	
 5753  0000e70b          	.align 2
 5754  0000e70c          	LC20_LF5:
 5755  0000e70c  456e7465	.ascii "Entering ProcessFork args=0x%x 0x%x %s %d\n\000"
 5755  0000e710  72696e67	
 5755  0000e714  2050726f	
 5755  0000e718  63657373	
 5755  0000e71c  466f726b	
 5755  0000e720  20617267	
 5755  0000e724  733d3078	
 5755  0000e728  25782030	
 5755  0000e72c  78257820	
 5755  0000e730  25732025	
 5755  0000e734  640a00  	
 5756  0000e737          	.align 2
 5757  0000e738          	LC21_LF5:
 5758  0000e738  46415441	.ascii "FATAL error: no free processes!\n\000"
 5758  0000e73c  4c206572	
 5758  0000e740  726f723a	
 5758  0000e744  206e6f20	
 5758  0000e748  66726565	
 5758  0000e74c  2070726f	
 5758  0000e750  63657373	
 5758  0000e754  6573210a	
 5758  0000e758  00      	
 5759  0000e759          	.align 2
 5760  0000e75c          	LC22_LF5:
 5761  0000e75c  476f7420	.ascii "Got a link @ 0x%x\n\000"
 5761  0000e760  61206c69	
 5761  0000e764  6e6b2040	
 5761  0000e768  20307825	
 5761  0000e76c  780a00  	
 5762  0000e76f          	.align 2
 5763  0000e770          	LC23_LF5:
 5764  0000e770  4265666f	.ascii "Before restore interrupt value is 0x%x.\n\000"
 5764  0000e774  72652072	
 5764  0000e778  6573746f	
 5764  0000e77c  72652069	
 5764  0000e780  6e746572	
 5764  0000e784  72757074	
 5764  0000e788  2076616c	
 5764  0000e78c  75652069	
 5764  0000e790  73203078	
 5764  0000e794  25782e0a	
 5764  0000e798  00      	
 5765  0000e799          	.align 2
 5766  0000e79c          	LC24_LF5:
 5767  0000e79c  4e657720	.ascii "New interrupt value is 0x%x.\n\000"
 5767  0000e7a0  696e7465	
 5767  0000e7a4  72727570	
 5767  0000e7a8  74207661	
 5767  0000e7ac  6c756520	
 5767  0000e7b0  69732030	
 5767  0000e7b4  7825782e	
 5767  0000e7b8  0a00    	
 5768  0000e7ba          	.align 2
 5769  0000e7bc          	LC25_LF5:
 5770  0000e7bc  61464154	.ascii "aFATAL: couldn\'t allocate memory - no free pages!\n\000"
 5770  0000e7c0  414c3a20	
 5770  0000e7c4  636f756c	
 5770  0000e7c8  646e2774	
 5770  0000e7cc  20616c6c	
 5770  0000e7d0  6f636174	
 5770  0000e7d4  65206d65	
 5770  0000e7d8  6d6f7279	
 5770  0000e7dc  202d206e	
 5770  0000e7e0  6f206672	
 5770  0000e7e4  65652070	
 5770  0000e7e8  61676573	
 5770  0000e7ec  210a00  	
 5771  0000e7ef          	.align 2
 5772  0000e7f0          	LC26_LF5:
 5773  0000e7f0  416c6c6f	.ascii "Allocating User Stack\n\000"
 5773  0000e7f4  63617469	
 5773  0000e7f8  6e672055	
 5773  0000e7fc  73657220	
 5773  0000e800  53746163	
 5773  0000e804  6b0a00  	
 5774  0000e807          	.align 2
 5775  0000e808          	LC27_LF5:
 5776  0000e808  416c6c6f	.ascii "Allocating sysStack\n\000"
 5776  0000e80c  63617469	
 5776  0000e810  6e672073	
 5776  0000e814  79735374	
 5776  0000e818  61636b0a	
 5776  0000e81c  00      	
 5777  0000e81d          	.align 2
 5778  0000e820          	LC28_LF5:
 5779  0000e820  62464154	.ascii "bFATAL: couldn\'t allocate system stack - no free pages!\n\000"
 5779  0000e824  414c3a20	
 5779  0000e828  636f756c	
 5779  0000e82c  646e2774	
 5779  0000e830  20616c6c	
 5779  0000e834  6f636174	
 5779  0000e838  65207379	
 5779  0000e83c  7374656d	
 5779  0000e840  20737461	
 5779  0000e844  636b202d	
 5779  0000e848  206e6f20	
 5779  0000e84c  66726565	
 5779  0000e850  20706167	
 5779  0000e854  6573210a	
 5779  0000e858  00      	
 5780  0000e859          	.align 2
 5781  0000e85c          	LC29_LF5:
 5782  0000e85c  53657474	.ascii "Setting up PCB @ 0x%x (sys stack=0x%x, mem=0x%x, size=0x%x)\n\000"
 5782  0000e860  696e6720	
 5782  0000e864  75702050	
 5782  0000e868  43422040	
 5782  0000e86c  20307825	
 5782  0000e870  78202873	
 5782  0000e874  79732073	
 5782  0000e878  7461636b	
 5782  0000e87c  3d307825	
 5782  0000e880  782c206d	
 5782  0000e884  656d3d30	
 5782  0000e888  7825782c	
 5782  0000e88c  2073697a	
 5782  0000e890  653d3078	
 5782  0000e894  2578290a	
 5782  0000e898  00      	
 5783  0000e899          	.align 2
 5784  0000e89c          	LC30_LF5:
 5785  0000e89c  41626f75	.ascii "About to load %s\n\000"
 5785  0000e8a0  7420746f	
 5785  0000e8a4  206c6f61	
 5785  0000e8a8  64202573	
 5785  0000e8ac  0a00    	
 5786  0000e8ae          	.align 2
 5787  0000e8b0          	LC31_LF5:
 5788  0000e8b0  46696c65	.ascii "File %s -> start=0x%08x\n\000"
 5788  0000e8b4  20257320	
 5788  0000e8b8  2d3e2073	
 5788  0000e8bc  74617274	
 5788  0000e8c0  3d307825	
 5788  0000e8c4  3038780a	
 5788  0000e8c8  00      	
 5789  0000e8c9          	.align 2
 5790  0000e8cc          	LC32_LF5:
 5791  0000e8cc  46696c65	.ascii "File %s -> code @ 0x%08x (size=0x%08x)\n\000"
 5791  0000e8d0  20257320	
 5791  0000e8d4  2d3e2063	
 5791  0000e8d8  6f646520	
 5791  0000e8dc  40203078	
 5791  0000e8e0  25303878	
 5791  0000e8e4  20287369	
 5791  0000e8e8  7a653d30	
 5791  0000e8ec  78253038	
 5791  0000e8f0  78290a00	
 5792  0000e8f4          	.align 2
 5793  0000e8f4          	LC33_LF5:
 5794  0000e8f4  46696c65	.ascii "File %s -> data @ 0x%08x (size=0x%08x)\n\000"
 5794  0000e8f8  20257320	
 5794  0000e8fc  2d3e2064	
 5794  0000e900  61746120	
 5794  0000e904  40203078	
 5794  0000e908  25303878	
 5794  0000e90c  20287369	
 5794  0000e910  7a653d30	
 5794  0000e914  78253038	
 5794  0000e918  78290a00	
 5795  0000e91c          	.align 2
 5796  0000e91c          	LC34_LF5:
 5797  0000e91c  506c6163	.ascii "Placing %d bytes at vaddr %08x.\n\000"
 5797  0000e920  696e6720	
 5797  0000e924  25642062	
 5797  0000e928  79746573	
 5797  0000e92c  20617420	
 5797  0000e930  76616464	
 5797  0000e934  72202530	
 5797  0000e938  38782e0a	
 5797  0000e93c  00      	
 5798  0000e93d          	.align 2
 5799  0000e940          	LC35_LF5:
 5800  0000e940  53657474	.ascii "Setting currentPCB=0x%x, stackframe=0x%x\n\000"
 5800  0000e944  696e6720	
 5800  0000e948  63757272	
 5800  0000e94c  656e7450	
 5800  0000e950  43423d30	
 5800  0000e954  7825782c	
 5800  0000e958  20737461	
 5800  0000e95c  636b6672	
 5800  0000e960  616d653d	
 5800  0000e964  30782578	
 5800  0000e968  0a00    	
 5801  0000e96a          	.align 2
 5802  0000e96c          	LC36_LF5:
 5803  0000e96c  4c656176	.ascii "Leaving ProcessFork (%s)\n\000"
 5803  0000e970  696e6720	
 5803  0000e974  50726f63	
 5803  0000e978  65737346	
 5803  0000e97c  6f726b20	
 5803  0000e980  28257329	
 5803  0000e984  0a00    	
 5804  0000e986          	.text
 5805  00005720          	.align 2
 5806  00005720          	.proc _ProcessFork
 5807  00005720          	.global _ProcessFork
 5808  00005720          	_ProcessFork:
 5809                      ;  Function 'ProcessFork'; 672 bytes of locals, 12 regs to save.
 5810  00005720  afbefffc	sw	-4(r29),r30; push fp
 5811  00005724  001df020	add	r30,r0,r29; fp = sp
 5812  00005728  afbffff8	sw	-8(r29),r31; push ret addr
 5813  0000572c  2fbd02d8	subui	r29,r29,#728; alloc local storage
 5814  00005730  afa20000	sw	0(r29),r2
 5815  00005734  afa30004	sw	4(r29),r3
 5816  00005738  afa40008	sw	8(r29),r4
 5817  0000573c  afa5000c	sw	12(r29),r5
 5818  00005740  afa60010	sw	16(r29),r6
 5819  00005744  afa70014	sw	20(r29),r7
 5820  00005748  afa80018	sw	24(r29),r8
 5821  0000574c  afa9001c	sw	28(r29),r9
 5822  00005750  afaa0020	sw	32(r29),r10
 5823  00005754  afab0024	sw	36(r29),r11
 5824  00005758  afac0028	sw	40(r29),r12
 5825  0000575c  afad002c	sw	44(r29),r13
 5826  00005760  8fc70000	lw	r7,(r30)
 5827  00005764  8fca0004	lw	r10,4(r30)
 5828  00005768  8fcc0008	lw	r12,8(r30)
 5829  0000576c  8fc6000c	lw	r6,12(r30)
 5830  00005770  200d0000	addi	r13,r0,#0
 5831  00005774  afcdfd58	sw	-680(r30),r13
 5832  00005778  23bdfff8	addi	r29,r29,#-8
 5833  0000577c  200d000f	addi	r13,r0,#15
 5834  00005780  afad0000	sw	(r29),r13
 5835  00005784  0fffbb00	jal	_SetIntrs
 5836  00005788  54000000	nop; not filled.
 5837  0000578c  00011820	add	r3,r0,r1
 5838  00005790  23bd0008	addi	r29,r29,#8
 5839  00005794  23bdfff8	addi	r29,r29,#-8
 5840  00005798  3c020000	lhi	r2,((_debugstr)>>16)&0xffff
 5841  0000579c  2442ef7c	addui	r2,r2,(_debugstr)&0xffff
 5842  000057a0  afa20000	sw	(r29),r2
 5843  000057a4  200d0049	addi	r13,r0,#73
 5844  000057a8  afad0004	sw	4(r29),r13
 5845  000057ac  0fffe740	jal	_dindex
 5846  000057b0  54000000	nop; not filled.
 5847  000057b4  23bd0008	addi	r29,r29,#8
 5848  000057b8  64210000	snei	r1,r1,#0
 5849  000057bc  1420002c	bnez	r1,L190_LF5
 5850  000057c0  54000000	nop; not filled.
 5851  000057c4  23bdfff8	addi	r29,r29,#-8
 5852  000057c8  afa20000	sw	(r29),r2
 5853  000057cc  200d002b	addi	r13,r0,#43
 5854  000057d0  afad0004	sw	4(r29),r13
 5855  000057d4  0fffe718	jal	_dindex
 5856  000057d8  54000000	nop; not filled.
 5857  000057dc  23bd0008	addi	r29,r29,#8
 5858  000057e0  64210000	snei	r1,r1,#0
 5859  000057e4  10200024	beqz	r1,L189_LF5
 5860  000057e8  54000000	nop; not filled.
 5861  000057ec          	L190_LF5:
 5862  000057ec  23bdfff8	addi	r29,r29,#-8
 5863  000057f0  3c0d0000	lhi	r13,((LC19_LF5)>>16)&0xffff
 5864  000057f4  25ade6ec	addui	r13,r13,(LC19_LF5)&0xffff
 5865  000057f8  afad0000	sw	(r29),r13
 5866  000057fc  afa30004	sw	4(r29),r3
 5867  00005800  0c005cf4	jal	_printf
 5868  00005804  54000000	nop; not filled.
 5869  00005808  23bd0008	addi	r29,r29,#8
 5870  0000580c          	L189_LF5:
 5871  0000580c  23bdfff8	addi	r29,r29,#-8
 5872  00005810  3c020000	lhi	r2,((_debugstr)>>16)&0xffff
 5873  00005814  2442ef7c	addui	r2,r2,(_debugstr)&0xffff
 5874  00005818  afa20000	sw	(r29),r2
 5875  0000581c  200d0070	addi	r13,r0,#112
 5876  00005820  afad0004	sw	4(r29),r13
 5877  00005824  0fffe6c8	jal	_dindex
 5878  00005828  54000000	nop; not filled.
 5879  0000582c  23bd0008	addi	r29,r29,#8
 5880  00005830  64210000	snei	r1,r1,#0
 5881  00005834  1420002c	bnez	r1,L192_LF5
 5882  00005838  54000000	nop; not filled.
 5883  0000583c  23bdfff8	addi	r29,r29,#-8
 5884  00005840  afa20000	sw	(r29),r2
 5885  00005844  200d002b	addi	r13,r0,#43
 5886  00005848  afad0004	sw	4(r29),r13
 5887  0000584c  0fffe6a0	jal	_dindex
 5888  00005850  54000000	nop; not filled.
 5889  00005854  23bd0008	addi	r29,r29,#8
 5890  00005858  64210000	snei	r1,r1,#0
 5891  0000585c  10200030	beqz	r1,L191_LF5
 5892  00005860  54000000	nop; not filled.
 5893  00005864          	L192_LF5:
 5894  00005864  23bdffe8	addi	r29,r29,#-24
 5895  00005868  3c0d0000	lhi	r13,((LC20_LF5)>>16)&0xffff
 5896  0000586c  25ade70c	addui	r13,r13,(LC20_LF5)&0xffff
 5897  00005870  afad0000	sw	(r29),r13
 5898  00005874  afa70004	sw	4(r29),r7
 5899  00005878  afaa0008	sw	8(r29),r10
 5900  0000587c  afac000c	sw	12(r29),r12
 5901  00005880  afa60010	sw	16(r29),r6
 5902  00005884  0c005c70	jal	_printf
 5903  00005888  54000000	nop; not filled.
 5904  0000588c  23bd0018	addi	r29,r29,#24
 5905  00005890          	L191_LF5:
 5906  00005890  3c020000	lhi	r2,((_freepcbs_LF5)>>16)&0xffff
 5907  00005894  2442f048	addui	r2,r2,(_freepcbs_LF5)&0xffff
 5908  00005898  8c410008	lw	r1,8(r2)
 5909  0000589c  60210000	seqi	r1,r1,#0
 5910  000058a0  10200028	beqz	r1,L193_LF5
 5911  000058a4  54000000	nop; not filled.
 5912  000058a8  23bdfff8	addi	r29,r29,#-8
 5913  000058ac  3c0d0000	lhi	r13,((LC21_LF5)>>16)&0xffff
 5914  000058b0  25ade738	addui	r13,r13,(LC21_LF5)&0xffff
 5915  000058b4  afad0000	sw	(r29),r13
 5916  000058b8  0c005c3c	jal	_printf
 5917  000058bc  54000000	nop; not filled.
 5918  000058c0  0c005c1c	jal	_exitsim
 5919  000058c4  54000000	nop; not filled.
 5920  000058c8  23bd0008	addi	r29,r29,#8
 5921  000058cc          	L193_LF5:
 5922  000058cc  8c490000	lw	r9,(r2)
 5923  000058d0  23bdfff8	addi	r29,r29,#-8
 5924  000058d4  3c020000	lhi	r2,((_debugstr)>>16)&0xffff
 5925  000058d8  2442ef7c	addui	r2,r2,(_debugstr)&0xffff
 5926  000058dc  afa20000	sw	(r29),r2
 5927  000058e0  200d0070	addi	r13,r0,#112
 5928  000058e4  afad0004	sw	4(r29),r13
 5929  000058e8  0fffe604	jal	_dindex
 5930  000058ec  54000000	nop; not filled.
 5931  000058f0  23bd0008	addi	r29,r29,#8
 5932  000058f4  64210000	snei	r1,r1,#0
 5933  000058f8  1420002c	bnez	r1,L198_LF5
 5934  000058fc  54000000	nop; not filled.
 5935  00005900  23bdfff8	addi	r29,r29,#-8
 5936  00005904  afa20000	sw	(r29),r2
 5937  00005908  200d002b	addi	r13,r0,#43
 5938  0000590c  afad0004	sw	4(r29),r13
 5939  00005910  0fffe5dc	jal	_dindex
 5940  00005914  54000000	nop; not filled.
 5941  00005918  23bd0008	addi	r29,r29,#8
 5942  0000591c  64210000	snei	r1,r1,#0
 5943  00005920  10200024	beqz	r1,L197_LF5
 5944  00005924  54000000	nop; not filled.
 5945  00005928          	L198_LF5:
 5946  00005928  23bdfff8	addi	r29,r29,#-8
 5947  0000592c  3c0d0000	lhi	r13,((LC22_LF5)>>16)&0xffff
 5948  00005930  25ade75c	addui	r13,r13,(LC22_LF5)&0xffff
 5949  00005934  afad0000	sw	(r29),r13
 5950  00005938  afa90004	sw	4(r29),r9
 5951  0000593c  0c005bb8	jal	_printf
 5952  00005940  54000000	nop; not filled.
 5953  00005944  23bd0008	addi	r29,r29,#8
 5954  00005948          	L197_LF5:
 5955  00005948  8d210008	lw	r1,8(r9)
 5956  0000594c  8c210008	lw	r1,8(r1)
 5957  00005950  6c210000	sgti	r1,r1,#0
 5958  00005954  1020002c	beqz	r1,L200_LF5
 5959  00005958  54000000	nop; not filled.
 5960  0000595c  8d210004	lw	r1,4(r9)
 5961  00005960  8d2d0000	lw	r13,(r9)
 5962  00005964  ac2d0000	sw	(r1),r13
 5963  00005968  8d210000	lw	r1,(r9)
 5964  0000596c  8d2d0004	lw	r13,4(r9)
 5965  00005970  ac2d0004	sw	4(r1),r13
 5966  00005974  8d220008	lw	r2,8(r9)
 5967  00005978  8c410008	lw	r1,8(r2)
 5968  0000597c  2021ffff	addi	r1,r1,#-1
 5969  00005980  ac410008	sw	8(r2),r1
 5970  00005984          	L200_LF5:
 5971  00005984  200d0000	addi	r13,r0,#0
 5972  00005988  ad2d0000	sw	(r9),r13
 5973  0000598c  8d24000c	lw	r4,12(r9)
 5974  00005990  8c81000c	lw	r1,12(r4)
 5975  00005994  200dffc0	addi	r13,r0,#-64
 5976  00005998  002d0824	and	r1,r1,r13
 5977  0000599c  34210002	ori	r1,r1,#2
 5978  000059a0  ac81000c	sw	12(r4),r1
 5979  000059a4  23bdfff8	addi	r29,r29,#-8
 5980  000059a8  3c020000	lhi	r2,((_debugstr)>>16)&0xffff
 5981  000059ac  2442ef7c	addui	r2,r2,(_debugstr)&0xffff
 5982  000059b0  afa20000	sw	(r29),r2
 5983  000059b4  200d0049	addi	r13,r0,#73
 5984  000059b8  afad0004	sw	4(r29),r13
 5985  000059bc  0fffe530	jal	_dindex
 5986  000059c0  54000000	nop; not filled.
 5987  000059c4  23bd0008	addi	r29,r29,#8
 5988  000059c8  64210000	snei	r1,r1,#0
 5989  000059cc  1420002c	bnez	r1,L203_LF5
 5990  000059d0  54000000	nop; not filled.
 5991  000059d4  23bdfff8	addi	r29,r29,#-8
 5992  000059d8  afa20000	sw	(r29),r2
 5993  000059dc  200d002b	addi	r13,r0,#43
 5994  000059e0  afad0004	sw	4(r29),r13
 5995  000059e4  0fffe508	jal	_dindex
 5996  000059e8  54000000	nop; not filled.
 5997  000059ec  23bd0008	addi	r29,r29,#8
 5998  000059f0  64210000	snei	r1,r1,#0
 5999  000059f4  1020002c	beqz	r1,L202_LF5
 6000  000059f8  54000000	nop; not filled.
 6001  000059fc          	L203_LF5:
 6002  000059fc  0fffb8c4	jal	_CurrentIntrs
 6003  00005a00  54000000	nop; not filled.
 6004  00005a04  23bdfff8	addi	r29,r29,#-8
 6005  00005a08  3c0d0000	lhi	r13,((LC23_LF5)>>16)&0xffff
 6006  00005a0c  25ade770	addui	r13,r13,(LC23_LF5)&0xffff
 6007  00005a10  afad0000	sw	(r29),r13
 6008  00005a14  afa10004	sw	4(r29),r1
 6009  00005a18  0c005adc	jal	_printf
 6010  00005a1c  54000000	nop; not filled.
 6011  00005a20  23bd0008	addi	r29,r29,#8
 6012  00005a24          	L202_LF5:
 6013  00005a24  23bdfff8	addi	r29,r29,#-8
 6014  00005a28  afa30000	sw	(r29),r3
 6015  00005a2c  0fffb858	jal	_SetIntrs
 6016  00005a30  54000000	nop; not filled.
 6017  00005a34  23bd0008	addi	r29,r29,#8
 6018  00005a38  23bdfff8	addi	r29,r29,#-8
 6019  00005a3c  3c020000	lhi	r2,((_debugstr)>>16)&0xffff
 6020  00005a40  2442ef7c	addui	r2,r2,(_debugstr)&0xffff
 6021  00005a44  afa20000	sw	(r29),r2
 6022  00005a48  200d0049	addi	r13,r0,#73
 6023  00005a4c  afad0004	sw	4(r29),r13
 6024  00005a50  0fffe49c	jal	_dindex
 6025  00005a54  54000000	nop; not filled.
 6026  00005a58  23bd0008	addi	r29,r29,#8
 6027  00005a5c  64210000	snei	r1,r1,#0
 6028  00005a60  1420002c	bnez	r1,L206_LF5
 6029  00005a64  54000000	nop; not filled.
 6030  00005a68  23bdfff8	addi	r29,r29,#-8
 6031  00005a6c  afa20000	sw	(r29),r2
 6032  00005a70  200d002b	addi	r13,r0,#43
 6033  00005a74  afad0004	sw	4(r29),r13
 6034  00005a78  0fffe474	jal	_dindex
 6035  00005a7c  54000000	nop; not filled.
 6036  00005a80  23bd0008	addi	r29,r29,#8
 6037  00005a84  64210000	snei	r1,r1,#0
 6038  00005a88  1020002c	beqz	r1,L205_LF5
 6039  00005a8c  54000000	nop; not filled.
 6040  00005a90          	L206_LF5:
 6041  00005a90  0fffb830	jal	_CurrentIntrs
 6042  00005a94  54000000	nop; not filled.
 6043  00005a98  23bdfff8	addi	r29,r29,#-8
 6044  00005a9c  3c0d0000	lhi	r13,((LC24_LF5)>>16)&0xffff
 6045  00005aa0  25ade79c	addui	r13,r13,(LC24_LF5)&0xffff
 6046  00005aa4  afad0000	sw	(r29),r13
 6047  00005aa8  afa10004	sw	4(r29),r1
 6048  00005aac  0c005a48	jal	_printf
 6049  00005ab0  54000000	nop; not filled.
 6050  00005ab4  23bd0008	addi	r29,r29,#8
 6051  00005ab8          	L205_LF5:
 6052  00005ab8  23bdfff8	addi	r29,r29,#-8
 6053  00005abc  20810010	addi	r1,r4,#16
 6054  00005ac0  afa10000	sw	(r29),r1
 6055  00005ac4  afac0004	sw	4(r29),r12
 6056  00005ac8  0fffdf64	jal	_dstrcpy
 6057  00005acc  54000000	nop; not filled.
 6058  00005ad0  200d0000	addi	r13,r0,#0
 6059  00005ad4  ac8d0160	sw	352(r4),r13
 6060  00005ad8  23bd0008	addi	r29,r29,#8
 6061  00005adc  00041020	add	r2,r0,r4
 6062  00005ae0  20850008	addi	r5,r4,#8
 6063  00005ae4          	L210_LF5:
 6064  00005ae4  0fffd460	jal	_MemoryAllocPage
 6065  00005ae8  54000000	nop; not filled.
 6066  00005aec  00011820	add	r3,r0,r1
 6067  00005af0  64610000	snei	r1,r3,#0
 6068  00005af4  14200028	bnez	r1,L211_LF5
 6069  00005af8  54000000	nop; not filled.
 6070  00005afc  23bdfff8	addi	r29,r29,#-8
 6071  00005b00  3c0d0000	lhi	r13,((LC25_LF5)>>16)&0xffff
 6072  00005b04  25ade7bc	addui	r13,r13,(LC25_LF5)&0xffff
 6073  00005b08  afad0000	sw	(r29),r13
 6074  00005b0c  0c0059e8	jal	_printf
 6075  00005b10  54000000	nop; not filled.
 6076  00005b14  0c0059c8	jal	_exitsim
 6077  00005b18  54000000	nop; not filled.
 6078  00005b1c  23bd0008	addi	r29,r29,#8
 6079  00005b20          	L211_LF5:
 6080  00005b20  23bdfff8	addi	r29,r29,#-8
 6081  00005b24  afa30000	sw	(r29),r3
 6082  00005b28  0fffdc38	jal	_MemorySetupPte
 6083  00005b2c  54000000	nop; not filled.
 6084  00005b30  ac410060	sw	96(r2),r1
 6085  00005b34  8c810160	lw	r1,352(r4)
 6086  00005b38  20210001	addi	r1,r1,#1
 6087  00005b3c  ac810160	sw	352(r4),r1
 6088  00005b40  23bd0008	addi	r29,r29,#8
 6089  00005b44  20420004	addi	r2,r2,#4
 6090  00005b48  0045082c	sle	r1,r2,r5
 6091  00005b4c  1420ff94	bnez	r1,L210_LF5
 6092  00005b50  54000000	nop; not filled.
 6093  00005b54  23bdfff8	addi	r29,r29,#-8
 6094  00005b58  3c0d0000	lhi	r13,((LC26_LF5)>>16)&0xffff
 6095  00005b5c  25ade7f0	addui	r13,r13,(LC26_LF5)&0xffff
 6096  00005b60  afad0000	sw	(r29),r13
 6097  00005b64  0c005990	jal	_printf
 6098  00005b68  54000000	nop; not filled.
 6099  00005b6c  0fffd3d8	jal	_MemoryAllocPage
 6100  00005b70  54000000	nop; not filled.
 6101  00005b74  00011820	add	r3,r0,r1
 6102  00005b78  8c810160	lw	r1,352(r4)
 6103  00005b7c  20210001	addi	r1,r1,#1
 6104  00005b80  ac810160	sw	352(r4),r1
 6105  00005b84  23bd0008	addi	r29,r29,#8
 6106  00005b88  64610000	snei	r1,r3,#0
 6107  00005b8c  14200028	bnez	r1,L213_LF5
 6108  00005b90  54000000	nop; not filled.
 6109  00005b94  23bdfff8	addi	r29,r29,#-8
 6110  00005b98  3c0d0000	lhi	r13,((LC25_LF5)>>16)&0xffff
 6111  00005b9c  25ade7bc	addui	r13,r13,(LC25_LF5)&0xffff
 6112  00005ba0  afad0000	sw	(r29),r13
 6113  00005ba4  0c005950	jal	_printf
 6114  00005ba8  54000000	nop; not filled.
 6115  00005bac  0c005930	jal	_exitsim
 6116  00005bb0  54000000	nop; not filled.
 6117  00005bb4  23bd0008	addi	r29,r29,#8
 6118  00005bb8          	L213_LF5:
 6119  00005bb8  23bdfff8	addi	r29,r29,#-8
 6120  00005bbc  afa30000	sw	(r29),r3
 6121  00005bc0  0fffdba0	jal	_MemorySetupPte
 6122  00005bc4  54000000	nop; not filled.
 6123  00005bc8  ac81015c	sw	348(r4),r1
 6124  00005bcc  3c0d0000	lhi	r13,((LC27_LF5)>>16)&0xffff
 6125  00005bd0  25ade808	addui	r13,r13,(LC27_LF5)&0xffff
 6126  00005bd4  afad0000	sw	(r29),r13
 6127  00005bd8  0c00591c	jal	_printf
 6128  00005bdc  54000000	nop; not filled.
 6129  00005be0  0fffd364	jal	_MemoryAllocPage
 6130  00005be4  54000000	nop; not filled.
 6131  00005be8  00011820	add	r3,r0,r1
 6132  00005bec  23bd0008	addi	r29,r29,#8
 6133  00005bf0  64610000	snei	r1,r3,#0
 6134  00005bf4  14200028	bnez	r1,L214_LF5
 6135  00005bf8  54000000	nop; not filled.
 6136  00005bfc  23bdfff8	addi	r29,r29,#-8
 6137  00005c00  3c0d0000	lhi	r13,((LC28_LF5)>>16)&0xffff
 6138  00005c04  25ade820	addui	r13,r13,(LC28_LF5)&0xffff
 6139  00005c08  afad0000	sw	(r29),r13
 6140  00005c0c  0c0058e8	jal	_printf
 6141  00005c10  54000000	nop; not filled.
 6142  00005c14  0c0058c8	jal	_exitsim
 6143  00005c18  54000000	nop; not filled.
 6144  00005c1c  23bd0008	addi	r29,r29,#8
 6145  00005c20          	L214_LF5:
 6146  00005c20  5061000d	slli	r1,r3,#0xd
 6147  00005c24  ac810008	sw	8(r4),r1
 6148  00005c28  20281e8c	addi	r8,r1,#7820
 6149  00005c2c  ac880004	sw	4(r4),r8
 6150  00005c30  ac880000	sw	(r4),r8
 6151  00005c34  23bdfff8	addi	r29,r29,#-8
 6152  00005c38  3c020000	lhi	r2,((_debugstr)>>16)&0xffff
 6153  00005c3c  2442ef7c	addui	r2,r2,(_debugstr)&0xffff
 6154  00005c40  afa20000	sw	(r29),r2
 6155  00005c44  200d0070	addi	r13,r0,#112
 6156  00005c48  afad0004	sw	4(r29),r13
 6157  00005c4c  0fffe2a0	jal	_dindex
 6158  00005c50  54000000	nop; not filled.
 6159  00005c54  23bd0008	addi	r29,r29,#8
 6160  00005c58  64210000	snei	r1,r1,#0
 6161  00005c5c  1420002c	bnez	r1,L216_LF5
 6162  00005c60  54000000	nop; not filled.
 6163  00005c64  23bdfff8	addi	r29,r29,#-8
 6164  00005c68  afa20000	sw	(r29),r2
 6165  00005c6c  200d002b	addi	r13,r0,#43
 6166  00005c70  afad0004	sw	4(r29),r13
 6167  00005c74  0fffe278	jal	_dindex
 6168  00005c78  54000000	nop; not filled.
 6169  00005c7c  23bd0008	addi	r29,r29,#8
 6170  00005c80  64210000	snei	r1,r1,#0
 6171  00005c84  10200040	beqz	r1,L215_LF5
 6172  00005c88  54000000	nop; not filled.
 6173  00005c8c          	L216_LF5:
 6174  00005c8c  23bdffe8	addi	r29,r29,#-24
 6175  00005c90  3c0d0000	lhi	r13,((LC29_LF5)>>16)&0xffff
 6176  00005c94  25ade85c	addui	r13,r13,(LC29_LF5)&0xffff
 6177  00005c98  afad0000	sw	(r29),r13
 6178  00005c9c  afa40004	sw	4(r29),r4
 6179  00005ca0  8c8d0008	lw	r13,8(r4)
 6180  00005ca4  afad0008	sw	8(r29),r13
 6181  00005ca8  8c8d0060	lw	r13,96(r4)
 6182  00005cac  afad000c	sw	12(r29),r13
 6183  00005cb0  8c810160	lw	r1,352(r4)
 6184  00005cb4  5021000d	slli	r1,r1,#0xd
 6185  00005cb8  afa10010	sw	16(r29),r1
 6186  00005cbc  0c005838	jal	_printf
 6187  00005cc0  54000000	nop; not filled.
 6188  00005cc4  23bd0018	addi	r29,r29,#24
 6189  00005cc8          	L215_LF5:
 6190  00005cc8  200d0000	addi	r13,r0,#0
 6191  00005ccc  ad0d0028	sw	40(r8),r13
 6192  00005cd0  20810060	addi	r1,r4,#96
 6193  00005cd4  ad010138	sw	312(r8),r1
 6194  00005cd8  200d0040	addi	r13,r0,#64
 6195  00005cdc  ad0d013c	sw	316(r8),r13
 6196  00005ce0  3c0d000d	lhi	r13,#13
 6197  00005ce4  25ad000d	addui	r13,r13,#13
 6198  00005ce8  ad0d0140	sw	320(r8),r13
 6199  00005cec  64c10000	snei	r1,r6,#0
 6200  00005cf0  1020068c	beqz	r1,L217_LF5
 6201  00005cf4  54000000	nop; not filled.
 6202  00005cf8  23bdfff8	addi	r29,r29,#-8
 6203  00005cfc  3c020000	lhi	r2,((_debugstr)>>16)&0xffff
 6204  00005d00  2442ef7c	addui	r2,r2,(_debugstr)&0xffff
 6205  00005d04  afa20000	sw	(r29),r2
 6206  00005d08  200d0070	addi	r13,r0,#112
 6207  00005d0c  afad0004	sw	4(r29),r13
 6208  00005d10  0fffe1dc	jal	_dindex
 6209  00005d14  54000000	nop; not filled.
 6210  00005d18  23bd0008	addi	r29,r29,#8
 6211  00005d1c  64210000	snei	r1,r1,#0
 6212  00005d20  1420002c	bnez	r1,L219_LF5
 6213  00005d24  54000000	nop; not filled.
 6214  00005d28  23bdfff8	addi	r29,r29,#-8
 6215  00005d2c  afa20000	sw	(r29),r2
 6216  00005d30  200d002b	addi	r13,r0,#43
 6217  00005d34  afad0004	sw	4(r29),r13
 6218  00005d38  0fffe1b4	jal	_dindex
 6219  00005d3c  54000000	nop; not filled.
 6220  00005d40  23bd0008	addi	r29,r29,#8
 6221  00005d44  64210000	snei	r1,r1,#0
 6222  00005d48  10200024	beqz	r1,L218_LF5
 6223  00005d4c  54000000	nop; not filled.
 6224  00005d50          	L219_LF5:
 6225  00005d50  23bdfff8	addi	r29,r29,#-8
 6226  00005d54  3c0d0000	lhi	r13,((LC30_LF5)>>16)&0xffff
 6227  00005d58  25ade89c	addui	r13,r13,(LC30_LF5)&0xffff
 6228  00005d5c  afad0000	sw	(r29),r13
 6229  00005d60  afac0004	sw	4(r29),r12
 6230  00005d64  0c005790	jal	_printf
 6231  00005d68  54000000	nop; not filled.
 6232  00005d6c  23bd0008	addi	r29,r29,#8
 6233  00005d70          	L218_LF5:
 6234  00005d70  23bdffe8	addi	r29,r29,#-24
 6235  00005d74  afac0000	sw	(r29),r12
 6236  00005d78  23c1fd6c	addi	r1,r30,#-660
 6237  00005d7c  afa10004	sw	4(r29),r1
 6238  00005d80  23c1fd68	addi	r1,r30,#-664
 6239  00005d84  afa10008	sw	8(r29),r1
 6240  00005d88  23c1fd64	addi	r1,r30,#-668
 6241  00005d8c  afa1000c	sw	12(r29),r1
 6242  00005d90  23c1fd60	addi	r1,r30,#-672
 6243  00005d94  afa10010	sw	16(r29),r1
 6244  00005d98  23c1fd5c	addi	r1,r30,#-676
 6245  00005d9c  afa10014	sw	20(r29),r1
 6246  00005da0  0c0007f8	jal	_ProcessGetCodeInfo
 6247  00005da4  54000000	nop; not filled.
 6248  00005da8  00013020	add	r6,r0,r1
 6249  00005dac  23bd0018	addi	r29,r29,#24
 6250  00005db0  68c10000	slti	r1,r6,#0
 6251  00005db4  10200100	beqz	r1,L220_LF5
 6252  00005db8  54000000	nop; not filled.
 6253  00005dbc  3c030000	lhi	r3,((_freepcbs_LF5)>>16)&0xffff
 6254  00005dc0  2463f048	addui	r3,r3,(_freepcbs_LF5)&0xffff
 6255  00005dc4  20820164	addi	r2,r4,#356
 6256  00005dc8  8c610004	lw	r1,4(r3)
 6257  00005dcc  ac83016c	sw	364(r4),r3
 6258  00005dd0  ac810168	sw	360(r4),r1
 6259  00005dd4  8c2d0000	lw	r13,(r1)
 6260  00005dd8  ac4d0000	sw	(r2),r13
 6261  00005ddc  ac220000	sw	(r1),r2
 6262  00005de0  8c410000	lw	r1,(r2)
 6263  00005de4  ac220004	sw	4(r1),r2
 6264  00005de8  8c610008	lw	r1,8(r3)
 6265  00005dec  20210001	addi	r1,r1,#1
 6266  00005df0  ac610008	sw	8(r3),r1
 6267  00005df4  00041820	add	r3,r0,r4
 6268  00005df8  208500fc	addi	r5,r4,#252
 6269  00005dfc          	L228_LF5:
 6270  00005dfc  20620060	addi	r2,r3,#96
 6271  00005e00  8c410000	lw	r1,(r2)
 6272  00005e04  30210001	andi	r1,r1,#1
 6273  00005e08  10200060	beqz	r1,L227_LF5
 6274  00005e0c  54000000	nop; not filled.
 6275  00005e10  23bdfff8	addi	r29,r29,#-8
 6276  00005e14  3c0d0000	lhi	r13,((LC3_LF5)>>16)&0xffff
 6277  00005e18  25ade4d4	addui	r13,r13,(LC3_LF5)&0xffff
 6278  00005e1c  afad0000	sw	(r29),r13
 6279  00005e20  8c810160	lw	r1,352(r4)
 6280  00005e24  afa10004	sw	4(r29),r1
 6281  00005e28  0c0056cc	jal	_printf
 6282  00005e2c  54000000	nop; not filled.
 6283  00005e30  8c420000	lw	r2,(r2)
 6284  00005e34  afa20000	sw	(r29),r2
 6285  00005e38  0fffd958	jal	_MemoryFreePte
 6286  00005e3c  54000000	nop; not filled.
 6287  00005e40  8c810160	lw	r1,352(r4)
 6288  00005e44  2021ffff	addi	r1,r1,#-1
 6289  00005e48  ac810160	sw	352(r4),r1
 6290  00005e4c  3c0d0000	lhi	r13,((LC4_LF5)>>16)&0xffff
 6291  00005e50  25ade4fc	addui	r13,r13,(LC4_LF5)&0xffff
 6292  00005e54  afad0000	sw	(r29),r13
 6293  00005e58  8c810160	lw	r1,352(r4)
 6294  00005e5c  afa10004	sw	4(r29),r1
 6295  00005e60  0c005694	jal	_printf
 6296  00005e64  54000000	nop; not filled.
 6297  00005e68  23bd0008	addi	r29,r29,#8
 6298  00005e6c          	L227_LF5:
 6299  00005e6c  20630004	addi	r3,r3,#4
 6300  00005e70  0065082c	sle	r1,r3,r5
 6301  00005e74  1420ff84	bnez	r1,L228_LF5
 6302  00005e78  54000000	nop; not filled.
 6303  00005e7c  23bdfff8	addi	r29,r29,#-8
 6304  00005e80  8c810008	lw	r1,8(r4)
 6305  00005e84  5821000d	srli	r1,r1,#0xd
 6306  00005e88  afa10000	sw	(r29),r1
 6307  00005e8c  0fffd380	jal	_MemoryFreePage
 6308  00005e90  54000000	nop; not filled.
 6309  00005e94  23bd0008	addi	r29,r29,#8
 6310  00005e98  8c81000c	lw	r1,12(r4)
 6311  00005e9c  200dffc0	addi	r13,r0,#-64
 6312  00005ea0  002d0824	and	r1,r1,r13
 6313  00005ea4  34210001	ori	r1,r1,#1
 6314  00005ea8  ac81000c	sw	12(r4),r1
 6315  00005eac  2001ffff	addi	r1,r0,#-1
 6316  00005eb0  080006a4	j	L278_LF5
 6317  00005eb4  54000000	nop; not filled.
 6318  00005eb8          	L220_LF5:
 6319  00005eb8  23bdfff8	addi	r29,r29,#-8
 6320  00005ebc  3c020000	lhi	r2,((_debugstr)>>16)&0xffff
 6321  00005ec0  2442ef7c	addui	r2,r2,(_debugstr)&0xffff
 6322  00005ec4  afa20000	sw	(r29),r2
 6323  00005ec8  200d0070	addi	r13,r0,#112
 6324  00005ecc  afad0004	sw	4(r29),r13
 6325  00005ed0  0fffe01c	jal	_dindex
 6326  00005ed4  54000000	nop; not filled.
 6327  00005ed8  23bd0008	addi	r29,r29,#8
 6328  00005edc  64210000	snei	r1,r1,#0
 6329  00005ee0  1420002c	bnez	r1,L233_LF5
 6330  00005ee4  54000000	nop; not filled.
 6331  00005ee8  23bdfff8	addi	r29,r29,#-8
 6332  00005eec  afa20000	sw	(r29),r2
 6333  00005ef0  200d002b	addi	r13,r0,#43
 6334  00005ef4  afad0004	sw	4(r29),r13
 6335  00005ef8  0fffdff4	jal	_dindex
 6336  00005efc  54000000	nop; not filled.
 6337  00005f00  23bd0008	addi	r29,r29,#8
 6338  00005f04  64210000	snei	r1,r1,#0
 6339  00005f08  1020002c	beqz	r1,L232_LF5
 6340  00005f0c  54000000	nop; not filled.
 6341  00005f10          	L233_LF5:
 6342  00005f10  23bdfff0	addi	r29,r29,#-16
 6343  00005f14  3c0d0000	lhi	r13,((LC31_LF5)>>16)&0xffff
 6344  00005f18  25ade8b0	addui	r13,r13,(LC31_LF5)&0xffff
 6345  00005f1c  afad0000	sw	(r29),r13
 6346  00005f20  afac0004	sw	4(r29),r12
 6347  00005f24  8fcdfd6c	lw	r13,-660(r30)
 6348  00005f28  afad0008	sw	8(r29),r13
 6349  00005f2c  0c0055c8	jal	_printf
 6350  00005f30  54000000	nop; not filled.
 6351  00005f34  23bd0010	addi	r29,r29,#16
 6352  00005f38          	L232_LF5:
 6353  00005f38  23bdfff8	addi	r29,r29,#-8
 6354  00005f3c  3c020000	lhi	r2,((_debugstr)>>16)&0xffff
 6355  00005f40  2442ef7c	addui	r2,r2,(_debugstr)&0xffff
 6356  00005f44  afa20000	sw	(r29),r2
 6357  00005f48  200d0070	addi	r13,r0,#112
 6358  00005f4c  afad0004	sw	4(r29),r13
 6359  00005f50  0fffdf9c	jal	_dindex
 6360  00005f54  54000000	nop; not filled.
 6361  00005f58  23bd0008	addi	r29,r29,#8
 6362  00005f5c  64210000	snei	r1,r1,#0
 6363  00005f60  1420002c	bnez	r1,L235_LF5
 6364  00005f64  54000000	nop; not filled.
 6365  00005f68  23bdfff8	addi	r29,r29,#-8
 6366  00005f6c  afa20000	sw	(r29),r2
 6367  00005f70  200d002b	addi	r13,r0,#43
 6368  00005f74  afad0004	sw	4(r29),r13
 6369  00005f78  0fffdf74	jal	_dindex
 6370  00005f7c  54000000	nop; not filled.
 6371  00005f80  23bd0008	addi	r29,r29,#8
 6372  00005f84  64210000	snei	r1,r1,#0
 6373  00005f88  10200034	beqz	r1,L234_LF5
 6374  00005f8c  54000000	nop; not filled.
 6375  00005f90          	L235_LF5:
 6376  00005f90  23bdfff0	addi	r29,r29,#-16
 6377  00005f94  3c0d0000	lhi	r13,((LC32_LF5)>>16)&0xffff
 6378  00005f98  25ade8cc	addui	r13,r13,(LC32_LF5)&0xffff
 6379  00005f9c  afad0000	sw	(r29),r13
 6380  00005fa0  afac0004	sw	4(r29),r12
 6381  00005fa4  8fcdfd68	lw	r13,-664(r30)
 6382  00005fa8  afad0008	sw	8(r29),r13
 6383  00005fac  8fcdfd64	lw	r13,-668(r30)
 6384  00005fb0  afad000c	sw	12(r29),r13
 6385  00005fb4  0c005540	jal	_printf
 6386  00005fb8  54000000	nop; not filled.
 6387  00005fbc  23bd0010	addi	r29,r29,#16
 6388  00005fc0          	L234_LF5:
 6389  00005fc0  23bdfff8	addi	r29,r29,#-8
 6390  00005fc4  3c020000	lhi	r2,((_debugstr)>>16)&0xffff
 6391  00005fc8  2442ef7c	addui	r2,r2,(_debugstr)&0xffff
 6392  00005fcc  afa20000	sw	(r29),r2
 6393  00005fd0  200d0070	addi	r13,r0,#112
 6394  00005fd4  afad0004	sw	4(r29),r13
 6395  00005fd8  0fffdf14	jal	_dindex
 6396  00005fdc  54000000	nop; not filled.
 6397  00005fe0  23bd0008	addi	r29,r29,#8
 6398  00005fe4  64210000	snei	r1,r1,#0
 6399  00005fe8  1420002c	bnez	r1,L237_LF5
 6400  00005fec  54000000	nop; not filled.
 6401  00005ff0  23bdfff8	addi	r29,r29,#-8
 6402  00005ff4  afa20000	sw	(r29),r2
 6403  00005ff8  200d002b	addi	r13,r0,#43
 6404  00005ffc  afad0004	sw	4(r29),r13
 6405  00006000  0fffdeec	jal	_dindex
 6406  00006004  54000000	nop; not filled.
 6407  00006008  23bd0008	addi	r29,r29,#8
 6408  0000600c  64210000	snei	r1,r1,#0
 6409  00006010  10200034	beqz	r1,L236_LF5
 6410  00006014  54000000	nop; not filled.
 6411  00006018          	L237_LF5:
 6412  00006018  23bdfff0	addi	r29,r29,#-16
 6413  0000601c  3c0d0000	lhi	r13,((LC33_LF5)>>16)&0xffff
 6414  00006020  25ade8f4	addui	r13,r13,(LC33_LF5)&0xffff
 6415  00006024  afad0000	sw	(r29),r13
 6416  00006028  afac0004	sw	4(r29),r12
 6417  0000602c  8fcdfd60	lw	r13,-672(r30)
 6418  00006030  afad0008	sw	8(r29),r13
 6419  00006034  8fcdfd5c	lw	r13,-676(r30)
 6420  00006038  afad000c	sw	12(r29),r13
 6421  0000603c  0c0054b8	jal	_printf
 6422  00006040  54000000	nop; not filled.
 6423  00006044  23bd0010	addi	r29,r29,#16
 6424  00006048          	L236_LF5:
 6425  00006048  23c3ff90	addi	r3,r30,#-112
 6426  0000604c  23c7fd58	addi	r7,r30,#-680
 6427  00006050  3c050000	lhi	r5,((_debugstr)>>16)&0xffff
 6428  00006054  24a5ef7c	addui	r5,r5,(_debugstr)&0xffff
 6429  00006058          	L238_LF5:
 6430  00006058  23bdfff0	addi	r29,r29,#-16
 6431  0000605c  afa60000	sw	(r29),r6
 6432  00006060  afa30004	sw	4(r29),r3
 6433  00006064  afa70008	sw	8(r29),r7
 6434  00006068  200d0064	addi	r13,r0,#100
 6435  0000606c  afad000c	sw	12(r29),r13
 6436  00006070  0c000988	jal	_ProcessGetFromFile
 6437  00006074  54000000	nop; not filled.
 6438  00006078  00011020	add	r2,r0,r1
 6439  0000607c  23bd0010	addi	r29,r29,#16
 6440  00006080  6c410000	sgti	r1,r2,#0
 6441  00006084  102000b0	beqz	r1,L239_LF5
 6442  00006088  54000000	nop; not filled.
 6443  0000608c  23bdfff8	addi	r29,r29,#-8
 6444  00006090  afa50000	sw	(r29),r5
 6445  00006094  200d0070	addi	r13,r0,#112
 6446  00006098  afad0004	sw	4(r29),r13
 6447  0000609c  0fffde50	jal	_dindex
 6448  000060a0  54000000	nop; not filled.
 6449  000060a4  23bd0008	addi	r29,r29,#8
 6450  000060a8  64210000	snei	r1,r1,#0
 6451  000060ac  1420002c	bnez	r1,L242_LF5
 6452  000060b0  54000000	nop; not filled.
 6453  000060b4  23bdfff8	addi	r29,r29,#-8
 6454  000060b8  afa50000	sw	(r29),r5
 6455  000060bc  200d002b	addi	r13,r0,#43
 6456  000060c0  afad0004	sw	4(r29),r13
 6457  000060c4  0fffde28	jal	_dindex
 6458  000060c8  54000000	nop; not filled.
 6459  000060cc  23bd0008	addi	r29,r29,#8
 6460  000060d0  64210000	snei	r1,r1,#0
 6461  000060d4  10200030	beqz	r1,L241_LF5
 6462  000060d8  54000000	nop; not filled.
 6463  000060dc          	L242_LF5:
 6464  000060dc  23bdfff0	addi	r29,r29,#-16
 6465  000060e0  3c0d0000	lhi	r13,((LC34_LF5)>>16)&0xffff
 6466  000060e4  25ade91c	addui	r13,r13,(LC34_LF5)&0xffff
 6467  000060e8  afad0000	sw	(r29),r13
 6468  000060ec  afa20004	sw	4(r29),r2
 6469  000060f0  8fc1fd58	lw	r1,-680(r30)
 6470  000060f4  00220822	sub	r1,r1,r2
 6471  000060f8  afa10008	sw	8(r29),r1
 6472  000060fc  0c0053f8	jal	_printf
 6473  00006100  54000000	nop; not filled.
 6474  00006104  23bd0010	addi	r29,r29,#16
 6475  00006108          	L241_LF5:
 6476  00006108  23bdfff0	addi	r29,r29,#-16
 6477  0000610c  afa40000	sw	(r29),r4
 6478  00006110  afa30004	sw	4(r29),r3
 6479  00006114  8fc1fd58	lw	r1,-680(r30)
 6480  00006118  00220822	sub	r1,r1,r2
 6481  0000611c  afa10008	sw	8(r29),r1
 6482  00006120  afa2000c	sw	12(r29),r2
 6483  00006124  0fffd394	jal	_MemoryCopySystemToUser
 6484  00006128  54000000	nop; not filled.
 6485  0000612c  23bd0010	addi	r29,r29,#16
 6486  00006130  0bffff24	j	L238_LF5
 6487  00006134  54000000	nop; not filled.
 6488  00006138          	L239_LF5:
 6489  00006138  23bdfff8	addi	r29,r29,#-8
 6490  0000613c  afa60000	sw	(r29),r6
 6491  00006140  0fffb9b0	jal	_FsClose
 6492  00006144  54000000	nop; not filled.
 6493  00006148  200d0100	addi	r13,r0,#256
 6494  0000614c  ad0d012c	sw	300(r8),r13
 6495  00006150  3c0d0007	lhi	r13,#7
 6496  00006154  25adfc00	addui	r13,r13,#64512
 6497  00006158  ad0d009c	sw	156(r8),r13
 6498  0000615c  23bdfff8	addi	r29,r29,#-8
 6499  00006160  afa40000	sw	(r29),r4
 6500  00006164  afaa0004	sw	4(r29),r10
 6501  00006168  8d0d009c	lw	r13,156(r8)
 6502  0000616c  afad0008	sw	8(r29),r13
 6503  00006170  200d03e0	addi	r13,r0,#992
 6504  00006174  afad000c	sw	12(r29),r13
 6505  00006178  0fffd340	jal	_MemoryCopySystemToUser
 6506  0000617c  54000000	nop; not filled.
 6507  00006180  23bd0010	addi	r29,r29,#16
 6508  00006184  65410000	snei	r1,r10,#0
 6509  00006188  10200020	beqz	r1,L244_LF5
 6510  0000618c  54000000	nop; not filled.
 6511  00006190  3c010000	lhi	r1,((_str52_LF5)>>16)&0xffff
 6512  00006194  2421e6e4	addui	r1,r1,(_str52_LF5)&0xffff
 6513  00006198  ac2a0000	sw	(r1),r10
 6514  0000619c  3c010000	lhi	r1,((_location53_LF5)>>16)&0xffff
 6515  000061a0  2421e6e8	addui	r1,r1,(_location53_LF5)&0xffff
 6516  000061a4  200d0000	addi	r13,r0,#0
 6517  000061a8  ac2d0000	sw	(r1),r13
 6518  000061ac          	L244_LF5:
 6519  000061ac  3c030000	lhi	r3,((_location53_LF5)>>16)&0xffff
 6520  000061b0  2463e6e8	addui	r3,r3,(_location53_LF5)&0xffff
 6521  000061b4  8c650000	lw	r5,(r3)
 6522  000061b8  3c010000	lhi	r1,((_str52_LF5)>>16)&0xffff
 6523  000061bc  2421e6e4	addui	r1,r1,(_str52_LF5)&0xffff
 6524  000061c0  8c220000	lw	r2,(r1)
 6525  000061c4  00450820	add	r1,r2,r5
 6526  000061c8  90210000	lbu	r1,(r1)
 6527  000061cc  64210000	snei	r1,r1,#0
 6528  000061d0  10200010	beqz	r1,L246_LF5
 6529  000061d4  54000000	nop; not filled.
 6530  000061d8  6ca10062	sgti	r1,r5,#98
 6531  000061dc  10200020	beqz	r1,L245_LF5
 6532  000061e0  54000000	nop; not filled.
 6533  000061e4          	L246_LF5:
 6534  000061e4  20030000	addi	r3,r0,#0
 6535  000061e8  08000054	j	L243_LF5
 6536  000061ec  54000000	nop; not filled.
 6537  000061f0          	L279_LF5:
 6538  000061f0  20410001	addi	r1,r2,#1
 6539  000061f4  ac610000	sw	(r3),r1
 6540  000061f8  08000040	j	L248_LF5
 6541  000061fc  54000000	nop; not filled.
 6542  00006200          	L245_LF5:
 6543  00006200  70a10063	slei	r1,r5,#99
 6544  00006204  10200034	beqz	r1,L248_LF5
 6545  00006208  54000000	nop; not filled.
 6546  0000620c  00023020	add	r6,r0,r2
 6547  00006210          	L250_LF5:
 6548  00006210  8c620000	lw	r2,(r3)
 6549  00006214  00c20820	add	r1,r6,r2
 6550  00006218  90210000	lbu	r1,(r1)
 6551  0000621c  64210000	snei	r1,r1,#0
 6552  00006220  1020ffcc	beqz	r1,L279_LF5
 6553  00006224  54000000	nop; not filled.
 6554  00006228  20410001	addi	r1,r2,#1
 6555  0000622c  ac610000	sw	(r3),r1
 6556  00006230  70210063	slei	r1,r1,#99
 6557  00006234  1420ffd8	bnez	r1,L250_LF5
 6558  00006238  54000000	nop; not filled.
 6559  0000623c          	L248_LF5:
 6560  0000623c  00051820	add	r3,r0,r5
 6561  00006240          	L243_LF5:
 6562  00006240  3c020007	lhi	r2,#7
 6563  00006244  2442fc00	addui	r2,r2,#64512
 6564  00006248  00620820	add	r1,r3,r2
 6565  0000624c  afc1fd78	sw	-648(r30),r1
 6566  00006250  20070003	addi	r7,r0,#3
 6567  00006254  3c050000	lhi	r5,((_location53_LF5)>>16)&0xffff
 6568  00006258  24a5e6e8	addui	r5,r5,(_location53_LF5)&0xffff
 6569  0000625c  3c0b0000	lhi	r11,((_str52_LF5)>>16)&0xffff
 6570  00006260  256be6e4	addui	r11,r11,(_str52_LF5)&0xffff
 6571  00006264  00025020	add	r10,r0,r2
 6572  00006268  23c60004	addi	r6,r30,#4
 6573  0000626c          	L253_LF5:
 6574  0000626c  8cbf0000	lw	r31,(r5)
 6575  00006270  8d630000	lw	r3,(r11)
 6576  00006274  007f0820	add	r1,r3,r31
 6577  00006278  90210000	lbu	r1,(r1)
 6578  0000627c  64210000	snei	r1,r1,#0
 6579  00006280  10200010	beqz	r1,L259_LF5
 6580  00006284  54000000	nop; not filled.
 6581  00006288  6fe10062	sgti	r1,r31,#98
 6582  0000628c  10200020	beqz	r1,L258_LF5
 6583  00006290  54000000	nop; not filled.
 6584  00006294          	L259_LF5:
 6585  00006294  20030000	addi	r3,r0,#0
 6586  00006298  08000054	j	L256_LF5
 6587  0000629c  54000000	nop; not filled.
 6588  000062a0          	L280_LF5:
 6589  000062a0  20610001	addi	r1,r3,#1
 6590  000062a4  aca10000	sw	(r5),r1
 6591  000062a8  08000040	j	L261_LF5
 6592  000062ac  54000000	nop; not filled.
 6593  000062b0          	L258_LF5:
 6594  000062b0  73e10063	slei	r1,r31,#99
 6595  000062b4  10200034	beqz	r1,L261_LF5
 6596  000062b8  54000000	nop; not filled.
 6597  000062bc  00031020	add	r2,r0,r3
 6598  000062c0          	L263_LF5:
 6599  000062c0  8ca30000	lw	r3,(r5)
 6600  000062c4  00430820	add	r1,r2,r3
 6601  000062c8  90210000	lbu	r1,(r1)
 6602  000062cc  64210000	snei	r1,r1,#0
 6603  000062d0  1020ffcc	beqz	r1,L280_LF5
 6604  000062d4  54000000	nop; not filled.
 6605  000062d8  20610001	addi	r1,r3,#1
 6606  000062dc  aca10000	sw	(r5),r1
 6607  000062e0  70210063	slei	r1,r1,#99
 6608  000062e4  1420ffd8	bnez	r1,L263_LF5
 6609  000062e8  54000000	nop; not filled.
 6610  000062ec          	L261_LF5:
 6611  000062ec  001f1820	add	r3,r0,r31
 6612  000062f0          	L256_LF5:
 6613  000062f0  006a0820	add	r1,r3,r10
 6614  000062f4  acc1fd78	sw	-648(r6),r1
 6615  000062f8  64610000	snei	r1,r3,#0
 6616  000062fc  10200014	beqz	r1,L254_LF5
 6617  00006300  54000000	nop; not filled.
 6618  00006304  20c60004	addi	r6,r6,#4
 6619  00006308  20e70001	addi	r7,r7,#1
 6620  0000630c  0bffff5c	j	L253_LF5
 6621  00006310  54000000	nop; not filled.
 6622  00006314          	L254_LF5:
 6623  00006314  20e1fffe	addi	r1,r7,#-2
 6624  00006318  afc1fd70	sw	-656(r30),r1
 6625  0000631c  50210002	slli	r1,r1,#0x2
 6626  00006320  01410822	sub	r1,r10,r1
 6627  00006324  afc1fd74	sw	-652(r30),r1
 6628  00006328  23bdfff0	addi	r29,r29,#-16
 6629  0000632c  afa40000	sw	(r29),r4
 6630  00006330  23c1fd70	addi	r1,r30,#-656
 6631  00006334  afa10004	sw	4(r29),r1
 6632  00006338  50e20002	slli	r2,r7,#0x2
 6633  0000633c  8d01009c	lw	r1,156(r8)
 6634  00006340  00220822	sub	r1,r1,r2
 6635  00006344  afa10008	sw	8(r29),r1
 6636  00006348  afa2000c	sw	12(r29),r2
 6637  0000634c  0fffd16c	jal	_MemoryCopySystemToUser
 6638  00006350  54000000	nop; not filled.
 6639  00006354  8d01009c	lw	r1,156(r8)
 6640  00006358  00220822	sub	r1,r1,r2
 6641  0000635c  ad01009c	sw	156(r8),r1
 6642  00006360  8fcdfd6c	lw	r13,-660(r30)
 6643  00006364  ad0d0128	sw	296(r8),r13
 6644  00006368  8c81000c	lw	r1,12(r4)
 6645  0000636c  34210200	ori	r1,r1,#512
 6646  00006370  ac81000c	sw	12(r4),r1
 6647  00006374  23bd0010	addi	r29,r29,#16
 6648  00006378  08000038	j	L267_LF5
 6649  0000637c  54000000	nop; not filled.
 6650  00006380          	L217_LF5:
 6651  00006380  3c0d0000	lhi	r13,((_ProcessExit_LF5)>>16)&0xffff
 6652  00006384  25ad7fcc	addui	r13,r13,(_ProcessExit_LF5)&0xffff
 6653  00006388  ad0d00a4	sw	164(r8),r13
 6654  0000638c  8c810008	lw	r1,8(r4)
 6655  00006390  20211fe0	addi	r1,r1,#8160
 6656  00006394  ad01009c	sw	156(r8),r1
 6657  00006398  ac2a0000	sw	(r1),r10
 6658  0000639c  ad070128	sw	296(r8),r7
 6659  000063a0  200d0140	addi	r13,r0,#320
 6660  000063a4  ad0d012c	sw	300(r8),r13
 6661  000063a8  8c81000c	lw	r1,12(r4)
 6662  000063ac  34210100	ori	r1,r1,#256
 6663  000063b0  ac81000c	sw	12(r4),r1
 6664  000063b4          	L267_LF5:
 6665  000063b4  23bdfff8	addi	r29,r29,#-8
 6666  000063b8  200d000f	addi	r13,r0,#15
 6667  000063bc  afad0000	sw	(r29),r13
 6668  000063c0  0fffaec4	jal	_SetIntrs
 6669  000063c4  54000000	nop; not filled.
 6670  000063c8  23bd0008	addi	r29,r29,#8
 6671  000063cc  3c030000	lhi	r3,((_runQueue_LF5)>>16)&0xffff
 6672  000063d0  2463f054	addui	r3,r3,(_runQueue_LF5)&0xffff
 6673  000063d4  8c620004	lw	r2,4(r3)
 6674  000063d8  ad230008	sw	8(r9),r3
 6675  000063dc  ad220004	sw	4(r9),r2
 6676  000063e0  8c4d0000	lw	r13,(r2)
 6677  000063e4  ad2d0000	sw	(r9),r13
 6678  000063e8  ac490000	sw	(r2),r9
 6679  000063ec  8d220000	lw	r2,(r9)
 6680  000063f0  ac490004	sw	4(r2),r9
 6681  000063f4  8c620008	lw	r2,8(r3)
 6682  000063f8  20420001	addi	r2,r2,#1
 6683  000063fc  ac620008	sw	8(r3),r2
 6684  00006400  23bdfff8	addi	r29,r29,#-8
 6685  00006404  afa10000	sw	(r29),r1
 6686  00006408  0fffae7c	jal	_SetIntrs
 6687  0000640c  54000000	nop; not filled.
 6688  00006410  23bd0008	addi	r29,r29,#8
 6689  00006414  3c010000	lhi	r1,((_currentPCB)>>16)&0xffff
 6690  00006418  2421f044	addui	r1,r1,(_currentPCB)&0xffff
 6691  0000641c  8c210000	lw	r1,(r1)
 6692  00006420  64210000	snei	r1,r1,#0
 6693  00006424  14200090	bnez	r1,L273_LF5
 6694  00006428  54000000	nop; not filled.
 6695  0000642c  23bdfff8	addi	r29,r29,#-8
 6696  00006430  3c020000	lhi	r2,((_debugstr)>>16)&0xffff
 6697  00006434  2442ef7c	addui	r2,r2,(_debugstr)&0xffff
 6698  00006438  afa20000	sw	(r29),r2
 6699  0000643c  200d0070	addi	r13,r0,#112
 6700  00006440  afad0004	sw	4(r29),r13
 6701  00006444  0fffdaa8	jal	_dindex
 6702  00006448  54000000	nop; not filled.
 6703  0000644c  23bd0008	addi	r29,r29,#8
 6704  00006450  64210000	snei	r1,r1,#0
 6705  00006454  1420002c	bnez	r1,L275_LF5
 6706  00006458  54000000	nop; not filled.
 6707  0000645c  23bdfff8	addi	r29,r29,#-8
 6708  00006460  afa20000	sw	(r29),r2
 6709  00006464  200d002b	addi	r13,r0,#43
 6710  00006468  afad0004	sw	4(r29),r13
 6711  0000646c  0fffda80	jal	_dindex
 6712  00006470  54000000	nop; not filled.
 6713  00006474  23bd0008	addi	r29,r29,#8
 6714  00006478  64210000	snei	r1,r1,#0
 6715  0000647c  1020002c	beqz	r1,L274_LF5
 6716  00006480  54000000	nop; not filled.
 6717  00006484          	L275_LF5:
 6718  00006484  23bdfff0	addi	r29,r29,#-16
 6719  00006488  3c0d0000	lhi	r13,((LC35_LF5)>>16)&0xffff
 6720  0000648c  25ade940	addui	r13,r13,(LC35_LF5)&0xffff
 6721  00006490  afad0000	sw	(r29),r13
 6722  00006494  afa40004	sw	4(r29),r4
 6723  00006498  8c8d0000	lw	r13,(r4)
 6724  0000649c  afad0008	sw	8(r29),r13
 6725  000064a0  0c005054	jal	_printf
 6726  000064a4  54000000	nop; not filled.
 6727  000064a8  23bd0010	addi	r29,r29,#16
 6728  000064ac          	L274_LF5:
 6729  000064ac  3c010000	lhi	r1,((_currentPCB)>>16)&0xffff
 6730  000064b0  2421f044	addui	r1,r1,(_currentPCB)&0xffff
 6731  000064b4  ac240000	sw	(r1),r4
 6732  000064b8          	L273_LF5:
 6733  000064b8  23bdfff8	addi	r29,r29,#-8
 6734  000064bc  3c020000	lhi	r2,((_debugstr)>>16)&0xffff
 6735  000064c0  2442ef7c	addui	r2,r2,(_debugstr)&0xffff
 6736  000064c4  afa20000	sw	(r29),r2
 6737  000064c8  200d0070	addi	r13,r0,#112
 6738  000064cc  afad0004	sw	4(r29),r13
 6739  000064d0  0fffda1c	jal	_dindex
 6740  000064d4  54000000	nop; not filled.
 6741  000064d8  23bd0008	addi	r29,r29,#8
 6742  000064dc  64210000	snei	r1,r1,#0
 6743  000064e0  1420002c	bnez	r1,L277_LF5
 6744  000064e4  54000000	nop; not filled.
 6745  000064e8  23bdfff8	addi	r29,r29,#-8
 6746  000064ec  afa20000	sw	(r29),r2
 6747  000064f0  200d002b	addi	r13,r0,#43
 6748  000064f4  afad0004	sw	4(r29),r13
 6749  000064f8  0fffd9f4	jal	_dindex
 6750  000064fc  54000000	nop; not filled.
 6751  00006500  23bd0008	addi	r29,r29,#8
 6752  00006504  64210000	snei	r1,r1,#0
 6753  00006508  10200024	beqz	r1,L276_LF5
 6754  0000650c  54000000	nop; not filled.
 6755  00006510          	L277_LF5:
 6756  00006510  23bdfff8	addi	r29,r29,#-8
 6757  00006514  3c0d0000	lhi	r13,((LC36_LF5)>>16)&0xffff
 6758  00006518  25ade96c	addui	r13,r13,(LC36_LF5)&0xffff
 6759  0000651c  afad0000	sw	(r29),r13
 6760  00006520  afac0004	sw	4(r29),r12
 6761  00006524  0c004fd0	jal	_printf
 6762  00006528  54000000	nop; not filled.
 6763  0000652c  23bd0008	addi	r29,r29,#8
 6764  00006530          	L276_LF5:
 6765  00006530  3c0d0000	lhi	r13,((_pcbs_LF5)>>16)&0xffff
 6766  00006534  25adf078	addui	r13,r13,(_pcbs_LF5)&0xffff
 6767  00006538  008d1022	sub	r2,r4,r13
 6768  0000653c  3c013f4f	lhi	r1,#16207
 6769  00006540  2421d3f5	addui	r1,r1,#54261
 6770  00006544  00400035	movi2fp	f0,r2
 6771  00006548  00200835	movi2fp	f1,r1
 6772  0000654c  0401000e	mult	f0,f0,f1
 6773  00006550  00000834	movfp2i	r1,f0
 6774  00006554  5c210002	srai	r1,r1,#0x2
 6775  00006558          	L278_LF5:
 6776  00006558  8fa20000	lw	r2,0(r29)
 6777  0000655c  8fa30004	lw	r3,4(r29)
 6778  00006560  8fa40008	lw	r4,8(r29)
 6779  00006564  8fa5000c	lw	r5,12(r29)
 6780  00006568  8fa60010	lw	r6,16(r29)
 6781  0000656c  8fa70014	lw	r7,20(r29)
 6782  00006570  8fa80018	lw	r8,24(r29)
 6783  00006574  8fa9001c	lw	r9,28(r29)
 6784  00006578  8faa0020	lw	r10,32(r29)
 6785  0000657c  8fab0024	lw	r11,36(r29)
 6786  00006580  8fac0028	lw	r12,40(r29)
 6787  00006584  8fad002c	lw	r13,44(r29)
 6788  00006588  8fdffff8	lw	r31,-8(r30)
 6789  0000658c  001ee820	add	r29,r0,r30
 6790  00006590  8fdefffc	lw	r30,-4(r30)
 6791  00006594  4be00000	jr	r31
 6792  00006598  54000000	nop
 6793  0000659c          	.endproc _ProcessFork
 6794  0000659c          	.data
 6795  0000e986          	.align 2
 6796  0000e988          	LC37_LF5:
 6797  0000e988  50726f63	.ascii "ProcessGetCodeInfo: open of %s failed (%d).\n\000"
 6797  0000e98c  65737347	
 6797  0000e990  6574436f	
 6797  0000e994  6465496e	
 6797  0000e998  666f3a20	
 6797  0000e99c  6f70656e	
 6797  0000e9a0  206f6620	
 6797  0000e9a4  25732066	
 6797  0000e9a8  61696c65	
 6797  0000e9ac  64202825	
 6797  0000e9b0  64292e0a	
 6797  0000e9b4  00      	
 6798  0000e9b5          	.align 2
 6799  0000e9b8          	LC38_LF5:
 6800  0000e9b8  46696c65	.ascii "File descriptor is now %d.\n\000"
 6800  0000e9bc  20646573	
 6800  0000e9c0  63726970	
 6800  0000e9c4  746f7220	
 6800  0000e9c8  6973206e	
 6800  0000e9cc  6f772025	
 6800  0000e9d0  642e0a00	
 6801  0000e9d4          	.align 2
 6802  0000e9d4          	LC39_LF5:
 6803  0000e9d4  50726f63	.ascii "ProcessGetCodeInfo: read got %d (not %d) bytes from %s\n\000"
 6803  0000e9d8  65737347	
 6803  0000e9dc  6574436f	
 6803  0000e9e0  6465496e	
 6803  0000e9e4  666f3a20	
 6803  0000e9e8  72656164	
 6803  0000e9ec  20676f74	
 6803  0000e9f0  20256420	
 6803  0000e9f4  286e6f74	
 6803  0000e9f8  20256429	
 6803  0000e9fc  20627974	
 6803  0000ea00  65732066	
 6803  0000ea04  726f6d20	
 6803  0000ea08  25730a00	
 6804  0000ea0c          	.align 2
 6805  0000ea0c          	LC40_LF5:
 6806  0000ea0c  73746172	.ascii "start:\000"
 6806  0000ea10  743a00  	
 6807  0000ea13          	.align 2
 6808  0000ea14          	LC41_LF5:
 6809  0000ea14  50726f63	.ascii "ProcessGetCodeInfo: %s missing start line (not a DLX executable?)\n\000"
 6809  0000ea18  65737347	
 6809  0000ea1c  6574436f	
 6809  0000ea20  6465496e	
 6809  0000ea24  666f3a20	
 6809  0000ea28  2573206d	
 6809  0000ea2c  69737369	
 6809  0000ea30  6e672073	
 6809  0000ea34  74617274	
 6809  0000ea38  206c696e	
 6809  0000ea3c  6520286e	
 6809  0000ea40  6f742061	
 6809  0000ea44  20444c58	
 6809  0000ea48  20657865	
 6809  0000ea4c  63757461	
 6809  0000ea50  626c653f	
 6809  0000ea54  290a00  	
 6810  0000ea57          	.text
 6811  0000659c          	.align 2
 6812  0000659c          	.proc _ProcessGetCodeInfo
 6813  0000659c          	.global _ProcessGetCodeInfo
 6814  0000659c          	_ProcessGetCodeInfo:
 6815                      ;  Function 'ProcessGetCodeInfo'; 112 bytes of locals, 11 regs to save.
 6816  0000659c  afbefffc	sw	-4(r29),r30; push fp
 6817  000065a0  001df020	add	r30,r0,r29; fp = sp
 6818  000065a4  afbffff8	sw	-8(r29),r31; push ret addr
 6819  000065a8  2fbd00a8	subui	r29,r29,#168; alloc local storage
 6820  000065ac  afa20000	sw	0(r29),r2
 6821  000065b0  afa30004	sw	4(r29),r3
 6822  000065b4  afa40008	sw	8(r29),r4
 6823  000065b8  afa5000c	sw	12(r29),r5
 6824  000065bc  afa60010	sw	16(r29),r6
 6825  000065c0  afa70014	sw	20(r29),r7
 6826  000065c4  afa80018	sw	24(r29),r8
 6827  000065c8  afa9001c	sw	28(r29),r9
 6828  000065cc  afaa0020	sw	32(r29),r10
 6829  000065d0  afab0024	sw	36(r29),r11
 6830  000065d4  afac0028	sw	40(r29),r12
 6831  000065d8  8fc60000	lw	r6,(r30)
 6832  000065dc  8fc70004	lw	r7,4(r30)
 6833  000065e0  8fc80008	lw	r8,8(r30)
 6834  000065e4  8fc9000c	lw	r9,12(r30)
 6835  000065e8  8fca0010	lw	r10,16(r30)
 6836  000065ec  8fcb0014	lw	r11,20(r30)
 6837  000065f0  23bdfff8	addi	r29,r29,#-8
 6838  000065f4  afa60000	sw	(r29),r6
 6839  000065f8  200c0001	addi	r12,r0,#1
 6840  000065fc  afac0004	sw	4(r29),r12
 6841  00006600  0fffb194	jal	_FsOpen
 6842  00006604  54000000	nop; not filled.
 6843  00006608  00011820	add	r3,r0,r1
 6844  0000660c  23bd0008	addi	r29,r29,#8
 6845  00006610  68610000	slti	r1,r3,#0
 6846  00006614  10200088	beqz	r1,L289_LF5
 6847  00006618  54000000	nop; not filled.
 6848  0000661c  23bdfff8	addi	r29,r29,#-8
 6849  00006620  3c020000	lhi	r2,((_debugstr)>>16)&0xffff
 6850  00006624  2442ef7c	addui	r2,r2,(_debugstr)&0xffff
 6851  00006628  afa20000	sw	(r29),r2
 6852  0000662c  200c0066	addi	r12,r0,#102
 6853  00006630  afac0004	sw	4(r29),r12
 6854  00006634  0fffd8b8	jal	_dindex
 6855  00006638  54000000	nop; not filled.
 6856  0000663c  23bd0008	addi	r29,r29,#8
 6857  00006640  64210000	snei	r1,r1,#0
 6858  00006644  1420002c	bnez	r1,L291_LF5
 6859  00006648  54000000	nop; not filled.
 6860  0000664c  23bdfff8	addi	r29,r29,#-8
 6861  00006650  afa20000	sw	(r29),r2
 6862  00006654  200c002b	addi	r12,r0,#43
 6863  00006658  afac0004	sw	4(r29),r12
 6864  0000665c  0fffd890	jal	_dindex
 6865  00006660  54000000	nop; not filled.
 6866  00006664  23bd0008	addi	r29,r29,#8
 6867  00006668  64210000	snei	r1,r1,#0
 6868  0000666c  10200224	beqz	r1,L298_LF5
 6869  00006670  54000000	nop; not filled.
 6870  00006674          	L291_LF5:
 6871  00006674  23bdfff0	addi	r29,r29,#-16
 6872  00006678  3c0c0000	lhi	r12,((LC37_LF5)>>16)&0xffff
 6873  0000667c  258ce988	addui	r12,r12,(LC37_LF5)&0xffff
 6874  00006680  afac0000	sw	(r29),r12
 6875  00006684  afa60004	sw	4(r29),r6
 6876  00006688  afa30008	sw	8(r29),r3
 6877  0000668c  0c004e68	jal	_printf
 6878  00006690  54000000	nop; not filled.
 6879  00006694  23bd0010	addi	r29,r29,#16
 6880  00006698  080001f8	j	L298_LF5
 6881  0000669c  54000000	nop; not filled.
 6882  000066a0          	L289_LF5:
 6883  000066a0  23bdfff8	addi	r29,r29,#-8
 6884  000066a4  3c020000	lhi	r2,((_debugstr)>>16)&0xffff
 6885  000066a8  2442ef7c	addui	r2,r2,(_debugstr)&0xffff
 6886  000066ac  afa20000	sw	(r29),r2
 6887  000066b0  200c0066	addi	r12,r0,#102
 6888  000066b4  afac0004	sw	4(r29),r12
 6889  000066b8  0fffd834	jal	_dindex
 6890  000066bc  54000000	nop; not filled.
 6891  000066c0  23bd0008	addi	r29,r29,#8
 6892  000066c4  64210000	snei	r1,r1,#0
 6893  000066c8  1420002c	bnez	r1,L293_LF5
 6894  000066cc  54000000	nop; not filled.
 6895  000066d0  23bdfff8	addi	r29,r29,#-8
 6896  000066d4  afa20000	sw	(r29),r2
 6897  000066d8  200c002b	addi	r12,r0,#43
 6898  000066dc  afac0004	sw	4(r29),r12
 6899  000066e0  0fffd80c	jal	_dindex
 6900  000066e4  54000000	nop; not filled.
 6901  000066e8  23bd0008	addi	r29,r29,#8
 6902  000066ec  64210000	snei	r1,r1,#0
 6903  000066f0  10200024	beqz	r1,L292_LF5
 6904  000066f4  54000000	nop; not filled.
 6905  000066f8          	L293_LF5:
 6906  000066f8  23bdfff8	addi	r29,r29,#-8
 6907  000066fc  3c0c0000	lhi	r12,((LC38_LF5)>>16)&0xffff
 6908  00006700  258ce9b8	addui	r12,r12,(LC38_LF5)&0xffff
 6909  00006704  afac0000	sw	(r29),r12
 6910  00006708  afa30004	sw	4(r29),r3
 6911  0000670c  0c004de8	jal	_printf
 6912  00006710  54000000	nop; not filled.
 6913  00006714  23bd0008	addi	r29,r29,#8
 6914  00006718          	L292_LF5:
 6915  00006718  23bdfff0	addi	r29,r29,#-16
 6916  0000671c  afa30000	sw	(r29),r3
 6917  00006720  23c4ff90	addi	r4,r30,#-112
 6918  00006724  afa40004	sw	4(r29),r4
 6919  00006728  200c0064	addi	r12,r0,#100
 6920  0000672c  afac0008	sw	8(r29),r12
 6921  00006730  0fffb4c8	jal	_FsRead
 6922  00006734  54000000	nop; not filled.
 6923  00006738  00012820	add	r5,r0,r1
 6924  0000673c  23bd0010	addi	r29,r29,#16
 6925  00006740  64a10064	snei	r1,r5,#100
 6926  00006744  102000a8	beqz	r1,L294_LF5
 6927  00006748  54000000	nop; not filled.
 6928  0000674c  23bdfff8	addi	r29,r29,#-8
 6929  00006750  3c020000	lhi	r2,((_debugstr)>>16)&0xffff
 6930  00006754  2442ef7c	addui	r2,r2,(_debugstr)&0xffff
 6931  00006758  afa20000	sw	(r29),r2
 6932  0000675c  200c0066	addi	r12,r0,#102
 6933  00006760  afac0004	sw	4(r29),r12
 6934  00006764  0fffd788	jal	_dindex
 6935  00006768  54000000	nop; not filled.
 6936  0000676c  23bd0008	addi	r29,r29,#8
 6937  00006770  64210000	snei	r1,r1,#0
 6938  00006774  1420002c	bnez	r1,L296_LF5
 6939  00006778  54000000	nop; not filled.
 6940  0000677c  23bdfff8	addi	r29,r29,#-8
 6941  00006780  afa20000	sw	(r29),r2
 6942  00006784  200c002b	addi	r12,r0,#43
 6943  00006788  afac0004	sw	4(r29),r12
 6944  0000678c  0fffd760	jal	_dindex
 6945  00006790  54000000	nop; not filled.
 6946  00006794  23bd0008	addi	r29,r29,#8
 6947  00006798  64210000	snei	r1,r1,#0
 6948  0000679c  10200030	beqz	r1,L295_LF5
 6949  000067a0  54000000	nop; not filled.
 6950  000067a4          	L296_LF5:
 6951  000067a4  23bdfff0	addi	r29,r29,#-16
 6952  000067a8  3c0c0000	lhi	r12,((LC39_LF5)>>16)&0xffff
 6953  000067ac  258ce9d4	addui	r12,r12,(LC39_LF5)&0xffff
 6954  000067b0  afac0000	sw	(r29),r12
 6955  000067b4  afa50004	sw	4(r29),r5
 6956  000067b8  200c0064	addi	r12,r0,#100
 6957  000067bc  afac0008	sw	8(r29),r12
 6958  000067c0  afa6000c	sw	12(r29),r6
 6959  000067c4  0c004d30	jal	_printf
 6960  000067c8  54000000	nop; not filled.
 6961  000067cc  23bd0010	addi	r29,r29,#16
 6962  000067d0          	L295_LF5:
 6963  000067d0  23bdfff8	addi	r29,r29,#-8
 6964  000067d4  afa30000	sw	(r29),r3
 6965  000067d8  0fffb318	jal	_FsClose
 6966  000067dc  54000000	nop; not filled.
 6967  000067e0  2001ffff	addi	r1,r0,#-1
 6968  000067e4  23bd0008	addi	r29,r29,#8
 6969  000067e8  080001d0	j	L288_LF5
 6970  000067ec  54000000	nop; not filled.
 6971  000067f0          	L294_LF5:
 6972  000067f0  23bdfff8	addi	r29,r29,#-8
 6973  000067f4  afa40000	sw	(r29),r4
 6974  000067f8  3c010000	lhi	r1,((LC40_LF5)>>16)&0xffff
 6975  000067fc  2421ea0c	addui	r1,r1,(LC40_LF5)&0xffff
 6976  00006800  afa10004	sw	4(r29),r1
 6977  00006804  0fffd4d0	jal	_dstrstr
 6978  00006808  54000000	nop; not filled.
 6979  0000680c  23bd0008	addi	r29,r29,#8
 6980  00006810  64210000	snei	r1,r1,#0
 6981  00006814  14200088	bnez	r1,L297_LF5
 6982  00006818  54000000	nop; not filled.
 6983  0000681c  23bdfff8	addi	r29,r29,#-8
 6984  00006820  3c020000	lhi	r2,((_debugstr)>>16)&0xffff
 6985  00006824  2442ef7c	addui	r2,r2,(_debugstr)&0xffff
 6986  00006828  afa20000	sw	(r29),r2
 6987  0000682c  200c0066	addi	r12,r0,#102
 6988  00006830  afac0004	sw	4(r29),r12
 6989  00006834  0fffd6b8	jal	_dindex
 6990  00006838  54000000	nop; not filled.
 6991  0000683c  23bd0008	addi	r29,r29,#8
 6992  00006840  64210000	snei	r1,r1,#0
 6993  00006844  1420002c	bnez	r1,L299_LF5
 6994  00006848  54000000	nop; not filled.
 6995  0000684c  23bdfff8	addi	r29,r29,#-8
 6996  00006850  afa20000	sw	(r29),r2
 6997  00006854  200c002b	addi	r12,r0,#43
 6998  00006858  afac0004	sw	4(r29),r12
 6999  0000685c  0fffd690	jal	_dindex
 7000  00006860  54000000	nop; not filled.
 7001  00006864  23bd0008	addi	r29,r29,#8
 7002  00006868  64210000	snei	r1,r1,#0
 7003  0000686c  10200024	beqz	r1,L298_LF5
 7004  00006870  54000000	nop; not filled.
 7005  00006874          	L299_LF5:
 7006  00006874  23bdfff8	addi	r29,r29,#-8
 7007  00006878  3c0c0000	lhi	r12,((LC41_LF5)>>16)&0xffff
 7008  0000687c  258cea14	addui	r12,r12,(LC41_LF5)&0xffff
 7009  00006880  afac0000	sw	(r29),r12
 7010  00006884  afa60004	sw	4(r29),r6
 7011  00006888  0c004c6c	jal	_printf
 7012  0000688c  54000000	nop; not filled.
 7013  00006890  23bd0008	addi	r29,r29,#8
 7014  00006894          	L298_LF5:
 7015  00006894  2001ffff	addi	r1,r0,#-1
 7016  00006898  08000120	j	L288_LF5
 7017  0000689c  54000000	nop; not filled.
 7018  000068a0          	L297_LF5:
 7019  000068a0  23bdfff8	addi	r29,r29,#-8
 7020  000068a4  afa40000	sw	(r29),r4
 7021  000068a8  200c003a	addi	r12,r0,#58
 7022  000068ac  afac0004	sw	4(r29),r12
 7023  000068b0  0fffd63c	jal	_dindex
 7024  000068b4  54000000	nop; not filled.
 7025  000068b8  20210001	addi	r1,r1,#1
 7026  000068bc  afc1ff8c	sw	-116(r30),r1
 7027  000068c0  23bdfff8	addi	r29,r29,#-8
 7028  000068c4  afa10000	sw	(r29),r1
 7029  000068c8  23c2ff8c	addi	r2,r30,#-116
 7030  000068cc  afa20004	sw	4(r29),r2
 7031  000068d0  200c0010	addi	r12,r0,#16
 7032  000068d4  afac0008	sw	8(r29),r12
 7033  000068d8  0fffd79c	jal	_dstrtol
 7034  000068dc  54000000	nop; not filled.
 7035  000068e0  ace10000	sw	(r7),r1
 7036  000068e4  8fccff8c	lw	r12,-116(r30)
 7037  000068e8  afac0000	sw	(r29),r12
 7038  000068ec  afa20004	sw	4(r29),r2
 7039  000068f0  200c0010	addi	r12,r0,#16
 7040  000068f4  afac0008	sw	8(r29),r12
 7041  000068f8  0fffd77c	jal	_dstrtol
 7042  000068fc  54000000	nop; not filled.
 7043  00006900  8fccff8c	lw	r12,-116(r30)
 7044  00006904  afac0000	sw	(r29),r12
 7045  00006908  afa20004	sw	4(r29),r2
 7046  0000690c  200c0010	addi	r12,r0,#16
 7047  00006910  afac0008	sw	8(r29),r12
 7048  00006914  0fffd760	jal	_dstrtol
 7049  00006918  54000000	nop; not filled.
 7050  0000691c  ad010000	sw	(r8),r1
 7051  00006920  8fccff8c	lw	r12,-116(r30)
 7052  00006924  afac0000	sw	(r29),r12
 7053  00006928  afa20004	sw	4(r29),r2
 7054  0000692c  200c0010	addi	r12,r0,#16
 7055  00006930  afac0008	sw	8(r29),r12
 7056  00006934  0fffd740	jal	_dstrtol
 7057  00006938  54000000	nop; not filled.
 7058  0000693c  ad210000	sw	(r9),r1
 7059  00006940  8fccff8c	lw	r12,-116(r30)
 7060  00006944  afac0000	sw	(r29),r12
 7061  00006948  afa20004	sw	4(r29),r2
 7062  0000694c  200c0010	addi	r12,r0,#16
 7063  00006950  afac0008	sw	8(r29),r12
 7064  00006954  0fffd720	jal	_dstrtol
 7065  00006958  54000000	nop; not filled.
 7066  0000695c  ad410000	sw	(r10),r1
 7067  00006960  8fccff8c	lw	r12,-116(r30)
 7068  00006964  afac0000	sw	(r29),r12
 7069  00006968  afa20004	sw	4(r29),r2
 7070  0000696c  200c0010	addi	r12,r0,#16
 7071  00006970  afac0008	sw	8(r29),r12
 7072  00006974  0fffd700	jal	_dstrtol
 7073  00006978  54000000	nop; not filled.
 7074  0000697c  ad610000	sw	(r11),r1
 7075  00006980  afa40000	sw	(r29),r4
 7076  00006984  200c000a	addi	r12,r0,#10
 7077  00006988  afac0004	sw	4(r29),r12
 7078  0000698c  0fffd560	jal	_dindex
 7079  00006990  54000000	nop; not filled.
 7080  00006994  23c2ff8f	addi	r2,r30,#-113
 7081  00006998  00220822	sub	r1,r1,r2
 7082  0000699c  afa30000	sw	(r29),r3
 7083  000069a0  afa10004	sw	4(r29),r1
 7084  000069a4  200c0000	addi	r12,r0,#0
 7085  000069a8  afac0008	sw	8(r29),r12
 7086  000069ac  0fffb444	jal	_FsSeek
 7087  000069b0  54000000	nop; not filled.
 7088  000069b4  00030820	add	r1,r0,r3
 7089  000069b8  23bd0010	addi	r29,r29,#16
 7090  000069bc          	L288_LF5:
 7091  000069bc  8fa20000	lw	r2,0(r29)
 7092  000069c0  8fa30004	lw	r3,4(r29)
 7093  000069c4  8fa40008	lw	r4,8(r29)
 7094  000069c8  8fa5000c	lw	r5,12(r29)
 7095  000069cc  8fa60010	lw	r6,16(r29)
 7096  000069d0  8fa70014	lw	r7,20(r29)
 7097  000069d4  8fa80018	lw	r8,24(r29)
 7098  000069d8  8fa9001c	lw	r9,28(r29)
 7099  000069dc  8faa0020	lw	r10,32(r29)
 7100  000069e0  8fab0024	lw	r11,36(r29)
 7101  000069e4  8fac0028	lw	r12,40(r29)
 7102  000069e8  8fdffff8	lw	r31,-8(r30)
 7103  000069ec  001ee820	add	r29,r0,r30
 7104  000069f0  8fdefffc	lw	r30,-4(r30)
 7105  000069f4  4be00000	jr	r31
 7106  000069f8  54000000	nop
 7107  000069fc          	.endproc _ProcessGetCodeInfo
 7108  000069fc          	.data
 7109  0000ea57          	.align 2
 7110  0000ea58          	LC42_LF5:
 7111  0000ea58  476f7420	.ascii "Got %d bytes at offset %d ...\000"
 7111  0000ea5c  25642062	
 7111  0000ea60  79746573	
 7111  0000ea64  20617420	
 7111  0000ea68  6f666673	
 7111  0000ea6c  65742025	
 7111  0000ea70  64202e2e	
 7111  0000ea74  2e00    	
 7112  0000ea76          	.align 2
 7113  0000ea78          	LC43_LF5:
 7114  0000ea78  20746572	.ascii " terminated at %d.\n\000"
 7114  0000ea7c  6d696e61	
 7114  0000ea80  74656420	
 7114  0000ea84  61742025	
 7114  0000ea88  642e0a00	
 7115  0000ea8c          	.align 2
 7116  0000ea8c          	LC44_LF5:
 7117  0000ea8c  42756666	.ascii "Buffer is \'%s\'\n\000"
 7117  0000ea90  65722069	
 7117  0000ea94  73202725	
 7117  0000ea98  73270a00	
 7118  0000ea9c          	.align 2
 7119  0000ea9c          	LC45_LF5:
 7120  0000ea9c  4e657720	.ascii "New address is 0x%x.\n\000"
 7120  0000eaa0  61646472	
 7120  0000eaa4  65737320	
 7120  0000eaa8  69732030	
 7120  0000eaac  7825782e	
 7120  0000eab0  0a00    	
 7121  0000eab2          	.align 2
 7122  0000eab4          	LC46_LF5:
 7123  0000eab4  5365656b	.ascii "Seeking to %d and returning %d bytes!\n\000"
 7123  0000eab8  696e6720	
 7123  0000eabc  746f2025	
 7123  0000eac0  6420616e	
 7123  0000eac4  64207265	
 7123  0000eac8  7475726e	
 7123  0000eacc  696e6720	
 7123  0000ead0  25642062	
 7123  0000ead4  79746573	
 7123  0000ead8  210a00  	
 7124  0000eadb          	.text
 7125  000069fc          	.align 2
 7126  000069fc          	.proc _ProcessGetFromFile
 7127  000069fc          	.global _ProcessGetFromFile
 7128  000069fc          	_ProcessGetFromFile:
 7129                      ;  Function 'ProcessGetFromFile'; 216 bytes of locals, 11 regs to save.
 7130  000069fc  afbefffc	sw	-4(r29),r30; push fp
 7131  00006a00  001df020	add	r30,r0,r29; fp = sp
 7132  00006a04  afbffff8	sw	-8(r29),r31; push ret addr
 7133  00006a08  2fbd0110	subui	r29,r29,#272; alloc local storage
 7134  00006a0c  afa20000	sw	0(r29),r2
 7135  00006a10  afa30004	sw	4(r29),r3
 7136  00006a14  afa40008	sw	8(r29),r4
 7137  00006a18  afa5000c	sw	12(r29),r5
 7138  00006a1c  afa60010	sw	16(r29),r6
 7139  00006a20  afa70014	sw	20(r29),r7
 7140  00006a24  afa80018	sw	24(r29),r8
 7141  00006a28  afa9001c	sw	28(r29),r9
 7142  00006a2c  afaa0020	sw	32(r29),r10
 7143  00006a30  afab0024	sw	36(r29),r11
 7144  00006a34  afac0028	sw	40(r29),r12
 7145  00006a38  8fca0000	lw	r10,(r30)
 7146  00006a3c  8fc70008	lw	r7,8(r30)
 7147  00006a40  8fc2000c	lw	r2,12(r30)
 7148  00006a44  8fcb0004	lw	r11,4(r30)
 7149  00006a48  23c3ff28	addi	r3,r30,#-216
 7150  00006a4c  afc3ff24	sw	-220(r30),r3
 7151  00006a50  23bdfff0	addi	r29,r29,#-16
 7152  00006a54  afaa0000	sw	(r29),r10
 7153  00006a58  200c0000	addi	r12,r0,#0
 7154  00006a5c  afac0004	sw	4(r29),r12
 7155  00006a60  200c0001	addi	r12,r0,#1
 7156  00006a64  afac0008	sw	8(r29),r12
 7157  00006a68  0fffb388	jal	_FsSeek
 7158  00006a6c  54000000	nop; not filled.
 7159  00006a70  00014820	add	r9,r0,r1
 7160  00006a74  50420001	slli	r2,r2,#0x1
 7161  00006a78  23bd0010	addi	r29,r29,#16
 7162  00006a7c  6c4100c8	sgtui	r1,r2,#200
 7163  00006a80  10200008	beqz	r1,L302_LF5
 7164  00006a84  54000000	nop; not filled.
 7165  00006a88  200200c8	addi	r2,r0,#200
 7166  00006a8c          	L302_LF5:
 7167  00006a8c  23bdfff0	addi	r29,r29,#-16
 7168  00006a90  afaa0000	sw	(r29),r10
 7169  00006a94  afa30004	sw	4(r29),r3
 7170  00006a98  afa20008	sw	8(r29),r2
 7171  00006a9c  0fffb15c	jal	_FsRead
 7172  00006aa0  54000000	nop; not filled.
 7173  00006aa4  00012820	add	r5,r0,r1
 7174  00006aa8  23bd0010	addi	r29,r29,#16
 7175  00006aac  70a10000	slei	r1,r5,#0
 7176  00006ab0  10200010	beqz	r1,L303_LF5
 7177  00006ab4  54000000	nop; not filled.
 7178  00006ab8  20010000	addi	r1,r0,#0
 7179  00006abc  08000594	j	L357_LF5
 7180  00006ac0  54000000	nop; not filled.
 7181  00006ac4          	L303_LF5:
 7182  00006ac4  23bdfff8	addi	r29,r29,#-8
 7183  00006ac8  3c020000	lhi	r2,((_debugstr)>>16)&0xffff
 7184  00006acc  2442ef7c	addui	r2,r2,(_debugstr)&0xffff
 7185  00006ad0  afa20000	sw	(r29),r2
 7186  00006ad4  200c0066	addi	r12,r0,#102
 7187  00006ad8  afac0004	sw	4(r29),r12
 7188  00006adc  0fffd410	jal	_dindex
 7189  00006ae0  54000000	nop; not filled.
 7190  00006ae4  23bd0008	addi	r29,r29,#8
 7191  00006ae8  64210000	snei	r1,r1,#0
 7192  00006aec  1420002c	bnez	r1,L305_LF5
 7193  00006af0  54000000	nop; not filled.
 7194  00006af4  23bdfff8	addi	r29,r29,#-8
 7195  00006af8  afa20000	sw	(r29),r2
 7196  00006afc  200c002b	addi	r12,r0,#43
 7197  00006b00  afac0004	sw	4(r29),r12
 7198  00006b04  0fffd3e8	jal	_dindex
 7199  00006b08  54000000	nop; not filled.
 7200  00006b0c  23bd0008	addi	r29,r29,#8
 7201  00006b10  64210000	snei	r1,r1,#0
 7202  00006b14  10200028	beqz	r1,L304_LF5
 7203  00006b18  54000000	nop; not filled.
 7204  00006b1c          	L305_LF5:
 7205  00006b1c  23bdfff0	addi	r29,r29,#-16
 7206  00006b20  3c0c0000	lhi	r12,((LC42_LF5)>>16)&0xffff
 7207  00006b24  258cea58	addui	r12,r12,(LC42_LF5)&0xffff
 7208  00006b28  afac0000	sw	(r29),r12
 7209  00006b2c  afa50004	sw	4(r29),r5
 7210  00006b30  afa90008	sw	8(r29),r9
 7211  00006b34  0c0049c0	jal	_printf
 7212  00006b38  54000000	nop; not filled.
 7213  00006b3c  23bd0010	addi	r29,r29,#16
 7214  00006b40          	L304_LF5:
 7215  00006b40  20a5ffff	addi	r5,r5,#-1
 7216  00006b44  23c1ff28	addi	r1,r30,#-216
 7217  00006b48  00251020	add	r2,r1,r5
 7218  00006b4c  0800000c	j	L360_LF5
 7219  00006b50  54000000	nop; not filled.
 7220  00006b54          	L306_LF5:
 7221  00006b54  2042ffff	addi	r2,r2,#-1
 7222  00006b58  20a5ffff	addi	r5,r5,#-1
 7223  00006b5c          	L360_LF5:
 7224  00006b5c  90410000	lbu	r1,(r2)
 7225  00006b60  6421000a	snei	r1,r1,#10
 7226  00006b64  1420ffec	bnez	r1,L306_LF5
 7227  00006b68  54000000	nop; not filled.
 7228  00006b6c  23c1ff29	addi	r1,r30,#-215
 7229  00006b70  00250820	add	r1,r1,r5
 7230  00006b74  200c005a	addi	r12,r0,(#0x5a)&0xff
 7231  00006b78  a02c0000	sb	(r1),r12
 7232  00006b7c  23c1ff2a	addi	r1,r30,#-214
 7233  00006b80  00250820	add	r1,r1,r5
 7234  00006b84  200c0000	addi	r12,r0,(#0x0)&0xff
 7235  00006b88  a02c0000	sb	(r1),r12
 7236  00006b8c  23bdfff8	addi	r29,r29,#-8
 7237  00006b90  3c020000	lhi	r2,((_debugstr)>>16)&0xffff
 7238  00006b94  2442ef7c	addui	r2,r2,(_debugstr)&0xffff
 7239  00006b98  afa20000	sw	(r29),r2
 7240  00006b9c  200c0066	addi	r12,r0,#102
 7241  00006ba0  afac0004	sw	4(r29),r12
 7242  00006ba4  0fffd348	jal	_dindex
 7243  00006ba8  54000000	nop; not filled.
 7244  00006bac  23bd0008	addi	r29,r29,#8
 7245  00006bb0  64210000	snei	r1,r1,#0
 7246  00006bb4  1420002c	bnez	r1,L311_LF5
 7247  00006bb8  54000000	nop; not filled.
 7248  00006bbc  23bdfff8	addi	r29,r29,#-8
 7249  00006bc0  afa20000	sw	(r29),r2
 7250  00006bc4  200c002b	addi	r12,r0,#43
 7251  00006bc8  afac0004	sw	4(r29),r12
 7252  00006bcc  0fffd320	jal	_dindex
 7253  00006bd0  54000000	nop; not filled.
 7254  00006bd4  23bd0008	addi	r29,r29,#8
 7255  00006bd8  64210000	snei	r1,r1,#0
 7256  00006bdc  10200024	beqz	r1,L310_LF5
 7257  00006be0  54000000	nop; not filled.
 7258  00006be4          	L311_LF5:
 7259  00006be4  23bdfff8	addi	r29,r29,#-8
 7260  00006be8  3c0c0000	lhi	r12,((LC43_LF5)>>16)&0xffff
 7261  00006bec  258cea78	addui	r12,r12,(LC43_LF5)&0xffff
 7262  00006bf0  afac0000	sw	(r29),r12
 7263  00006bf4  afa50004	sw	4(r29),r5
 7264  00006bf8  0c0048fc	jal	_printf
 7265  00006bfc  54000000	nop; not filled.
 7266  00006c00  23bd0008	addi	r29,r29,#8
 7267  00006c04          	L310_LF5:
 7268  00006c04  23bdfff8	addi	r29,r29,#-8
 7269  00006c08  3c020000	lhi	r2,((_debugstr)>>16)&0xffff
 7270  00006c0c  2442ef7c	addui	r2,r2,(_debugstr)&0xffff
 7271  00006c10  afa20000	sw	(r29),r2
 7272  00006c14  200c0066	addi	r12,r0,#102
 7273  00006c18  afac0004	sw	4(r29),r12
 7274  00006c1c  0fffd2d0	jal	_dindex
 7275  00006c20  54000000	nop; not filled.
 7276  00006c24  23bd0008	addi	r29,r29,#8
 7277  00006c28  64210000	snei	r1,r1,#0
 7278  00006c2c  1420002c	bnez	r1,L313_LF5
 7279  00006c30  54000000	nop; not filled.
 7280  00006c34  23bdfff8	addi	r29,r29,#-8
 7281  00006c38  afa20000	sw	(r29),r2
 7282  00006c3c  200c002b	addi	r12,r0,#43
 7283  00006c40  afac0004	sw	4(r29),r12
 7284  00006c44  0fffd2a8	jal	_dindex
 7285  00006c48  54000000	nop; not filled.
 7286  00006c4c  23bd0008	addi	r29,r29,#8
 7287  00006c50  64210000	snei	r1,r1,#0
 7288  00006c54  10200028	beqz	r1,L312_LF5
 7289  00006c58  54000000	nop; not filled.
 7290  00006c5c          	L313_LF5:
 7291  00006c5c  23bdfff8	addi	r29,r29,#-8
 7292  00006c60  3c0c0000	lhi	r12,((LC44_LF5)>>16)&0xffff
 7293  00006c64  258cea8c	addui	r12,r12,(LC44_LF5)&0xffff
 7294  00006c68  afac0000	sw	(r29),r12
 7295  00006c6c  23c1ff28	addi	r1,r30,#-216
 7296  00006c70  afa10004	sw	4(r29),r1
 7297  00006c74  0c004880	jal	_printf
 7298  00006c78  54000000	nop; not filled.
 7299  00006c7c  23bd0008	addi	r29,r29,#8
 7300  00006c80          	L312_LF5:
 7301  00006c80  20050000	addi	r5,r0,#0
 7302  00006c84  3c080000	lhi	r8,((_debugstr)>>16)&0xffff
 7303  00006c88  2508ef7c	addui	r8,r8,(_debugstr)&0xffff
 7304  00006c8c          	L314_LF5:
 7305  00006c8c  23bdfff8	addi	r29,r29,#-8
 7306  00006c90  8fccff24	lw	r12,-220(r30)
 7307  00006c94  afac0000	sw	(r29),r12
 7308  00006c98  200c005a	addi	r12,r0,#90
 7309  00006c9c  afac0004	sw	4(r29),r12
 7310  00006ca0  0fffd24c	jal	_dindex
 7311  00006ca4  54000000	nop; not filled.
 7312  00006ca8  23bd0008	addi	r29,r29,#8
 7313  00006cac  64210000	snei	r1,r1,#0
 7314  00006cb0  102002ec	beqz	r1,L315_LF5
 7315  00006cb4  54000000	nop; not filled.
 7316  00006cb8  23bdfff8	addi	r29,r29,#-8
 7317  00006cbc  8fccff24	lw	r12,-220(r30)
 7318  00006cc0  afac0000	sw	(r29),r12
 7319  00006cc4  200c003a	addi	r12,r0,#58
 7320  00006cc8  afac0004	sw	4(r29),r12
 7321  00006ccc  0fffd220	jal	_dindex
 7322  00006cd0  54000000	nop; not filled.
 7323  00006cd4  23bd0008	addi	r29,r29,#8
 7324  00006cd8  64210000	snei	r1,r1,#0
 7325  00006cdc  102002c0	beqz	r1,L315_LF5
 7326  00006ce0  54000000	nop; not filled.
 7327  00006ce4  8fc2ff24	lw	r2,-220(r30)
 7328  00006ce8  90410000	lbu	r1,(r2)
 7329  00006cec  6421003a	snei	r1,r1,#58
 7330  00006cf0  102000b8	beqz	r1,L359_LF5
 7331  00006cf4  54000000	nop; not filled.
 7332  00006cf8  6ca10000	sgti	r1,r5,#0
 7333  00006cfc  142002a0	bnez	r1,L315_LF5
 7334  00006d00  54000000	nop; not filled.
 7335  00006d04  23bdfff0	addi	r29,r29,#-16
 7336  00006d08  afa20000	sw	(r29),r2
 7337  00006d0c  23c1ff24	addi	r1,r30,#-220
 7338  00006d10  afa10004	sw	4(r29),r1
 7339  00006d14  200c0010	addi	r12,r0,#16
 7340  00006d18  afac0008	sw	8(r29),r12
 7341  00006d1c  0fffd358	jal	_dstrtol
 7342  00006d20  54000000	nop; not filled.
 7343  00006d24  ace10000	sw	(r7),r1
 7344  00006d28  afa80000	sw	(r29),r8
 7345  00006d2c  200c0066	addi	r12,r0,#102
 7346  00006d30  afac0004	sw	4(r29),r12
 7347  00006d34  0fffd1b8	jal	_dindex
 7348  00006d38  54000000	nop; not filled.
 7349  00006d3c  23bd0010	addi	r29,r29,#16
 7350  00006d40  64210000	snei	r1,r1,#0
 7351  00006d44  1420002c	bnez	r1,L321_LF5
 7352  00006d48  54000000	nop; not filled.
 7353  00006d4c  23bdfff8	addi	r29,r29,#-8
 7354  00006d50  afa80000	sw	(r29),r8
 7355  00006d54  200c002b	addi	r12,r0,#43
 7356  00006d58  afac0004	sw	4(r29),r12
 7357  00006d5c  0fffd190	jal	_dindex
 7358  00006d60  54000000	nop; not filled.
 7359  00006d64  23bd0008	addi	r29,r29,#8
 7360  00006d68  64210000	snei	r1,r1,#0
 7361  00006d6c  10200028	beqz	r1,L318_LF5
 7362  00006d70  54000000	nop; not filled.
 7363  00006d74          	L321_LF5:
 7364  00006d74  23bdfff8	addi	r29,r29,#-8
 7365  00006d78  3c0c0000	lhi	r12,((LC45_LF5)>>16)&0xffff
 7366  00006d7c  258cea9c	addui	r12,r12,(LC45_LF5)&0xffff
 7367  00006d80  afac0000	sw	(r29),r12
 7368  00006d84  8ce10000	lw	r1,(r7)
 7369  00006d88  afa10004	sw	4(r29),r1
 7370  00006d8c  0c004768	jal	_printf
 7371  00006d90  54000000	nop; not filled.
 7372  00006d94  23bd0008	addi	r29,r29,#8
 7373  00006d98          	L318_LF5:
 7374  00006d98  8fc1ff24	lw	r1,-220(r30)
 7375  00006d9c  90210000	lbu	r1,(r1)
 7376  00006da0  6421003a	snei	r1,r1,#58
 7377  00006da4  142001f8	bnez	r1,L315_LF5
 7378  00006da8  54000000	nop; not filled.
 7379  00006dac          	L359_LF5:
 7380  00006dac  8fc1ff24	lw	r1,-220(r30)
 7381  00006db0  20210001	addi	r1,r1,#1
 7382  00006db4  afc1ff24	sw	-220(r30),r1
 7383  00006db8  00ab3020	add	r6,r5,r11
 7384  00006dbc          	L325_LF5:
 7385  00006dbc  8fc1ff24	lw	r1,-220(r30)
 7386  00006dc0  08000010	j	L361_LF5
 7387  00006dc4  54000000	nop; not filled.
 7388  00006dc8          	L328_LF5:
 7389  00006dc8  8fc1ff24	lw	r1,-220(r30)
 7390  00006dcc  20210001	addi	r1,r1,#1
 7391  00006dd0  afc1ff24	sw	-220(r30),r1
 7392  00006dd4          	L361_LF5:
 7393  00006dd4  903f0000	lbu	r31,(r1)
 7394  00006dd8  63e10020	seqi	r1,r31,#32
 7395  00006ddc  1420ffe8	bnez	r1,L328_LF5
 7396  00006de0  54000000	nop; not filled.
 7397  00006de4  63e10009	seqi	r1,r31,#9
 7398  00006de8  1420ffdc	bnez	r1,L328_LF5
 7399  00006dec  54000000	nop; not filled.
 7400  00006df0  8fc2ff24	lw	r2,-220(r30)
 7401  00006df4  805f0000	lb	r31,(r2)
 7402  00006df8  33e300ff	andi	r3,r31,#0x00ff
 7403  00006dfc  6061000a	seqi	r1,r3,#10
 7404  00006e00  10200014	beqz	r1,L330_LF5
 7405  00006e04  54000000	nop; not filled.
 7406  00006e08  20410001	addi	r1,r2,#1
 7407  00006e0c  afc1ff24	sw	-220(r30),r1
 7408  00006e10  0bfffe78	j	L314_LF5
 7409  00006e14  54000000	nop; not filled.
 7410  00006e18          	L330_LF5:
 7411  00006e18  20020000	addi	r2,r0,#0
 7412  00006e1c  23e1ffd0	addi	r1,r31,#-48
 7413  00006e20  302100ff	andi	r1,r1,#0x00ff
 7414  00006e24  70210009	sleui	r1,r1,#9
 7415  00006e28  14200024	bnez	r1,L336_LF5
 7416  00006e2c  54000000	nop; not filled.
 7417  00006e30  23e1ff9f	addi	r1,r31,#-97
 7418  00006e34  302100ff	andi	r1,r1,#0x00ff
 7419  00006e38  70210005	sleui	r1,r1,#5
 7420  00006e3c  14200010	bnez	r1,L336_LF5
 7421  00006e40  54000000	nop; not filled.
 7422  00006e44  64610041	snei	r1,r3,#65
 7423  00006e48  14200008	bnez	r1,L335_LF5
 7424  00006e4c  54000000	nop; not filled.
 7425  00006e50          	L336_LF5:
 7426  00006e50  20020001	addi	r2,r0,#1
 7427  00006e54          	L335_LF5:
 7428  00006e54  64410000	snei	r1,r2,#0
 7429  00006e58  1020fe30	beqz	r1,L314_LF5
 7430  00006e5c  54000000	nop; not filled.
 7431  00006e60  8fc1ff24	lw	r1,-220(r30)
 7432  00006e64  80220001	lb	r2,1(r1)
 7433  00006e68  20030000	addi	r3,r0,#0
 7434  00006e6c  2041ffd0	addi	r1,r2,#-48
 7435  00006e70  302100ff	andi	r1,r1,#0x00ff
 7436  00006e74  70210009	sleui	r1,r1,#9
 7437  00006e78  14200028	bnez	r1,L339_LF5
 7438  00006e7c  54000000	nop; not filled.
 7439  00006e80  2041ff9f	addi	r1,r2,#-97
 7440  00006e84  302100ff	andi	r1,r1,#0x00ff
 7441  00006e88  70210005	sleui	r1,r1,#5
 7442  00006e8c  14200014	bnez	r1,L339_LF5
 7443  00006e90  54000000	nop; not filled.
 7444  00006e94  304100ff	andi	r1,r2,#0x00ff
 7445  00006e98  64210041	snei	r1,r1,#65
 7446  00006e9c  14200008	bnez	r1,L338_LF5
 7447  00006ea0  54000000	nop; not filled.
 7448  00006ea4          	L339_LF5:
 7449  00006ea4  20030001	addi	r3,r0,#1
 7450  00006ea8          	L338_LF5:
 7451  00006ea8  64610000	snei	r1,r3,#0
 7452  00006eac  1020fddc	beqz	r1,L314_LF5
 7453  00006eb0  54000000	nop; not filled.
 7454  00006eb4  8fc1ff24	lw	r1,-220(r30)
 7455  00006eb8  90220000	lbu	r2,(r1)
 7456  00006ebc  00021820	add	r3,r0,r2
 7457  00006ec0  205fffd0	addi	r31,r2,#-48
 7458  00006ec4  73e10009	sleui	r1,r31,#9
 7459  00006ec8  10200010	beqz	r1,L341_LF5
 7460  00006ecc  54000000	nop; not filled.
 7461  00006ed0  001f2020	add	r4,r0,r31
 7462  00006ed4  08000038	j	L340_LF5
 7463  00006ed8  54000000	nop; not filled.
 7464  00006edc          	L341_LF5:
 7465  00006edc  2041ff9f	addi	r1,r2,#-97
 7466  00006ee0  70210005	sleui	r1,r1,#5
 7467  00006ee4  10200010	beqz	r1,L343_LF5
 7468  00006ee8  54000000	nop; not filled.
 7469  00006eec  2044ffa9	addi	r4,r2,#-87
 7470  00006ef0  0800001c	j	L340_LF5
 7471  00006ef4  54000000	nop; not filled.
 7472  00006ef8          	L343_LF5:
 7473  00006ef8  2061ffbf	addi	r1,r3,#-65
 7474  00006efc  70210005	sleui	r1,r1,#5
 7475  00006f00  20040000	addi	r4,r0,#0
 7476  00006f04  10200008	beqz	r1,L340_LF5
 7477  00006f08  54000000	nop; not filled.
 7478  00006f0c  2064ffc9	addi	r4,r3,#-55
 7479  00006f10          	L340_LF5:
 7480  00006f10  8fc1ff24	lw	r1,-220(r30)
 7481  00006f14  90220001	lbu	r2,1(r1)
 7482  00006f18  00021820	add	r3,r0,r2
 7483  00006f1c  205fffd0	addi	r31,r2,#-48
 7484  00006f20  73e10009	sleui	r1,r31,#9
 7485  00006f24  10200010	beqz	r1,L348_LF5
 7486  00006f28  54000000	nop; not filled.
 7487  00006f2c  001f1020	add	r2,r0,r31
 7488  00006f30  08000038	j	L347_LF5
 7489  00006f34  54000000	nop; not filled.
 7490  00006f38          	L348_LF5:
 7491  00006f38  2041ff9f	addi	r1,r2,#-97
 7492  00006f3c  70210005	sleui	r1,r1,#5
 7493  00006f40  10200010	beqz	r1,L350_LF5
 7494  00006f44  54000000	nop; not filled.
 7495  00006f48  2042ffa9	addi	r2,r2,#-87
 7496  00006f4c  0800001c	j	L347_LF5
 7497  00006f50  54000000	nop; not filled.
 7498  00006f54          	L350_LF5:
 7499  00006f54  2061ffbf	addi	r1,r3,#-65
 7500  00006f58  70210005	sleui	r1,r1,#5
 7501  00006f5c  20020000	addi	r2,r0,#0
 7502  00006f60  10200008	beqz	r1,L347_LF5
 7503  00006f64  54000000	nop; not filled.
 7504  00006f68  2062ffc9	addi	r2,r3,#-55
 7505  00006f6c          	L347_LF5:
 7506  00006f6c  50810004	slli	r1,r4,#0x4
 7507  00006f70  00220820	add	r1,r1,r2
 7508  00006f74  a0c10000	sb	(r6),r1
 7509  00006f78  20c60001	addi	r6,r6,#1
 7510  00006f7c  20a50001	addi	r5,r5,#1
 7511  00006f80  8fc1ff24	lw	r1,-220(r30)
 7512  00006f84  20210002	addi	r1,r1,#2
 7513  00006f88  afc1ff24	sw	-220(r30),r1
 7514  00006f8c  8ce10000	lw	r1,(r7)
 7515  00006f90  20210001	addi	r1,r1,#1
 7516  00006f94  ace10000	sw	(r7),r1
 7517  00006f98  0bfffe20	j	L325_LF5
 7518  00006f9c  54000000	nop; not filled.
 7519  00006fa0          	L315_LF5:
 7520  00006fa0  23bdfff0	addi	r29,r29,#-16
 7521  00006fa4  afaa0000	sw	(r29),r10
 7522  00006fa8  8fc1ff24	lw	r1,-220(r30)
 7523  00006fac  00290820	add	r1,r1,r9
 7524  00006fb0  23c3ff28	addi	r3,r30,#-216
 7525  00006fb4  00230822	sub	r1,r1,r3
 7526  00006fb8  afa10004	sw	4(r29),r1
 7527  00006fbc  200c0000	addi	r12,r0,#0
 7528  00006fc0  afac0008	sw	8(r29),r12
 7529  00006fc4  0fffae2c	jal	_FsSeek
 7530  00006fc8  54000000	nop; not filled.
 7531  00006fcc  3c020000	lhi	r2,((_debugstr)>>16)&0xffff
 7532  00006fd0  2442ef7c	addui	r2,r2,(_debugstr)&0xffff
 7533  00006fd4  afa20000	sw	(r29),r2
 7534  00006fd8  200c0066	addi	r12,r0,#102
 7535  00006fdc  afac0004	sw	4(r29),r12
 7536  00006fe0  0fffcf0c	jal	_dindex
 7537  00006fe4  54000000	nop; not filled.
 7538  00006fe8  23bd0010	addi	r29,r29,#16
 7539  00006fec  64210000	snei	r1,r1,#0
 7540  00006ff0  1420002c	bnez	r1,L356_LF5
 7541  00006ff4  54000000	nop; not filled.
 7542  00006ff8  23bdfff8	addi	r29,r29,#-8
 7543  00006ffc  afa20000	sw	(r29),r2
 7544  00007000  200c002b	addi	r12,r0,#43
 7545  00007004  afac0004	sw	4(r29),r12
 7546  00007008  0fffcee4	jal	_dindex
 7547  0000700c  54000000	nop; not filled.
 7548  00007010  23bd0008	addi	r29,r29,#8
 7549  00007014  64210000	snei	r1,r1,#0
 7550  00007018  10200034	beqz	r1,L355_LF5
 7551  0000701c  54000000	nop; not filled.
 7552  00007020          	L356_LF5:
 7553  00007020  23bdfff0	addi	r29,r29,#-16
 7554  00007024  3c0c0000	lhi	r12,((LC46_LF5)>>16)&0xffff
 7555  00007028  258ceab4	addui	r12,r12,(LC46_LF5)&0xffff
 7556  0000702c  afac0000	sw	(r29),r12
 7557  00007030  8fc1ff24	lw	r1,-220(r30)
 7558  00007034  00290820	add	r1,r1,r9
 7559  00007038  00230822	sub	r1,r1,r3
 7560  0000703c  afa10004	sw	4(r29),r1
 7561  00007040  afa50008	sw	8(r29),r5
 7562  00007044  0c0044b0	jal	_printf
 7563  00007048  54000000	nop; not filled.
 7564  0000704c  23bd0010	addi	r29,r29,#16
 7565  00007050          	L355_LF5:
 7566  00007050  00050820	add	r1,r0,r5
 7567  00007054          	L357_LF5:
 7568  00007054  8fa20000	lw	r2,0(r29)
 7569  00007058  8fa30004	lw	r3,4(r29)
 7570  0000705c  8fa40008	lw	r4,8(r29)
 7571  00007060  8fa5000c	lw	r5,12(r29)
 7572  00007064  8fa60010	lw	r6,16(r29)
 7573  00007068  8fa70014	lw	r7,20(r29)
 7574  0000706c  8fa80018	lw	r8,24(r29)
 7575  00007070  8fa9001c	lw	r9,28(r29)
 7576  00007074  8faa0020	lw	r10,32(r29)
 7577  00007078  8fab0024	lw	r11,36(r29)
 7578  0000707c  8fac0028	lw	r12,40(r29)
 7579  00007080  8fdffff8	lw	r31,-8(r30)
 7580  00007084  001ee820	add	r29,r0,r30
 7581  00007088  8fdefffc	lw	r30,-4(r30)
 7582  0000708c  4be00000	jr	r31
 7583  00007090  54000000	nop
 7584  00007094          	.endproc _ProcessGetFromFile
 7585  00007094          	.data
 7586  0000eadb          	.align 2
 7587  0000eadc          	_temppcb64_LF5:
 7588  0000eadc          	.space 372
 7589  0000ec50          	.align 2
 7590  0000ec50          	LC47_LF5:
 7591  0000ec50  476f7420	.ascii "Got %d arguments.\n\000"
 7591  0000ec54  25642061	
 7591  0000ec58  7267756d	
 7591  0000ec5c  656e7473	
 7591  0000ec60  2e0a00  	
 7592  0000ec63          	.align 2
 7593  0000ec64          	LC48_LF5:
 7594  0000ec64  41766169	.ascii "Available memory: 0x%x -> 0x%x.\n\000"
 7594  0000ec68  6c61626c	
 7594  0000ec6c  65206d65	
 7594  0000ec70  6d6f7279	
 7594  0000ec74  3a203078	
 7594  0000ec78  2578202d	
 7594  0000ec7c  3e203078	
 7594  0000ec80  25782e0a	
 7594  0000ec84  00      	
 7595  0000ec85          	.align 2
 7596  0000ec88          	LC49_LF5:
 7597  0000ec88  41726775	.ascii "Argument count is %d.\n\000"
 7597  0000ec8c  6d656e74	
 7597  0000ec90  20636f75	
 7597  0000ec94  6e742069	
 7597  0000ec98  73202564	
 7597  0000ec9c  2e0a00  	
 7598  0000ec9f          	.align 2
 7599  0000eca0          	LC50_LF5:
 7600  0000eca0  41726775	.ascii "Argument %d is %s.\n\000"
 7600  0000eca4  6d656e74	
 7600  0000eca8  20256420	
 7600  0000ecac  69732025	
 7600  0000ecb0  732e0a00	
 7601  0000ecb4          	.align 2
 7602  0000ecb4          	LC51_LF5:
 7603  0000ecb4  436f6e76	.ascii "Converted %s to %d=%s\n\000"
 7603  0000ecb8  65727465	
 7603  0000ecbc  64202573	
 7603  0000ecc0  20746f20	
 7603  0000ecc4  25643d25	
 7603  0000ecc8  730a00  	
 7604  0000eccb          	_buf65_LF5:
 7605  0000eccb          	.space 200
 7606  0000ed93          	.align 2
 7607  0000ed94          	LC52_LF5:
 7608  0000ed94  25303878	.ascii "%08x: %02x%02x%02x%02x\n\000"
 7608  0000ed98  3a202530	
 7608  0000ed9c  32782530	
 7608  0000eda0  32782530	
 7608  0000eda4  32782530	
 7608  0000eda8  32780a00	
 7609  0000edac          	.align 2
 7610  0000edac          	LC53_LF5:
 7611  0000edac  4f707469	.ascii "Option %s not recognized.\n\000"
 7611  0000edb0  6f6e2025	
 7611  0000edb4  73206e6f	
 7611  0000edb8  74207265	
 7611  0000edbc  636f676e	
 7611  0000edc0  697a6564	
 7611  0000edc4  2e0a00  	
 7612  0000edc7          	.align 2
 7613  0000edc8          	LC54_LF5:
 7614  0000edc8  41626f75	.ascii "About to initialize queues.\n\000"
 7614  0000edcc  7420746f	
 7614  0000edd0  20696e69	
 7614  0000edd4  7469616c	
 7614  0000edd8  697a6520	
 7614  0000eddc  71756575	
 7614  0000ede0  65732e0a	
 7614  0000ede4  00      	
 7615  0000ede5          	.align 2
 7616  0000ede8          	LC55_LF5:
 7617  0000ede8  41667465	.ascii "After initializing queues.\n\000"
 7617  0000edec  7220696e	
 7617  0000edf0  69746961	
 7617  0000edf4  6c697a69	
 7617  0000edf8  6e672071	
 7617  0000edfc  75657565	
 7617  0000ee00  732e0a00	
 7618  0000ee04          	.align 2
 7619  0000ee04          	LC56_LF5:
 7620  0000ee04  41667465	.ascii "After initializing memory.\n\000"
 7620  0000ee08  7220696e	
 7620  0000ee0c  69746961	
 7620  0000ee10  6c697a69	
 7620  0000ee14  6e67206d	
 7620  0000ee18  656d6f72	
 7620  0000ee1c  792e0a00	
 7621  0000ee20          	.align 2
 7622  0000ee20          	LC57_LF5:
 7623  0000ee20  41667465	.ascii "After initializing processes.\n\000"
 7623  0000ee24  7220696e	
 7623  0000ee28  69746961	
 7623  0000ee2c  6c697a69	
 7623  0000ee30  6e672070	
 7623  0000ee34  726f6365	
 7623  0000ee38  73736573	
 7623  0000ee3c  2e0a00  	
 7624  0000ee3f          	.align 2
 7625  0000ee40          	LC58_LF5:
 7626  0000ee40  41667465	.ascii "After initializing synchronization tools.\n\000"
 7626  0000ee44  7220696e	
 7626  0000ee48  69746961	
 7626  0000ee4c  6c697a69	
 7626  0000ee50  6e672073	
 7626  0000ee54  796e6368	
 7626  0000ee58  726f6e69	
 7626  0000ee5c  7a617469	
 7626  0000ee60  6f6e2074	
 7626  0000ee64  6f6f6c73	
 7626  0000ee68  2e0a00  	
 7627  0000ee6b          	.align 2
 7628  0000ee6c          	LC59_LF5:
 7629  0000ee6c  41667465	.ascii "After initializing keyboard.\n\000"
 7629  0000ee70  7220696e	
 7629  0000ee74  69746961	
 7629  0000ee78  6c697a69	
 7629  0000ee7c  6e67206b	
 7629  0000ee80  6579626f	
 7629  0000ee84  6172642e	
 7629  0000ee88  0a00    	
 7630  0000ee8a          	.align 2
 7631  0000ee8c          	LC60_LF5:
 7632  0000ee8c  766d00  	.ascii "vm\000"
 7633  0000ee8f          	.align 2
 7634  0000ee90          	LC61_LF5:
 7635  0000ee90  564d2044	.ascii "VM Descriptor is %d\n\000"
 7635  0000ee94  65736372	
 7635  0000ee98  6970746f	
 7635  0000ee9c  72206973	
 7635  0000eea0  2025640a	
 7635  0000eea4  00      	
 7636  0000eea5          	.align 2
 7637  0000eea8          	LC62_LF5:
 7638  0000eea8  43726561	.ascii "Created processes - about to set timer quantum.\n\000"
 7638  0000eeac  74656420	
 7638  0000eeb0  70726f63	
 7638  0000eeb4  65737365	
 7638  0000eeb8  73202d20	
 7638  0000eebc  61626f75	
 7638  0000eec0  7420746f	
 7638  0000eec4  20736574	
 7638  0000eec8  2074696d	
 7638  0000eecc  65722071	
 7638  0000eed0  75616e74	
 7638  0000eed4  756d2e0a	
 7638  0000eed8  00      	
 7639  0000eed9          	.align 2
 7640  0000eedc          	LC63_LF5:
 7641  0000eedc  53657420	.ascii "Set timer quantum to %d, about to run first process.\n\000"
 7641  0000eee0  74696d65	
 7641  0000eee4  72207175	
 7641  0000eee8  616e7475	
 7641  0000eeec  6d20746f	
 7641  0000eef0  2025642c	
 7641  0000eef4  2061626f	
 7641  0000eef8  75742074	
 7641  0000eefc  6f207275	
 7641  0000ef00  6e206669	
 7641  0000ef04  72737420	
 7641  0000ef08  70726f63	
 7641  0000ef0c  6573732e	
 7641  0000ef10  0a00    	
 7642  0000ef12          	.text
 7643  00007094          	.align 2
 7644  00007094          	.proc _main
 7645  00007094          	.global _main
 7646  00007094          	_main:
 7647                      ;  Function 'main'; 192 bytes of locals, 0 regs to save.
 7648  00007094  afbefffc	sw	-4(r29),r30; push fp
 7649  00007098  001df020	add	r30,r0,r29; fp = sp
 7650  0000709c  afbffff8	sw	-8(r29),r31; push ret addr
 7651  000070a0  2fbd00c8	subui	r29,r29,#200; alloc local storage
 7652  000070a4  8fce0000	lw	r14,(r30)
 7653  000070a8  8fd40004	lw	r20,4(r30)
 7654  000070ac  0c0043b0	jal	___main
 7655  000070b0  54000000	nop; not filled.
 7656  000070b4  20100000	addi	r16,r0,#0
 7657  000070b8  20150000	addi	r21,r0,#0
 7658  000070bc  afd5ff50	sw	-176(r30),r21
 7659  000070c0  afd5ff54	sw	-172(r30),r21
 7660  000070c4  afd5ff58	sw	-168(r30),r21
 7661  000070c8  afd5ff5c	sw	-164(r30),r21
 7662  000070cc  afd5ff60	sw	-160(r30),r21
 7663  000070d0  afd5ff64	sw	-156(r30),r21
 7664  000070d4  afd5ff68	sw	-152(r30),r21
 7665  000070d8  afd5ff6c	sw	-148(r30),r21
 7666  000070dc  afd5ff70	sw	-144(r30),r21
 7667  000070e0  afd5ff74	sw	-140(r30),r21
 7668  000070e4  afd5ff78	sw	-136(r30),r21
 7669  000070e8  afd5ff7c	sw	-132(r30),r21
 7670  000070ec  3c010000	lhi	r1,((_debugstr)>>16)&0xffff
 7671  000070f0  2421ef7c	addui	r1,r1,(_debugstr)&0xffff
 7672  000070f4  20150000	addi	r21,r0,(#0x0)&0xff
 7673  000070f8  a0350001	sb	1(r1),r21
 7674  000070fc  0c0009e4	jal	_MyFuncRetZero
 7675  00007100  54000000	nop; not filled.
 7676  00007104  23bdfff8	addi	r29,r29,#-8
 7677  00007108  3c150000	lhi	r21,((LC47_LF5)>>16)&0xffff
 7678  0000710c  26b5ec50	addui	r21,r21,(LC47_LF5)&0xffff
 7679  00007110  afb50000	sw	(r29),r21
 7680  00007114  afae0004	sw	4(r29),r14
 7681  00007118  0c0043dc	jal	_printf
 7682  0000711c  54000000	nop; not filled.
 7683  00007120  0fffb8e8	jal	_MemoryGetSize
 7684  00007124  54000000	nop; not filled.
 7685  00007128  23bdfff8	addi	r29,r29,#-8
 7686  0000712c  3c150000	lhi	r21,((LC48_LF5)>>16)&0xffff
 7687  00007130  26b5ec64	addui	r21,r21,(LC48_LF5)&0xffff
 7688  00007134  afb50000	sw	(r29),r21
 7689  00007138  3c020001	lhi	r2,((_lastosaddress)>>16)&0xffff
 7690  0000713c  24423fac	addui	r2,r2,(_lastosaddress)&0xffff
 7691  00007140  8c420000	lw	r2,(r2)
 7692  00007144  afa20004	sw	4(r29),r2
 7693  00007148  afa10008	sw	8(r29),r1
 7694  0000714c  0c0043a8	jal	_printf
 7695  00007150  54000000	nop; not filled.
 7696  00007154  3c150000	lhi	r21,((LC49_LF5)>>16)&0xffff
 7697  00007158  26b5ec88	addui	r21,r21,(LC49_LF5)&0xffff
 7698  0000715c  afb50000	sw	(r29),r21
 7699  00007160  afae0004	sw	4(r29),r14
 7700  00007164  0c004390	jal	_printf
 7701  00007168  54000000	nop; not filled.
 7702  0000716c  20090000	addi	r9,r0,#0
 7703  00007170  23bd0010	addi	r29,r29,#16
 7704  00007174  012e082a	slt	r1,r9,r14
 7705  00007178  10200044	beqz	r1,L364_LF5
 7706  0000717c  54000000	nop; not filled.
 7707  00007180  00141020	add	r2,r0,r20
 7708  00007184          	L366_LF5:
 7709  00007184  23bdfff0	addi	r29,r29,#-16
 7710  00007188  3c150000	lhi	r21,((LC50_LF5)>>16)&0xffff
 7711  0000718c  26b5eca0	addui	r21,r21,(LC50_LF5)&0xffff
 7712  00007190  afb50000	sw	(r29),r21
 7713  00007194  afa90004	sw	4(r29),r9
 7714  00007198  8c550000	lw	r21,(r2)
 7715  0000719c  afb50008	sw	8(r29),r21
 7716  000071a0  0c004354	jal	_printf
 7717  000071a4  54000000	nop; not filled.
 7718  000071a8  23bd0010	addi	r29,r29,#16
 7719  000071ac  20420004	addi	r2,r2,#4
 7720  000071b0  21290001	addi	r9,r9,#1
 7721  000071b4  012e082a	slt	r1,r9,r14
 7722  000071b8  1420ffc8	bnez	r1,L366_LF5
 7723  000071bc  54000000	nop; not filled.
 7724  000071c0          	L364_LF5:
 7725  000071c0  0fffb2bc	jal	_FsModuleInit
 7726  000071c4  54000000	nop; not filled.
 7727  000071c8  20090000	addi	r9,r0,#0
 7728  000071cc  012e082a	slt	r1,r9,r14
 7729  000071d0  1020033c	beqz	r1,L369_LF5
 7730  000071d4  54000000	nop; not filled.
 7731  000071d8  23ccff80	addi	r12,r30,#-128
 7732  000071dc  23cdff38	addi	r13,r30,#-200
 7733  000071e0  3c0f0000	lhi	r15,((_buf65_LF5)>>16)&0xffff
 7734  000071e4  25efeccb	addui	r15,r15,(_buf65_LF5)&0xffff
 7735  000071e8  21f20001	addi	r18,r15,#1
 7736  000071ec  21f10002	addi	r17,r15,#2
 7737  000071f0  00144020	add	r8,r0,r20
 7738  000071f4          	L371_LF5:
 7739  000071f4  8d020000	lw	r2,(r8)
 7740  000071f8  90410000	lbu	r1,(r2)
 7741  000071fc  6021002d	seqi	r1,r1,#45
 7742  00007200  102002f8	beqz	r1,L370_LF5
 7743  00007204  54000000	nop; not filled.
 7744  00007208  90420001	lbu	r2,1(r2)
 7745  0000720c  60410066	seqi	r1,r2,#102
 7746  00007210  142000e0	bnez	r1,L376_LF5
 7747  00007214  54000000	nop; not filled.
 7748  00007218  6c410066	sgti	r1,r2,#102
 7749  0000721c  14200018	bnez	r1,L388_LF5
 7750  00007220  54000000	nop; not filled.
 7751  00007224  60410044	seqi	r1,r2,#68
 7752  00007228  102002a0	beqz	r1,L386_LF5
 7753  0000722c  54000000	nop; not filled.
 7754  00007230  08000024	j	L374_LF5
 7755  00007234  54000000	nop; not filled.
 7756  00007238          	L388_LF5:
 7757  00007238  60410069	seqi	r1,r2,#105
 7758  0000723c  14200048	bnez	r1,L375_LF5
 7759  00007240  54000000	nop; not filled.
 7760  00007244  60410075	seqi	r1,r2,#117
 7761  00007248  10200280	beqz	r1,L386_LF5
 7762  0000724c  54000000	nop; not filled.
 7763  00007250  08000260	j	L385_LF5
 7764  00007254  54000000	nop; not filled.
 7765  00007258          	L374_LF5:
 7766  00007258  23bdfff8	addi	r29,r29,#-8
 7767  0000725c  3c150000	lhi	r21,((_debugstr)>>16)&0xffff
 7768  00007260  26b5ef7c	addui	r21,r21,(_debugstr)&0xffff
 7769  00007264  afb50000	sw	(r29),r21
 7770  00007268  21080004	addi	r8,r8,#4
 7771  0000726c  21290001	addi	r9,r9,#1
 7772  00007270  8d010000	lw	r1,(r8)
 7773  00007274  afa10004	sw	4(r29),r1
 7774  00007278  0fffc7b4	jal	_dstrcpy
 7775  0000727c  54000000	nop; not filled.
 7776  00007280  08000268	j	L421_LF5
 7777  00007284  54000000	nop; not filled.
 7778  00007288          	L375_LF5:
 7779  00007288  23bdfff0	addi	r29,r29,#-16
 7780  0000728c  21080004	addi	r8,r8,#4
 7781  00007290  21290001	addi	r9,r9,#1
 7782  00007294  8d150000	lw	r21,(r8)
 7783  00007298  afb50000	sw	(r29),r21
 7784  0000729c  20150000	addi	r21,r0,#0
 7785  000072a0  afb50004	sw	4(r29),r21
 7786  000072a4  afb50008	sw	8(r29),r21
 7787  000072a8  0fffcdcc	jal	_dstrtol
 7788  000072ac  54000000	nop; not filled.
 7789  000072b0  00011820	add	r3,r0,r1
 7790  000072b4  afa10000	sw	(r29),r1
 7791  000072b8  afac0004	sw	4(r29),r12
 7792  000072bc  0fffccac	jal	_ditoa
 7793  000072c0  54000000	nop; not filled.
 7794  000072c4  3c150000	lhi	r21,((LC51_LF5)>>16)&0xffff
 7795  000072c8  26b5ecb4	addui	r21,r21,(LC51_LF5)&0xffff
 7796  000072cc  afb50000	sw	(r29),r21
 7797  000072d0  8d010000	lw	r1,(r8)
 7798  000072d4  afa10004	sw	4(r29),r1
 7799  000072d8  afa30008	sw	8(r29),r3
 7800  000072dc  afac000c	sw	12(r29),r12
 7801  000072e0  0c004214	jal	_printf
 7802  000072e4  54000000	nop; not filled.
 7803  000072e8  23bd0010	addi	r29,r29,#16
 7804  000072ec  08000200	j	L373_LF5
 7805  000072f0  54000000	nop; not filled.
 7806  000072f4          	L376_LF5:
 7807  000072f4  20150000	addi	r21,r0,#0
 7808  000072f8  afd5ff38	sw	-200(r30),r21
 7809  000072fc  23bdffe8	addi	r29,r29,#-24
 7810  00007300  21080004	addi	r8,r8,#4
 7811  00007304  21290001	addi	r9,r9,#1
 7812  00007308  8d150000	lw	r21,(r8)
 7813  0000730c  afb50000	sw	(r29),r21
 7814  00007310  23c1ff4c	addi	r1,r30,#-180
 7815  00007314  afa10004	sw	4(r29),r1
 7816  00007318  23c1ff48	addi	r1,r30,#-184
 7817  0000731c  afa10008	sw	8(r29),r1
 7818  00007320  23c1ff44	addi	r1,r30,#-188
 7819  00007324  afa1000c	sw	12(r29),r1
 7820  00007328  23c1ff40	addi	r1,r30,#-192
 7821  0000732c  afa10010	sw	16(r29),r1
 7822  00007330  23c1ff3c	addi	r1,r30,#-196
 7823  00007334  afa10014	sw	20(r29),r1
 7824  00007338  0ffff260	jal	_ProcessGetCodeInfo
 7825  0000733c  54000000	nop; not filled.
 7826  00007340  00015020	add	r10,r0,r1
 7827  00007344  3c150000	lhi	r21,((LC31_LF5)>>16)&0xffff
 7828  00007348  26b5e8b0	addui	r21,r21,(LC31_LF5)&0xffff
 7829  0000734c  afb50000	sw	(r29),r21
 7830  00007350  8d010000	lw	r1,(r8)
 7831  00007354  afa10004	sw	4(r29),r1
 7832  00007358  8fd5ff4c	lw	r21,-180(r30)
 7833  0000735c  afb50008	sw	8(r29),r21
 7834  00007360  0c004194	jal	_printf
 7835  00007364  54000000	nop; not filled.
 7836  00007368  3c150000	lhi	r21,((LC32_LF5)>>16)&0xffff
 7837  0000736c  26b5e8cc	addui	r21,r21,(LC32_LF5)&0xffff
 7838  00007370  afb50000	sw	(r29),r21
 7839  00007374  8d010000	lw	r1,(r8)
 7840  00007378  afa10004	sw	4(r29),r1
 7841  0000737c  8fd5ff48	lw	r21,-184(r30)
 7842  00007380  afb50008	sw	8(r29),r21
 7843  00007384  8fd5ff44	lw	r21,-188(r30)
 7844  00007388  afb5000c	sw	12(r29),r21
 7845  0000738c  0c004168	jal	_printf
 7846  00007390  54000000	nop; not filled.
 7847  00007394  3c150000	lhi	r21,((LC33_LF5)>>16)&0xffff
 7848  00007398  26b5e8f4	addui	r21,r21,(LC33_LF5)&0xffff
 7849  0000739c  afb50000	sw	(r29),r21
 7850  000073a0  8d010000	lw	r1,(r8)
 7851  000073a4  afa10004	sw	4(r29),r1
 7852  000073a8  8fd5ff40	lw	r21,-192(r30)
 7853  000073ac  afb50008	sw	8(r29),r21
 7854  000073b0  8fd5ff3c	lw	r21,-196(r30)
 7855  000073b4  afb5000c	sw	12(r29),r21
 7856  000073b8  0c00413c	jal	_printf
 7857  000073bc  54000000	nop; not filled.
 7858  000073c0  23bd0018	addi	r29,r29,#24
 7859  000073c4  3c0b0000	lhi	r11,((_buf65_LF5+3)>>16)&0xffff
 7860  000073c8  256becce	addui	r11,r11,(_buf65_LF5+3)&0xffff
 7861  000073cc          	L377_LF5:
 7862  000073cc  23bdfff0	addi	r29,r29,#-16
 7863  000073d0  afaa0000	sw	(r29),r10
 7864  000073d4  3c150000	lhi	r21,((_buf65_LF5)>>16)&0xffff
 7865  000073d8  26b5eccb	addui	r21,r21,(_buf65_LF5)&0xffff
 7866  000073dc  afb50004	sw	4(r29),r21
 7867  000073e0  afad0008	sw	8(r29),r13
 7868  000073e4  201500c8	addi	r21,r0,#200
 7869  000073e8  afb5000c	sw	12(r29),r21
 7870  000073ec  0ffff60c	jal	_ProcessGetFromFile
 7871  000073f0  54000000	nop; not filled.
 7872  000073f4  00011820	add	r3,r0,r1
 7873  000073f8  23bd0010	addi	r29,r29,#16
 7874  000073fc  6c610000	sgti	r1,r3,#0
 7875  00007400  10200098	beqz	r1,L378_LF5
 7876  00007404  54000000	nop; not filled.
 7877  00007408  20020000	addi	r2,r0,#0
 7878  0000740c  0043082a	slt	r1,r2,r3
 7879  00007410  1020ffb8	beqz	r1,L377_LF5
 7880  00007414  54000000	nop; not filled.
 7881  00007418  000b3820	add	r7,r0,r11
 7882  0000741c  00113020	add	r6,r0,r17
 7883  00007420  00122820	add	r5,r0,r18
 7884  00007424  000f2020	add	r4,r0,r15
 7885  00007428          	L383_LF5:
 7886  00007428  23bdffe8	addi	r29,r29,#-24
 7887  0000742c  3c150000	lhi	r21,((LC52_LF5)>>16)&0xffff
 7888  00007430  26b5ed94	addui	r21,r21,(LC52_LF5)&0xffff
 7889  00007434  afb50000	sw	(r29),r21
 7890  00007438  8fc1ff38	lw	r1,-200(r30)
 7891  0000743c  00220820	add	r1,r1,r2
 7892  00007440  00230822	sub	r1,r1,r3
 7893  00007444  afa10004	sw	4(r29),r1
 7894  00007448  90810000	lbu	r1,(r4)
 7895  0000744c  afa10008	sw	8(r29),r1
 7896  00007450  90a10000	lbu	r1,(r5)
 7897  00007454  afa1000c	sw	12(r29),r1
 7898  00007458  90c10000	lbu	r1,(r6)
 7899  0000745c  afa10010	sw	16(r29),r1
 7900  00007460  90e10000	lbu	r1,(r7)
 7901  00007464  afa10014	sw	20(r29),r1
 7902  00007468  0c00408c	jal	_printf
 7903  0000746c  54000000	nop; not filled.
 7904  00007470  23bd0018	addi	r29,r29,#24
 7905  00007474  20e70004	addi	r7,r7,#4
 7906  00007478  20c60004	addi	r6,r6,#4
 7907  0000747c  20a50004	addi	r5,r5,#4
 7908  00007480  20840004	addi	r4,r4,#4
 7909  00007484  20420004	addi	r2,r2,#4
 7910  00007488  0043082a	slt	r1,r2,r3
 7911  0000748c  1420ff98	bnez	r1,L383_LF5
 7912  00007490  54000000	nop; not filled.
 7913  00007494  0bffff34	j	L377_LF5
 7914  00007498  54000000	nop; not filled.
 7915  0000749c          	L378_LF5:
 7916  0000749c  23bdfff8	addi	r29,r29,#-8
 7917  000074a0  afaa0000	sw	(r29),r10
 7918  000074a4  0c003fcc	jal	_close
 7919  000074a8  54000000	nop; not filled.
 7920  000074ac  0800003c	j	L421_LF5
 7921  000074b0  54000000	nop; not filled.
 7922  000074b4          	L385_LF5:
 7923  000074b4  21080004	addi	r8,r8,#4
 7924  000074b8  21290001	addi	r9,r9,#1
 7925  000074bc  8d100000	lw	r16,(r8)
 7926  000074c0  00099820	add	r19,r0,r9
 7927  000074c4  08000028	j	L373_LF5
 7928  000074c8  54000000	nop; not filled.
 7929  000074cc          	L386_LF5:
 7930  000074cc  23bdfff8	addi	r29,r29,#-8
 7931  000074d0  3c150000	lhi	r21,((LC53_LF5)>>16)&0xffff
 7932  000074d4  26b5edac	addui	r21,r21,(LC53_LF5)&0xffff
 7933  000074d8  afb50000	sw	(r29),r21
 7934  000074dc  8d010000	lw	r1,(r8)
 7935  000074e0  afa10004	sw	4(r29),r1
 7936  000074e4  0c004010	jal	_printf
 7937  000074e8  54000000	nop; not filled.
 7938  000074ec          	L421_LF5:
 7939  000074ec  23bd0008	addi	r29,r29,#8
 7940  000074f0          	L373_LF5:
 7941  000074f0  66010000	snei	r1,r16,#0
 7942  000074f4  14200018	bnez	r1,L369_LF5
 7943  000074f8  54000000	nop; not filled.
 7944  000074fc          	L370_LF5:
 7945  000074fc  21080004	addi	r8,r8,#4
 7946  00007500  21290001	addi	r9,r9,#1
 7947  00007504  012e082a	slt	r1,r9,r14
 7948  00007508  1420fce8	bnez	r1,L371_LF5
 7949  0000750c  54000000	nop; not filled.
 7950  00007510          	L369_LF5:
 7951  00007510  23bdfff8	addi	r29,r29,#-8
 7952  00007514  3c020000	lhi	r2,((_debugstr)>>16)&0xffff
 7953  00007518  2442ef7c	addui	r2,r2,(_debugstr)&0xffff
 7954  0000751c  afa20000	sw	(r29),r2
 7955  00007520  20150069	addi	r21,r0,#105
 7956  00007524  afb50004	sw	4(r29),r21
 7957  00007528  0fffc9c4	jal	_dindex
 7958  0000752c  54000000	nop; not filled.
 7959  00007530  23bd0008	addi	r29,r29,#8
 7960  00007534  64210000	snei	r1,r1,#0
 7961  00007538  1420002c	bnez	r1,L392_LF5
 7962  0000753c  54000000	nop; not filled.
 7963  00007540  23bdfff8	addi	r29,r29,#-8
 7964  00007544  afa20000	sw	(r29),r2
 7965  00007548  2015002b	addi	r21,r0,#43
 7966  0000754c  afb50004	sw	4(r29),r21
 7967  00007550  0fffc99c	jal	_dindex
 7968  00007554  54000000	nop; not filled.
 7969  00007558  23bd0008	addi	r29,r29,#8
 7970  0000755c  64210000	snei	r1,r1,#0
 7971  00007560  10200020	beqz	r1,L391_LF5
 7972  00007564  54000000	nop; not filled.
 7973  00007568          	L392_LF5:
 7974  00007568  23bdfff8	addi	r29,r29,#-8
 7975  0000756c  3c150000	lhi	r21,((LC54_LF5)>>16)&0xffff
 7976  00007570  26b5edc8	addui	r21,r21,(LC54_LF5)&0xffff
 7977  00007574  afb50000	sw	(r29),r21
 7978  00007578  0c003f7c	jal	_printf
 7979  0000757c  54000000	nop; not filled.
 7980  00007580  23bd0008	addi	r29,r29,#8
 7981  00007584          	L391_LF5:
 7982  00007584  0c000f0c	jal	_QueueModuleInit
 7983  00007588  54000000	nop; not filled.
 7984  0000758c  23bdfff8	addi	r29,r29,#-8
 7985  00007590  3c020000	lhi	r2,((_debugstr)>>16)&0xffff
 7986  00007594  2442ef7c	addui	r2,r2,(_debugstr)&0xffff
 7987  00007598  afa20000	sw	(r29),r2
 7988  0000759c  20150069	addi	r21,r0,#105
 7989  000075a0  afb50004	sw	4(r29),r21
 7990  000075a4  0fffc948	jal	_dindex
 7991  000075a8  54000000	nop; not filled.
 7992  000075ac  23bd0008	addi	r29,r29,#8
 7993  000075b0  64210000	snei	r1,r1,#0
 7994  000075b4  1420002c	bnez	r1,L394_LF5
 7995  000075b8  54000000	nop; not filled.
 7996  000075bc  23bdfff8	addi	r29,r29,#-8
 7997  000075c0  afa20000	sw	(r29),r2
 7998  000075c4  2015002b	addi	r21,r0,#43
 7999  000075c8  afb50004	sw	4(r29),r21
 8000  000075cc  0fffc920	jal	_dindex
 8001  000075d0  54000000	nop; not filled.
 8002  000075d4  23bd0008	addi	r29,r29,#8
 8003  000075d8  64210000	snei	r1,r1,#0
 8004  000075dc  10200020	beqz	r1,L393_LF5
 8005  000075e0  54000000	nop; not filled.
 8006  000075e4          	L394_LF5:
 8007  000075e4  23bdfff8	addi	r29,r29,#-8
 8008  000075e8  3c150000	lhi	r21,((LC55_LF5)>>16)&0xffff
 8009  000075ec  26b5ede8	addui	r21,r21,(LC55_LF5)&0xffff
 8010  000075f0  afb50000	sw	(r29),r21
 8011  000075f4  0c003f00	jal	_printf
 8012  000075f8  54000000	nop; not filled.
 8013  000075fc  23bd0008	addi	r29,r29,#8
 8014  00007600          	L393_LF5:
 8015  00007600  0fffb568	jal	_MemoryModuleInit
 8016  00007604  54000000	nop; not filled.
 8017  00007608  23bdfff8	addi	r29,r29,#-8
 8018  0000760c  3c020000	lhi	r2,((_debugstr)>>16)&0xffff
 8019  00007610  2442ef7c	addui	r2,r2,(_debugstr)&0xffff
 8020  00007614  afa20000	sw	(r29),r2
 8021  00007618  20150069	addi	r21,r0,#105
 8022  0000761c  afb50004	sw	4(r29),r21
 8023  00007620  0fffc8cc	jal	_dindex
 8024  00007624  54000000	nop; not filled.
 8025  00007628  23bd0008	addi	r29,r29,#8
 8026  0000762c  64210000	snei	r1,r1,#0
 8027  00007630  1420002c	bnez	r1,L396_LF5
 8028  00007634  54000000	nop; not filled.
 8029  00007638  23bdfff8	addi	r29,r29,#-8
 8030  0000763c  afa20000	sw	(r29),r2
 8031  00007640  2015002b	addi	r21,r0,#43
 8032  00007644  afb50004	sw	4(r29),r21
 8033  00007648  0fffc8a4	jal	_dindex
 8034  0000764c  54000000	nop; not filled.
 8035  00007650  23bd0008	addi	r29,r29,#8
 8036  00007654  64210000	snei	r1,r1,#0
 8037  00007658  10200020	beqz	r1,L395_LF5
 8038  0000765c  54000000	nop; not filled.
 8039  00007660          	L396_LF5:
 8040  00007660  23bdfff8	addi	r29,r29,#-8
 8041  00007664  3c150000	lhi	r21,((LC56_LF5)>>16)&0xffff
 8042  00007668  26b5ee04	addui	r21,r21,(LC56_LF5)&0xffff
 8043  0000766c  afb50000	sw	(r29),r21
 8044  00007670  0c003e84	jal	_printf
 8045  00007674  54000000	nop; not filled.
 8046  00007678  23bd0008	addi	r29,r29,#8
 8047  0000767c          	L395_LF5:
 8048  0000767c  0fffd174	jal	_ProcessModuleInit
 8049  00007680  54000000	nop; not filled.
 8050  00007684  23bdfff8	addi	r29,r29,#-8
 8051  00007688  3c020000	lhi	r2,((_debugstr)>>16)&0xffff
 8052  0000768c  2442ef7c	addui	r2,r2,(_debugstr)&0xffff
 8053  00007690  afa20000	sw	(r29),r2
 8054  00007694  20150069	addi	r21,r0,#105
 8055  00007698  afb50004	sw	4(r29),r21
 8056  0000769c  0fffc850	jal	_dindex
 8057  000076a0  54000000	nop; not filled.
 8058  000076a4  23bd0008	addi	r29,r29,#8
 8059  000076a8  64210000	snei	r1,r1,#0
 8060  000076ac  1420002c	bnez	r1,L398_LF5
 8061  000076b0  54000000	nop; not filled.
 8062  000076b4  23bdfff8	addi	r29,r29,#-8
 8063  000076b8  afa20000	sw	(r29),r2
 8064  000076bc  2015002b	addi	r21,r0,#43
 8065  000076c0  afb50004	sw	4(r29),r21
 8066  000076c4  0fffc828	jal	_dindex
 8067  000076c8  54000000	nop; not filled.
 8068  000076cc  23bd0008	addi	r29,r29,#8
 8069  000076d0  64210000	snei	r1,r1,#0
 8070  000076d4  10200020	beqz	r1,L397_LF5
 8071  000076d8  54000000	nop; not filled.
 8072  000076dc          	L398_LF5:
 8073  000076dc  23bdfff8	addi	r29,r29,#-8
 8074  000076e0  3c150000	lhi	r21,((LC57_LF5)>>16)&0xffff
 8075  000076e4  26b5ee20	addui	r21,r21,(LC57_LF5)&0xffff
 8076  000076e8  afb50000	sw	(r29),r21
 8077  000076ec  0c003e08	jal	_printf
 8078  000076f0  54000000	nop; not filled.
 8079  000076f4  23bd0008	addi	r29,r29,#8
 8080  000076f8          	L397_LF5:
 8081  000076f8  0c001524	jal	_SynchModuleInit
 8082  000076fc  54000000	nop; not filled.
 8083  00007700  23bdfff8	addi	r29,r29,#-8
 8084  00007704  3c020000	lhi	r2,((_debugstr)>>16)&0xffff
 8085  00007708  2442ef7c	addui	r2,r2,(_debugstr)&0xffff
 8086  0000770c  afa20000	sw	(r29),r2
 8087  00007710  20150069	addi	r21,r0,#105
 8088  00007714  afb50004	sw	4(r29),r21
 8089  00007718  0fffc7d4	jal	_dindex
 8090  0000771c  54000000	nop; not filled.
 8091  00007720  23bd0008	addi	r29,r29,#8
 8092  00007724  64210000	snei	r1,r1,#0
 8093  00007728  1420002c	bnez	r1,L400_LF5
 8094  0000772c  54000000	nop; not filled.
 8095  00007730  23bdfff8	addi	r29,r29,#-8
 8096  00007734  afa20000	sw	(r29),r2
 8097  00007738  2015002b	addi	r21,r0,#43
 8098  0000773c  afb50004	sw	4(r29),r21
 8099  00007740  0fffc7ac	jal	_dindex
 8100  00007744  54000000	nop; not filled.
 8101  00007748  23bd0008	addi	r29,r29,#8
 8102  0000774c  64210000	snei	r1,r1,#0
 8103  00007750  10200020	beqz	r1,L399_LF5
 8104  00007754  54000000	nop; not filled.
 8105  00007758          	L400_LF5:
 8106  00007758  23bdfff8	addi	r29,r29,#-8
 8107  0000775c  3c150000	lhi	r21,((LC58_LF5)>>16)&0xffff
 8108  00007760  26b5ee40	addui	r21,r21,(LC58_LF5)&0xffff
 8109  00007764  afb50000	sw	(r29),r21
 8110  00007768  0c003d8c	jal	_printf
 8111  0000776c  54000000	nop; not filled.
 8112  00007770  23bd0008	addi	r29,r29,#8
 8113  00007774          	L399_LF5:
 8114  00007774  0c0021b0	jal	_KbdModuleInit
 8115  00007778  54000000	nop; not filled.
 8116  0000777c  23bdfff8	addi	r29,r29,#-8
 8117  00007780  3c020000	lhi	r2,((_debugstr)>>16)&0xffff
 8118  00007784  2442ef7c	addui	r2,r2,(_debugstr)&0xffff
 8119  00007788  afa20000	sw	(r29),r2
 8120  0000778c  20150069	addi	r21,r0,#105
 8121  00007790  afb50004	sw	4(r29),r21
 8122  00007794  0fffc758	jal	_dindex
 8123  00007798  54000000	nop; not filled.
 8124  0000779c  23bd0008	addi	r29,r29,#8
 8125  000077a0  64210000	snei	r1,r1,#0
 8126  000077a4  1420002c	bnez	r1,L402_LF5
 8127  000077a8  54000000	nop; not filled.
 8128  000077ac  23bdfff8	addi	r29,r29,#-8
 8129  000077b0  afa20000	sw	(r29),r2
 8130  000077b4  2015002b	addi	r21,r0,#43
 8131  000077b8  afb50004	sw	4(r29),r21
 8132  000077bc  0fffc730	jal	_dindex
 8133  000077c0  54000000	nop; not filled.
 8134  000077c4  23bd0008	addi	r29,r29,#8
 8135  000077c8  64210000	snei	r1,r1,#0
 8136  000077cc  10200020	beqz	r1,L401_LF5
 8137  000077d0  54000000	nop; not filled.
 8138  000077d4          	L402_LF5:
 8139  000077d4  23bdfff8	addi	r29,r29,#-8
 8140  000077d8  3c150000	lhi	r21,((LC59_LF5)>>16)&0xffff
 8141  000077dc  26b5ee6c	addui	r21,r21,(LC59_LF5)&0xffff
 8142  000077e0  afb50000	sw	(r29),r21
 8143  000077e4  0c003d10	jal	_printf
 8144  000077e8  54000000	nop; not filled.
 8145  000077ec  23bd0008	addi	r29,r29,#8
 8146  000077f0          	L401_LF5:
 8147  000077f0  23c2ff80	addi	r2,r30,#-128
 8148  000077f4  23c3ffe3	addi	r3,r30,#-29
 8149  000077f8          	L406_LF5:
 8150  000077f8  20150061	addi	r21,r0,(#0x61)&0xff
 8151  000077fc  a0550000	sb	(r2),r21
 8152  00007800  20420001	addi	r2,r2,#1
 8153  00007804  0043082c	sle	r1,r2,r3
 8154  00007808  1420ffec	bnez	r1,L406_LF5
 8155  0000780c  54000000	nop; not filled.
 8156  00007810  23bdfff8	addi	r29,r29,#-8
 8157  00007814  3c150000	lhi	r21,((LC60_LF5)>>16)&0xffff
 8158  00007818  26b5ee8c	addui	r21,r21,(LC60_LF5)&0xffff
 8159  0000781c  afb50000	sw	(r29),r21
 8160  00007820  20150002	addi	r21,r0,#2
 8161  00007824  afb50004	sw	4(r29),r21
 8162  00007828  0fff9f6c	jal	_FsOpen
 8163  0000782c  54000000	nop; not filled.
 8164  00007830  00014820	add	r9,r0,r1
 8165  00007834  3c020000	lhi	r2,((_debugstr)>>16)&0xffff
 8166  00007838  2442ef7c	addui	r2,r2,(_debugstr)&0xffff
 8167  0000783c  afa20000	sw	(r29),r2
 8168  00007840  20150069	addi	r21,r0,#105
 8169  00007844  afb50004	sw	4(r29),r21
 8170  00007848  0fffc6a4	jal	_dindex
 8171  0000784c  54000000	nop; not filled.
 8172  00007850  23bd0008	addi	r29,r29,#8
 8173  00007854  64210000	snei	r1,r1,#0
 8174  00007858  1420002c	bnez	r1,L409_LF5
 8175  0000785c  54000000	nop; not filled.
 8176  00007860  23bdfff8	addi	r29,r29,#-8
 8177  00007864  afa20000	sw	(r29),r2
 8178  00007868  2015002b	addi	r21,r0,#43
 8179  0000786c  afb50004	sw	4(r29),r21
 8180  00007870  0fffc67c	jal	_dindex
 8181  00007874  54000000	nop; not filled.
 8182  00007878  23bd0008	addi	r29,r29,#8
 8183  0000787c  64210000	snei	r1,r1,#0
 8184  00007880  10200024	beqz	r1,L408_LF5
 8185  00007884  54000000	nop; not filled.
 8186  00007888          	L409_LF5:
 8187  00007888  23bdfff8	addi	r29,r29,#-8
 8188  0000788c  3c150000	lhi	r21,((LC61_LF5)>>16)&0xffff
 8189  00007890  26b5ee90	addui	r21,r21,(LC61_LF5)&0xffff
 8190  00007894  afb50000	sw	(r29),r21
 8191  00007898  afa90004	sw	4(r29),r9
 8192  0000789c  0c003c58	jal	_printf
 8193  000078a0  54000000	nop; not filled.
 8194  000078a4  23bd0008	addi	r29,r29,#8
 8195  000078a8          	L408_LF5:
 8196  000078a8  23bdfff0	addi	r29,r29,#-16
 8197  000078ac  afa90000	sw	(r29),r9
 8198  000078b0  20150000	addi	r21,r0,#0
 8199  000078b4  afb50004	sw	4(r29),r21
 8200  000078b8  afb50008	sw	8(r29),r21
 8201  000078bc  0fffa534	jal	_FsSeek
 8202  000078c0  54000000	nop; not filled.
 8203  000078c4  afa90000	sw	(r29),r9
 8204  000078c8  23c1ff80	addi	r1,r30,#-128
 8205  000078cc  afa10004	sw	4(r29),r1
 8206  000078d0  20150050	addi	r21,r0,#80
 8207  000078d4  afb50008	sw	8(r29),r21
 8208  000078d8  0fffa41c	jal	_FsWrite
 8209  000078dc  54000000	nop; not filled.
 8210  000078e0  afa90000	sw	(r29),r9
 8211  000078e4  0fffa20c	jal	_FsClose
 8212  000078e8  54000000	nop; not filled.
 8213  000078ec  23bd0010	addi	r29,r29,#16
 8214  000078f0  66010000	snei	r1,r16,#0
 8215  000078f4  102000c4	beqz	r1,L410_LF5
 8216  000078f8  54000000	nop; not filled.
 8217  000078fc  00134820	add	r9,r0,r19
 8218  00007900  026e082a	slt	r1,r19,r14
 8219  00007904  10200044	beqz	r1,L412_LF5
 8220  00007908  54000000	nop; not filled.
 8221  0000790c  23c4fff8	addi	r4,r30,#-8
 8222  00007910  51210002	slli	r1,r9,#0x2
 8223  00007914  00341820	add	r3,r1,r20
 8224  00007918          	L416_LF5:
 8225  00007918  01331022	sub	r2,r9,r19
 8226  0000791c  7041000a	slei	r1,r2,#10
 8227  00007920  10200028	beqz	r1,L412_LF5
 8228  00007924  54000000	nop; not filled.
 8229  00007928  50410002	slli	r1,r2,#0x2
 8230  0000792c  00240820	add	r1,r1,r4
 8231  00007930  8c750000	lw	r21,(r3)
 8232  00007934  ac35ff58	sw	-168(r1),r21
 8233  00007938  20630004	addi	r3,r3,#4
 8234  0000793c  21290001	addi	r9,r9,#1
 8235  00007940  012e082a	slt	r1,r9,r14
 8236  00007944  1420ffd0	bnez	r1,L416_LF5
 8237  00007948  54000000	nop; not filled.
 8238  0000794c          	L412_LF5:
 8239  0000794c  23bdffd0	addi	r29,r29,#-48
 8240  00007950  8fd5ff50	lw	r21,-176(r30)
 8241  00007954  afb50000	sw	(r29),r21
 8242  00007958  8fc1ff54	lw	r1,-172(r30)
 8243  0000795c  afa10004	sw	4(r29),r1
 8244  00007960  8fd5ff58	lw	r21,-168(r30)
 8245  00007964  afb50008	sw	8(r29),r21
 8246  00007968  8fd5ff5c	lw	r21,-164(r30)
 8247  0000796c  afb5000c	sw	12(r29),r21
 8248  00007970  8fd5ff60	lw	r21,-160(r30)
 8249  00007974  afb50010	sw	16(r29),r21
 8250  00007978  8fd5ff64	lw	r21,-156(r30)
 8251  0000797c  afb50014	sw	20(r29),r21
 8252  00007980  8fd5ff68	lw	r21,-152(r30)
 8253  00007984  afb50018	sw	24(r29),r21
 8254  00007988  8fd5ff6c	lw	r21,-148(r30)
 8255  0000798c  afb5001c	sw	28(r29),r21
 8256  00007990  8fd5ff70	lw	r21,-144(r30)
 8257  00007994  afb50020	sw	32(r29),r21
 8258  00007998  8fd5ff74	lw	r21,-140(r30)
 8259  0000799c  afb50024	sw	36(r29),r21
 8260  000079a0  8fd5ff78	lw	r21,-136(r30)
 8261  000079a4  afb50028	sw	40(r29),r21
 8262  000079a8  8fd5ff7c	lw	r21,-132(r30)
 8263  000079ac  afb5002c	sw	44(r29),r21
 8264  000079b0  0c000218	jal	_process_create
 8265  000079b4  54000000	nop; not filled.
 8266  000079b8  23bd0030	addi	r29,r29,#48
 8267  000079bc          	L410_LF5:
 8268  000079bc  0c003a20	jal	_SysprocCreateProcesses
 8269  000079c0  54000000	nop; not filled.
 8270  000079c4  23bdfff8	addi	r29,r29,#-8
 8271  000079c8  3c020000	lhi	r2,((_debugstr)>>16)&0xffff
 8272  000079cc  2442ef7c	addui	r2,r2,(_debugstr)&0xffff
 8273  000079d0  afa20000	sw	(r29),r2
 8274  000079d4  20150069	addi	r21,r0,#105
 8275  000079d8  afb50004	sw	4(r29),r21
 8276  000079dc  0fffc510	jal	_dindex
 8277  000079e0  54000000	nop; not filled.
 8278  000079e4  23bd0008	addi	r29,r29,#8
 8279  000079e8  64210000	snei	r1,r1,#0
 8280  000079ec  1420002c	bnez	r1,L418_LF5
 8281  000079f0  54000000	nop; not filled.
 8282  000079f4  23bdfff8	addi	r29,r29,#-8
 8283  000079f8  afa20000	sw	(r29),r2
 8284  000079fc  2015002b	addi	r21,r0,#43
 8285  00007a00  afb50004	sw	4(r29),r21
 8286  00007a04  0fffc4e8	jal	_dindex
 8287  00007a08  54000000	nop; not filled.
 8288  00007a0c  23bd0008	addi	r29,r29,#8
 8289  00007a10  64210000	snei	r1,r1,#0
 8290  00007a14  10200020	beqz	r1,L417_LF5
 8291  00007a18  54000000	nop; not filled.
 8292  00007a1c          	L418_LF5:
 8293  00007a1c  23bdfff8	addi	r29,r29,#-8
 8294  00007a20  3c150000	lhi	r21,((LC62_LF5)>>16)&0xffff
 8295  00007a24  26b5eea8	addui	r21,r21,(LC62_LF5)&0xffff
 8296  00007a28  afb50000	sw	(r29),r21
 8297  00007a2c  0c003ac8	jal	_printf
 8298  00007a30  54000000	nop; not filled.
 8299  00007a34  23bd0008	addi	r29,r29,#8
 8300  00007a38          	L417_LF5:
 8301  00007a38  23bdfff8	addi	r29,r29,#-8
 8302  00007a3c  3c030000	lhi	r3,((_processQuantum_LF5)>>16)&0xffff
 8303  00007a40  2463e478	addui	r3,r3,(_processQuantum_LF5)&0xffff
 8304  00007a44  8c750000	lw	r21,(r3)
 8305  00007a48  afb50000	sw	(r29),r21
 8306  00007a4c  0c001ea4	jal	_TimerSet
 8307  00007a50  54000000	nop; not filled.
 8308  00007a54  3c020000	lhi	r2,((_debugstr)>>16)&0xffff
 8309  00007a58  2442ef7c	addui	r2,r2,(_debugstr)&0xffff
 8310  00007a5c  afa20000	sw	(r29),r2
 8311  00007a60  20150069	addi	r21,r0,#105
 8312  00007a64  afb50004	sw	4(r29),r21
 8313  00007a68  0fffc484	jal	_dindex
 8314  00007a6c  54000000	nop; not filled.
 8315  00007a70  23bd0008	addi	r29,r29,#8
 8316  00007a74  64210000	snei	r1,r1,#0
 8317  00007a78  1420002c	bnez	r1,L420_LF5
 8318  00007a7c  54000000	nop; not filled.
 8319  00007a80  23bdfff8	addi	r29,r29,#-8
 8320  00007a84  afa20000	sw	(r29),r2
 8321  00007a88  2015002b	addi	r21,r0,#43
 8322  00007a8c  afb50004	sw	4(r29),r21
 8323  00007a90  0fffc45c	jal	_dindex
 8324  00007a94  54000000	nop; not filled.
 8325  00007a98  23bd0008	addi	r29,r29,#8
 8326  00007a9c  64210000	snei	r1,r1,#0
 8327  00007aa0  10200028	beqz	r1,L419_LF5
 8328  00007aa4  54000000	nop; not filled.
 8329  00007aa8          	L420_LF5:
 8330  00007aa8  23bdfff8	addi	r29,r29,#-8
 8331  00007aac  3c150000	lhi	r21,((LC63_LF5)>>16)&0xffff
 8332  00007ab0  26b5eedc	addui	r21,r21,(LC63_LF5)&0xffff
 8333  00007ab4  afb50000	sw	(r29),r21
 8334  00007ab8  8c610000	lw	r1,(r3)
 8335  00007abc  afa10004	sw	4(r29),r1
 8336  00007ac0  0c003a34	jal	_printf
 8337  00007ac4  54000000	nop; not filled.
 8338  00007ac8  23bd0008	addi	r29,r29,#8
 8339  00007acc          	L419_LF5:
 8340  00007acc  0fff9698	jal	_intrreturn
 8341  00007ad0  54000000	nop; not filled.
 8342  00007ad4  0c003a08	jal	_exitsim
 8343  00007ad8  54000000	nop; not filled.
 8344  00007adc  0c003a0c	jal	_exit
 8345  00007ae0  54000000	nop
 8346  00007ae4          	.endproc _main
 8347  00007ae4          	.data
 8348  0000ef12          	.align 2
 8349  0000ef14          	LC65_LF5:
 8350  0000ef14  00000000	.word 0x00000000
 8351                      ;;              0.0000000e+00
 8352  0000ef18          	.text
 8353  00007ae4          	.align 2
 8354  00007ae4          	.proc _MyFuncRetZero
 8355  00007ae4          	.global _MyFuncRetZero
 8356  00007ae4          	_MyFuncRetZero:
 8357                      ;  Function 'MyFuncRetZero'; 0 bytes of locals, 0 regs to save.
 8358  00007ae4  afbefffc	sw	-4(r29),r30; push fp
 8359  00007ae8  001df020	add	r30,r0,r29; fp = sp
 8360  00007aec  afbffff8	sw	-8(r29),r31; push ret addr
 8361  00007af0  2fbd0008	subui	r29,r29,#8; alloc local storage
 8362  00007af4  3c010000	lhi	r1,((LC65_LF5)>>16)&0xffff
 8363  00007af8  2421ef14	addui	r1,r1,(LC65_LF5)&0xffff
 8364  00007afc  98200000	lf	f0,(r1)
 8365  00007b00  8fdffff8	lw	r31,-8(r30)
 8366  00007b04  001ee820	add	r29,r0,r30
 8367  00007b08  8fdefffc	lw	r30,-4(r30)
 8368  00007b0c  4be00000	jr	r31
 8369  00007b10  54000000	nop
 8370  00007b14          	.endproc _MyFuncRetZero
 8371  00007b14          	.align 2
 8372  00007b14          	.proc _GetCurrentPid
 8373  00007b14          	.global _GetCurrentPid
 8374  00007b14          	_GetCurrentPid:
 8375                      ;  Function 'GetCurrentPid'; 0 bytes of locals, 1 regs to save.
 8376  00007b14  afbefffc	sw	-4(r29),r30; push fp
 8377  00007b18  001df020	add	r30,r0,r29; fp = sp
 8378  00007b1c  afbffff8	sw	-8(r29),r31; push ret addr
 8379  00007b20  2fbd0010	subui	r29,r29,#16; alloc local storage
 8380  00007b24  afa20000	sw	0(r29),r2
 8381  00007b28  3c010000	lhi	r1,((_currentPCB)>>16)&0xffff
 8382  00007b2c  2421f044	addui	r1,r1,(_currentPCB)&0xffff
 8383  00007b30  8c210000	lw	r1,(r1)
 8384  00007b34  3c1f0000	lhi	r31,((_pcbs_LF5)>>16)&0xffff
 8385  00007b38  27fff078	addui	r31,r31,(_pcbs_LF5)&0xffff
 8386  00007b3c  003f1022	sub	r2,r1,r31
 8387  00007b40  3c013f4f	lhi	r1,#16207
 8388  00007b44  2421d3f5	addui	r1,r1,#54261
 8389  00007b48  00400035	movi2fp	f0,r2
 8390  00007b4c  00200835	movi2fp	f1,r1
 8391  00007b50  0401000e	mult	f0,f0,f1
 8392  00007b54  00000834	movfp2i	r1,f0
 8393  00007b58  5c210002	srai	r1,r1,#0x2
 8394  00007b5c  8fa20000	lw	r2,0(r29)
 8395  00007b60  8fdffff8	lw	r31,-8(r30)
 8396  00007b64  001ee820	add	r29,r0,r30
 8397  00007b68  8fdefffc	lw	r30,-4(r30)
 8398  00007b6c  4be00000	jr	r31
 8399  00007b70  54000000	nop
 8400  00007b74          	.endproc _GetCurrentPid
 8401  00007b74          	.align 2
 8402  00007b74          	.proc _findpid
 8403  00007b74          	.global _findpid
 8404  00007b74          	_findpid:
 8405                      ;  Function 'findpid'; 0 bytes of locals, 1 regs to save.
 8406  00007b74  afbefffc	sw	-4(r29),r30; push fp
 8407  00007b78  001df020	add	r30,r0,r29; fp = sp
 8408  00007b7c  afbffff8	sw	-8(r29),r31; push ret addr
 8409  00007b80  2fbd0010	subui	r29,r29,#16; alloc local storage
 8410  00007b84  afa20000	sw	0(r29),r2
 8411  00007b88  8fc10000	lw	r1,(r30)
 8412  00007b8c  3c1f0000	lhi	r31,((_pcbs_LF5)>>16)&0xffff
 8413  00007b90  27fff078	addui	r31,r31,(_pcbs_LF5)&0xffff
 8414  00007b94  003f1022	sub	r2,r1,r31
 8415  00007b98  3c013f4f	lhi	r1,#16207
 8416  00007b9c  2421d3f5	addui	r1,r1,#54261
 8417  00007ba0  00400035	movi2fp	f0,r2
 8418  00007ba4  00200835	movi2fp	f1,r1
 8419  00007ba8  0401000e	mult	f0,f0,f1
 8420  00007bac  00000834	movfp2i	r1,f0
 8421  00007bb0  5c210002	srai	r1,r1,#0x2
 8422  00007bb4  8fa20000	lw	r2,0(r29)
 8423  00007bb8  8fdffff8	lw	r31,-8(r30)
 8424  00007bbc  001ee820	add	r29,r0,r30
 8425  00007bc0  8fdefffc	lw	r30,-4(r30)
 8426  00007bc4  4be00000	jr	r31
 8427  00007bc8  54000000	nop
 8428  00007bcc          	.endproc _findpid
 8429  00007bcc          	.align 2
 8430  00007bcc          	.proc _process_create
 8431  00007bcc          	.global _process_create
 8432  00007bcc          	_process_create:
 8433                      ;  Function 'process_create'; 1000 bytes of locals, 5 regs to save.
 8434  00007bcc  afbefffc	sw	-4(r29),r30; push fp
 8435  00007bd0  001df020	add	r30,r0,r29; fp = sp
 8436  00007bd4  afbffff8	sw	-8(r29),r31; push ret addr
 8437  00007bd8  2fbd0408	subui	r29,r29,#1032; alloc local storage
 8438  00007bdc  afa20000	sw	0(r29),r2
 8439  00007be0  afa30004	sw	4(r29),r3
 8440  00007be4  afa40008	sw	8(r29),r4
 8441  00007be8  afa5000c	sw	12(r29),r5
 8442  00007bec  afa60010	sw	16(r29),r6
 8443  00007bf0  20040000	addi	r4,r0,#0
 8444  00007bf4  8fc10000	lw	r1,(r30)
 8445  00007bf8  64210000	snei	r1,r1,#0
 8446  00007bfc  1020005c	beqz	r1,L430_LF5
 8447  00007c00  54000000	nop; not filled.
 8448  00007c04  23c5fc10	addi	r5,r30,#-1008
 8449  00007c08  001ef820	add	r31,r0,r30
 8450  00007c0c          	L432_LF5:
 8451  00007c0c  20020000	addi	r2,r0,#0
 8452  00007c10  00851820	add	r3,r4,r5
 8453  00007c14          	L433_LF5:
 8454  00007c14  8fe10000	lw	r1,(r31)
 8455  00007c18  00220820	add	r1,r1,r2
 8456  00007c1c  80210000	lb	r1,(r1)
 8457  00007c20  a0610000	sb	(r3),r1
 8458  00007c24  20420001	addi	r2,r2,#1
 8459  00007c28  20630001	addi	r3,r3,#1
 8460  00007c2c  20840001	addi	r4,r4,#1
 8461  00007c30  8fe10000	lw	r1,(r31)
 8462  00007c34  00410820	add	r1,r2,r1
 8463  00007c38  9021ffff	lbu	r1,-1(r1)
 8464  00007c3c  64210000	snei	r1,r1,#0
 8465  00007c40  1420ffd0	bnez	r1,L433_LF5
 8466  00007c44  54000000	nop; not filled.
 8467  00007c48  23ff0004	addi	r31,r31,#4
 8468  00007c4c  8fe10000	lw	r1,(r31)
 8469  00007c50  64210000	snei	r1,r1,#0
 8470  00007c54  1420ffb4	bnez	r1,L432_LF5
 8471  00007c58  54000000	nop; not filled.
 8472  00007c5c          	L430_LF5:
 8473  00007c5c  23c3fc10	addi	r3,r30,#-1008
 8474  00007c60  00641020	add	r2,r3,r4
 8475  00007c64  23c1fc11	addi	r1,r30,#-1007
 8476  00007c68  00240820	add	r1,r1,r4
 8477  00007c6c  20060000	addi	r6,r0,(#0x0)&0xff
 8478  00007c70  a0260000	sb	(r1),r6
 8479  00007c74  a0460000	sb	(r2),r6
 8480  00007c78  23bdfff0	addi	r29,r29,#-16
 8481  00007c7c  20060000	addi	r6,r0,#0
 8482  00007c80  afa60000	sw	(r29),r6
 8483  00007c84  afa30004	sw	4(r29),r3
 8484  00007c88  8fc60000	lw	r6,(r30)
 8485  00007c8c  afa60008	sw	8(r29),r6
 8486  00007c90  20060001	addi	r6,r0,#1
 8487  00007c94  afa6000c	sw	12(r29),r6
 8488  00007c98  0fffda84	jal	_ProcessFork
 8489  00007c9c  54000000	nop; not filled.
 8490  00007ca0  23bd0010	addi	r29,r29,#16
 8491  00007ca4  8fa20000	lw	r2,0(r29)
 8492  00007ca8  8fa30004	lw	r3,4(r29)
 8493  00007cac  8fa40008	lw	r4,8(r29)
 8494  00007cb0  8fa5000c	lw	r5,12(r29)
 8495  00007cb4  8fa60010	lw	r6,16(r29)
 8496  00007cb8  8fdffff8	lw	r31,-8(r30)
 8497  00007cbc  001ee820	add	r29,r0,r30
 8498  00007cc0  8fdefffc	lw	r30,-4(r30)
 8499  00007cc4  4be00000	jr	r31
 8500  00007cc8  54000000	nop
 8501  00007ccc          	.endproc _process_create
 8502  00007ccc          	.align 2
 8503  00007ccc          	.proc _ProcessKill
 8504  00007ccc          	.global _ProcessKill
 8505  00007ccc          	_ProcessKill:
 8506                      ;  Function 'ProcessKill'; 0 bytes of locals, 5 regs to save.
 8507  00007ccc  afbefffc	sw	-4(r29),r30; push fp
 8508  00007cd0  001df020	add	r30,r0,r29; fp = sp
 8509  00007cd4  afbffff8	sw	-8(r29),r31; push ret addr
 8510  00007cd8  2fbd0020	subui	r29,r29,#32; alloc local storage
 8511  00007cdc  afa20000	sw	0(r29),r2
 8512  00007ce0  afa30004	sw	4(r29),r3
 8513  00007ce4  afa40008	sw	8(r29),r4
 8514  00007ce8  afa5000c	sw	12(r29),r5
 8515  00007cec  afa60010	sw	16(r29),r6
 8516  00007cf0  8fc40000	lw	r4,(r30)
 8517  00007cf4  20830164	addi	r3,r4,#356
 8518  00007cf8  8c81016c	lw	r1,364(r4)
 8519  00007cfc  8c210008	lw	r1,8(r1)
 8520  00007d00  6c210000	sgti	r1,r1,#0
 8521  00007d04  1020002c	beqz	r1,L440_LF5
 8522  00007d08  54000000	nop; not filled.
 8523  00007d0c  8c810168	lw	r1,360(r4)
 8524  00007d10  8c660000	lw	r6,(r3)
 8525  00007d14  ac260000	sw	(r1),r6
 8526  00007d18  8c610000	lw	r1,(r3)
 8527  00007d1c  8c860168	lw	r6,360(r4)
 8528  00007d20  ac260004	sw	4(r1),r6
 8529  00007d24  8c82016c	lw	r2,364(r4)
 8530  00007d28  8c410008	lw	r1,8(r2)
 8531  00007d2c  2021ffff	addi	r1,r1,#-1
 8532  00007d30  ac410008	sw	8(r2),r1
 8533  00007d34          	L440_LF5:
 8534  00007d34  20060000	addi	r6,r0,#0
 8535  00007d38  ac660000	sw	(r3),r6
 8536  00007d3c  3c020000	lhi	r2,((_freepcbs_LF5)>>16)&0xffff
 8537  00007d40  2442f048	addui	r2,r2,(_freepcbs_LF5)&0xffff
 8538  00007d44  8c410004	lw	r1,4(r2)
 8539  00007d48  ac82016c	sw	364(r4),r2
 8540  00007d4c  ac810168	sw	360(r4),r1
 8541  00007d50  8c260000	lw	r6,(r1)
 8542  00007d54  ac660000	sw	(r3),r6
 8543  00007d58  ac230000	sw	(r1),r3
 8544  00007d5c  8c610000	lw	r1,(r3)
 8545  00007d60  ac230004	sw	4(r1),r3
 8546  00007d64  8c410008	lw	r1,8(r2)
 8547  00007d68  20210001	addi	r1,r1,#1
 8548  00007d6c  ac410008	sw	8(r2),r1
 8549  00007d70  00041820	add	r3,r0,r4
 8550  00007d74  208500fc	addi	r5,r4,#252
 8551  00007d78          	L448_LF5:
 8552  00007d78  20620060	addi	r2,r3,#96
 8553  00007d7c  8c410000	lw	r1,(r2)
 8554  00007d80  30210001	andi	r1,r1,#1
 8555  00007d84  10200060	beqz	r1,L447_LF5
 8556  00007d88  54000000	nop; not filled.
 8557  00007d8c  23bdfff8	addi	r29,r29,#-8
 8558  00007d90  3c060000	lhi	r6,((LC3_LF5)>>16)&0xffff
 8559  00007d94  24c6e4d4	addui	r6,r6,(LC3_LF5)&0xffff
 8560  00007d98  afa60000	sw	(r29),r6
 8561  00007d9c  8c810160	lw	r1,352(r4)
 8562  00007da0  afa10004	sw	4(r29),r1
 8563  00007da4  0c003750	jal	_printf
 8564  00007da8  54000000	nop; not filled.
 8565  00007dac  8c420000	lw	r2,(r2)
 8566  00007db0  afa20000	sw	(r29),r2
 8567  00007db4  0fffb9dc	jal	_MemoryFreePte
 8568  00007db8  54000000	nop; not filled.
 8569  00007dbc  8c810160	lw	r1,352(r4)
 8570  00007dc0  2021ffff	addi	r1,r1,#-1
 8571  00007dc4  ac810160	sw	352(r4),r1
 8572  00007dc8  3c060000	lhi	r6,((LC4_LF5)>>16)&0xffff
 8573  00007dcc  24c6e4fc	addui	r6,r6,(LC4_LF5)&0xffff
 8574  00007dd0  afa60000	sw	(r29),r6
 8575  00007dd4  8c810160	lw	r1,352(r4)
 8576  00007dd8  afa10004	sw	4(r29),r1
 8577  00007ddc  0c003718	jal	_printf
 8578  00007de0  54000000	nop; not filled.
 8579  00007de4  23bd0008	addi	r29,r29,#8
 8580  00007de8          	L447_LF5:
 8581  00007de8  20630004	addi	r3,r3,#4
 8582  00007dec  0065082c	sle	r1,r3,r5
 8583  00007df0  1420ff84	bnez	r1,L448_LF5
 8584  00007df4  54000000	nop; not filled.
 8585  00007df8  23bdfff8	addi	r29,r29,#-8
 8586  00007dfc  8c810008	lw	r1,8(r4)
 8587  00007e00  5821000d	srli	r1,r1,#0xd
 8588  00007e04  afa10000	sw	(r29),r1
 8589  00007e08  0fffb404	jal	_MemoryFreePage
 8590  00007e0c  54000000	nop; not filled.
 8591  00007e10  23bd0008	addi	r29,r29,#8
 8592  00007e14  8c81000c	lw	r1,12(r4)
 8593  00007e18  2006ffc0	addi	r6,r0,#-64
 8594  00007e1c  00260824	and	r1,r1,r6
 8595  00007e20  34210001	ori	r1,r1,#1
 8596  00007e24  ac81000c	sw	12(r4),r1
 8597  00007e28  0fffce28	jal	_ProcessSchedule
 8598  00007e2c  54000000	nop; not filled.
 8599  00007e30  8fa20000	lw	r2,0(r29)
 8600  00007e34  8fa30004	lw	r3,4(r29)
 8601  00007e38  8fa40008	lw	r4,8(r29)
 8602  00007e3c  8fa5000c	lw	r5,12(r29)
 8603  00007e40  8fa60010	lw	r6,16(r29)
 8604  00007e44  8fdffff8	lw	r31,-8(r30)
 8605  00007e48  001ee820	add	r29,r0,r30
 8606  00007e4c  8fdefffc	lw	r30,-4(r30)
 8607  00007e50  4be00000	jr	r31
 8608  00007e54  54000000	nop
 8609  00007e58          	.endproc _ProcessKill
 8610  00007e58          	.data
 8611  0000ef18          	.align 2
 8612  0000ef18          	LC66_LF5:
 8613  0000ef18  50726f63	.ascii "Process id: %d\tPage fault address: 0x%x\tPhysical page number: %d\n\000"
 8613  0000ef1c  65737320	
 8613  0000ef20  69643a20	
 8613  0000ef24  25640950	
 8613  0000ef28  61676520	
 8613  0000ef2c  6661756c	
 8613  0000ef30  74206164	
 8613  0000ef34  64726573	
 8613  0000ef38  733a2030	
 8613  0000ef3c  78257809	
 8613  0000ef40  50687973	
 8613  0000ef44  6963616c	
 8613  0000ef48  20706167	
 8613  0000ef4c  65206e75	
 8613  0000ef50  6d626572	
 8613  0000ef54  3a202564	
 8613  0000ef58  0a00    	
 8614  0000ef5a          	.align 2
 8615  0000ef5c          	LC67_LF5:
 8616  0000ef5c  6f757420	.ascii "out of memory, killing process\n\000"
 8616  0000ef60  6f66206d	
 8616  0000ef64  656d6f72	
 8616  0000ef68  792c206b	
 8616  0000ef6c  696c6c69	
 8616  0000ef70  6e672070	
 8616  0000ef74  726f6365	
 8616  0000ef78  73730a00	
 8617  0000ef7c          	.text
 8618  00007e58          	.align 2
 8619  00007e58          	.proc _PageFaultHandler
 8620  00007e58          	.global _PageFaultHandler
 8621  00007e58          	_PageFaultHandler:
 8622                      ;  Function 'PageFaultHandler'; 0 bytes of locals, 7 regs to save.
 8623  00007e58  afbefffc	sw	-4(r29),r30; push fp
 8624  00007e5c  001df020	add	r30,r0,r29; fp = sp
 8625  00007e60  afbffff8	sw	-8(r29),r31; push ret addr
 8626  00007e64  2fbd0028	subui	r29,r29,#40; alloc local storage
 8627  00007e68  afa20000	sw	0(r29),r2
 8628  00007e6c  afa30004	sw	4(r29),r3
 8629  00007e70  afa40008	sw	8(r29),r4
 8630  00007e74  afa5000c	sw	12(r29),r5
 8631  00007e78  afa60010	sw	16(r29),r6
 8632  00007e7c  afa70014	sw	20(r29),r7
 8633  00007e80  afa80018	sw	24(r29),r8
 8634  00007e84  3c050000	lhi	r5,((_currentPCB)>>16)&0xffff
 8635  00007e88  24a5f044	addui	r5,r5,(_currentPCB)&0xffff
 8636  00007e8c  8ca20000	lw	r2,(r5)
 8637  00007e90  8c410000	lw	r1,(r2)
 8638  00007e94  8c260134	lw	r6,308(r1)
 8639  00007e98  3c080000	lhi	r8,((_pcbs_LF5)>>16)&0xffff
 8640  00007e9c  2508f078	addui	r8,r8,(_pcbs_LF5)&0xffff
 8641  00007ea0  00481822	sub	r3,r2,r8
 8642  00007ea4  3c013f4f	lhi	r1,#16207
 8643  00007ea8  2421d3f5	addui	r1,r1,#54261
 8644  00007eac  00600035	movi2fp	f0,r3
 8645  00007eb0  00200835	movi2fp	f1,r1
 8646  00007eb4  0401000e	mult	f0,f0,f1
 8647  00007eb8  00000834	movfp2i	r1,f0
 8648  00007ebc  5c270002	srai	r7,r1,#0x2
 8649  00007ec0  8c410160	lw	r1,352(r2)
 8650  00007ec4  7021000f	slei	r1,r1,#15
 8651  00007ec8  102000a4	beqz	r1,L454_LF5
 8652  00007ecc  54000000	nop; not filled.
 8653  00007ed0  0fffb074	jal	_MemoryAllocPage
 8654  00007ed4  54000000	nop; not filled.
 8655  00007ed8  00012020	add	r4,r0,r1
 8656  00007edc  8ca20000	lw	r2,(r5)
 8657  00007ee0  8c410160	lw	r1,352(r2)
 8658  00007ee4  20210001	addi	r1,r1,#1
 8659  00007ee8  ac410160	sw	352(r2),r1
 8660  00007eec  64810000	snei	r1,r4,#0
 8661  00007ef0  14200028	bnez	r1,L455_LF5
 8662  00007ef4  54000000	nop; not filled.
 8663  00007ef8  23bdfff8	addi	r29,r29,#-8
 8664  00007efc  3c080000	lhi	r8,((LC25_LF5)>>16)&0xffff
 8665  00007f00  2508e7bc	addui	r8,r8,(LC25_LF5)&0xffff
 8666  00007f04  afa80000	sw	(r29),r8
 8667  00007f08  0c0035ec	jal	_printf
 8668  00007f0c  54000000	nop; not filled.
 8669  00007f10  0c0035cc	jal	_exitsim
 8670  00007f14  54000000	nop; not filled.
 8671  00007f18  23bd0008	addi	r29,r29,#8
 8672  00007f1c          	L455_LF5:
 8673  00007f1c  23bdfff8	addi	r29,r29,#-8
 8674  00007f20  afa40000	sw	(r29),r4
 8675  00007f24  0fffb83c	jal	_MemorySetupPte
 8676  00007f28  54000000	nop; not filled.
 8677  00007f2c  8ca30000	lw	r3,(r5)
 8678  00007f30  58c2000d	srli	r2,r6,#0xd
 8679  00007f34  50420002	slli	r2,r2,#0x2
 8680  00007f38  00431020	add	r2,r2,r3
 8681  00007f3c  ac410060	sw	96(r2),r1
 8682  00007f40  23bdfff8	addi	r29,r29,#-8
 8683  00007f44  3c080000	lhi	r8,((LC66_LF5)>>16)&0xffff
 8684  00007f48  2508ef18	addui	r8,r8,(LC66_LF5)&0xffff
 8685  00007f4c  afa80000	sw	(r29),r8
 8686  00007f50  afa70004	sw	4(r29),r7
 8687  00007f54  afa60008	sw	8(r29),r6
 8688  00007f58  afa4000c	sw	12(r29),r4
 8689  00007f5c  0c003598	jal	_printf
 8690  00007f60  54000000	nop; not filled.
 8691  00007f64  23bd0010	addi	r29,r29,#16
 8692  00007f68  08000030	j	L456_LF5
 8693  00007f6c  54000000	nop; not filled.
 8694  00007f70          	L454_LF5:
 8695  00007f70  23bdfff8	addi	r29,r29,#-8
 8696  00007f74  3c080000	lhi	r8,((LC67_LF5)>>16)&0xffff
 8697  00007f78  2508ef5c	addui	r8,r8,(LC67_LF5)&0xffff
 8698  00007f7c  afa80000	sw	(r29),r8
 8699  00007f80  0c003574	jal	_printf
 8700  00007f84  54000000	nop; not filled.
 8701  00007f88  8ca50000	lw	r5,(r5)
 8702  00007f8c  afa50000	sw	(r29),r5
 8703  00007f90  0ffffd38	jal	_ProcessKill
 8704  00007f94  54000000	nop; not filled.
 8705  00007f98  23bd0008	addi	r29,r29,#8
 8706  00007f9c          	L456_LF5:
 8707  00007f9c  8fa20000	lw	r2,0(r29)
 8708  00007fa0  8fa30004	lw	r3,4(r29)
 8709  00007fa4  8fa40008	lw	r4,8(r29)
 8710  00007fa8  8fa5000c	lw	r5,12(r29)
 8711  00007fac  8fa60010	lw	r6,16(r29)
 8712  00007fb0  8fa70014	lw	r7,20(r29)
 8713  00007fb4  8fa80018	lw	r8,24(r29)
 8714  00007fb8  8fdffff8	lw	r31,-8(r30)
 8715  00007fbc  001ee820	add	r29,r0,r30
 8716  00007fc0  8fdefffc	lw	r30,-4(r30)
 8717  00007fc4  4be00000	jr	r31
 8718  00007fc8  54000000	nop
 8719  00007fcc          	.endproc _PageFaultHandler
 8720  00007fcc          	.data
 8721  0000ef7c          	.global _debugstr
 8722  0000ef7c          	_debugstr:
 8723  0000ef7c          	.space 200
 8724  0000f044          	.align 2
 8725  0000f044          	.global _currentPCB
 8726  0000f044          	_currentPCB:
 8727  0000f044          	.space 4
 8728  0000f048          	.align 2
 8729  0000f048          	_freepcbs_LF5:
 8730  0000f048          	.space 12
 8731  0000f054          	.align 2
 8732  0000f054          	_runQueue_LF5:
 8733  0000f054          	.space 12
 8734  0000f060          	.align 2
 8735  0000f060          	_waitQueue_LF5:
 8736  0000f060          	.space 12
 8737  0000f06c          	.align 2
 8738  0000f06c          	_zombieQueue_LF5:
 8739  0000f06c          	.space 12
 8740  0000f078          	.align 2
 8741  0000f078          	_pcbs_LF5:
 8742  0000f078          	.space 11904
 8743  00011ef8          	.text
 8744  00007fcc          	.align 2
 8745  00007fcc          	.proc _ProcessExit_LF5
 8746  00007fcc          	_ProcessExit_LF5:
 8747                      ;  Function 'ProcessExit'; 0 bytes of locals, 0 regs to save.
 8748  00007fcc  afbefffc	sw	-4(r29),r30; push fp
 8749  00007fd0  001df020	add	r30,r0,r29; fp = sp
 8750  00007fd4  afbffff8	sw	-8(r29),r31; push ret addr
 8751  00007fd8  2fbd0008	subui	r29,r29,#8; alloc local storage
 8752  00007fdc  0c00350c	jal	_exit
 8753  00007fe0  54000000	nop; not filled.
 8754  00007fe4  8fdffff8	lw	r31,-8(r30)
 8755  00007fe8  001ee820	add	r29,r0,r30
 8756  00007fec  8fdefffc	lw	r30,-4(r30)
 8757  00007ff0  4be00000	jr	r31
 8758  00007ff4  54000000	nop
 8759  00007ff8          	.endproc _ProcessExit_LF5
 8760                      ; Compiled by GCC
 8762  00007ff8          	.align 2
 8763  00007ff8          	.proc _isspace
 8764  00007ff8          	.global _isspace
 8765  00007ff8          	_isspace:
 8766                      ;  Function 'isspace'; 0 bytes of locals, 1 regs to save.
 8767  00007ff8  afbefffc	sw	-4(r29),r30; push fp
 8768  00007ffc  001df020	add	r30,r0,r29; fp = sp
 8769  00008000  afbffff8	sw	-8(r29),r31; push ret addr
 8770  00008004  2fbd0010	subui	r29,r29,#16; alloc local storage
 8771  00008008  afa20000	sw	0(r29),r2
 8772  0000800c  83c20003	lb	r2,3(r30)
 8773  00008010  201f0000	addi	r31,r0,#0
 8774  00008014  304100ff	andi	r1,r2,#0x00ff
 8775  00008018  60210020	seqi	r1,r1,#32
 8776  0000801c  14200018	bnez	r1,L6_LF6
 8777  00008020  54000000	nop; not filled.
 8778  00008024  2041fff7	addi	r1,r2,#-9
 8779  00008028  302100ff	andi	r1,r1,#0x00ff
 8780  0000802c  70210001	sleui	r1,r1,#1
 8781  00008030  10200008	beqz	r1,L5_LF6
 8782  00008034  54000000	nop; not filled.
 8783  00008038          	L6_LF6:
 8784  00008038  201f0001	addi	r31,r0,#1
 8785  0000803c          	L5_LF6:
 8786  0000803c  001f0820	add	r1,r0,r31
 8787  00008040  8fa20000	lw	r2,0(r29)
 8788  00008044  8fdffff8	lw	r31,-8(r30)
 8789  00008048  001ee820	add	r29,r0,r30
 8790  0000804c  8fdefffc	lw	r30,-4(r30)
 8791  00008050  4be00000	jr	r31
 8792  00008054  54000000	nop
 8793  00008058          	.endproc _isspace
 8794  00008058          	.align 2
 8795  00008058          	.proc _isxdigit
 8796  00008058          	.global _isxdigit
 8797  00008058          	_isxdigit:
 8798                      ;  Function 'isxdigit'; 0 bytes of locals, 1 regs to save.
 8799  00008058  afbefffc	sw	-4(r29),r30; push fp
 8800  0000805c  001df020	add	r30,r0,r29; fp = sp
 8801  00008060  afbffff8	sw	-8(r29),r31; push ret addr
 8802  00008064  2fbd0010	subui	r29,r29,#16; alloc local storage
 8803  00008068  afa20000	sw	0(r29),r2
 8804  0000806c  83df0003	lb	r31,3(r30)
 8805  00008070  20020000	addi	r2,r0,#0
 8806  00008074  23e1ffd0	addi	r1,r31,#-48
 8807  00008078  302100ff	andi	r1,r1,#0x00ff
 8808  0000807c  70210009	sleui	r1,r1,#9
 8809  00008080  14200028	bnez	r1,L12_LF6
 8810  00008084  54000000	nop; not filled.
 8811  00008088  23e1ff9f	addi	r1,r31,#-97
 8812  0000808c  302100ff	andi	r1,r1,#0x00ff
 8813  00008090  70210005	sleui	r1,r1,#5
 8814  00008094  14200014	bnez	r1,L12_LF6
 8815  00008098  54000000	nop; not filled.
 8816  0000809c  33e100ff	andi	r1,r31,#0x00ff
 8817  000080a0  64210041	snei	r1,r1,#65
 8818  000080a4  14200008	bnez	r1,L11_LF6
 8819  000080a8  54000000	nop; not filled.
 8820  000080ac          	L12_LF6:
 8821  000080ac  20020001	addi	r2,r0,#1
 8822  000080b0          	L11_LF6:
 8823  000080b0  00020820	add	r1,r0,r2
 8824  000080b4  8fa20000	lw	r2,0(r29)
 8825  000080b8  8fdffff8	lw	r31,-8(r30)
 8826  000080bc  001ee820	add	r29,r0,r30
 8827  000080c0  8fdefffc	lw	r30,-4(r30)
 8828  000080c4  4be00000	jr	r31
 8829  000080c8  54000000	nop
 8830  000080cc          	.endproc _isxdigit
 8831  000080cc          	.align 2
 8832  000080cc          	.proc _DisableIntrs
 8833  000080cc          	.global _DisableIntrs
 8834  000080cc          	_DisableIntrs:
 8835                      ;  Function 'DisableIntrs'; 0 bytes of locals, 1 regs to save.
 8836  000080cc  afbefffc	sw	-4(r29),r30; push fp
 8837  000080d0  001df020	add	r30,r0,r29; fp = sp
 8838  000080d4  afbffff8	sw	-8(r29),r31; push ret addr
 8839  000080d8  2fbd0010	subui	r29,r29,#16; alloc local storage
 8840  000080dc  afa20000	sw	0(r29),r2
 8841  000080e0  23bdfff8	addi	r29,r29,#-8
 8842  000080e4  2002000f	addi	r2,r0,#15
 8843  000080e8  afa20000	sw	(r29),r2
 8844  000080ec  0fff9198	jal	_SetIntrs
 8845  000080f0  54000000	nop; not filled.
 8846  000080f4  23bd0008	addi	r29,r29,#8
 8847  000080f8  8fa20000	lw	r2,0(r29)
 8848  000080fc  8fdffff8	lw	r31,-8(r30)
 8849  00008100  001ee820	add	r29,r0,r30
 8850  00008104  8fdefffc	lw	r30,-4(r30)
 8851  00008108  4be00000	jr	r31
 8852  0000810c  54000000	nop
 8853  00008110          	.endproc _DisableIntrs
 8854  00008110          	.align 2
 8855  00008110          	.proc _EnableIntrs
 8856  00008110          	.global _EnableIntrs
 8857  00008110          	_EnableIntrs:
 8858                      ;  Function 'EnableIntrs'; 0 bytes of locals, 1 regs to save.
 8859  00008110  afbefffc	sw	-4(r29),r30; push fp
 8860  00008114  001df020	add	r30,r0,r29; fp = sp
 8861  00008118  afbffff8	sw	-8(r29),r31; push ret addr
 8862  0000811c  2fbd0010	subui	r29,r29,#16; alloc local storage
 8863  00008120  afa20000	sw	0(r29),r2
 8864  00008124  23bdfff8	addi	r29,r29,#-8
 8865  00008128  20020000	addi	r2,r0,#0
 8866  0000812c  afa20000	sw	(r29),r2
 8867  00008130  0fff9154	jal	_SetIntrs
 8868  00008134  54000000	nop; not filled.
 8869  00008138  23bd0008	addi	r29,r29,#8
 8870  0000813c  8fa20000	lw	r2,0(r29)
 8871  00008140  8fdffff8	lw	r31,-8(r30)
 8872  00008144  001ee820	add	r29,r0,r30
 8873  00008148  8fdefffc	lw	r30,-4(r30)
 8874  0000814c  4be00000	jr	r31
 8875  00008150  54000000	nop
 8876  00008154          	.endproc _EnableIntrs
 8877  00008154          	.align 2
 8878  00008154          	.proc _RestoreIntrs
 8879  00008154          	.global _RestoreIntrs
 8880  00008154          	_RestoreIntrs:
 8881                      ;  Function 'RestoreIntrs'; 0 bytes of locals, 1 regs to save.
 8882  00008154  afbefffc	sw	-4(r29),r30; push fp
 8883  00008158  001df020	add	r30,r0,r29; fp = sp
 8884  0000815c  afbffff8	sw	-8(r29),r31; push ret addr
 8885  00008160  2fbd0010	subui	r29,r29,#16; alloc local storage
 8886  00008164  afa20000	sw	0(r29),r2
 8887  00008168  23bdfff8	addi	r29,r29,#-8
 8888  0000816c  8fc20000	lw	r2,(r30)
 8889  00008170  afa20000	sw	(r29),r2
 8890  00008174  0fff9110	jal	_SetIntrs
 8891  00008178  54000000	nop; not filled.
 8892  0000817c  23bd0008	addi	r29,r29,#8
 8893  00008180  8fa20000	lw	r2,0(r29)
 8894  00008184  8fdffff8	lw	r31,-8(r30)
 8895  00008188  001ee820	add	r29,r0,r30
 8896  0000818c  8fdefffc	lw	r30,-4(r30)
 8897  00008190  4be00000	jr	r31
 8898  00008194  54000000	nop
 8899  00008198          	.endproc _RestoreIntrs
 8900  00008198          	.align 2
 8901  00008198          	.proc _QueueLinkInit
 8902  00008198          	.global _QueueLinkInit
 8903  00008198          	_QueueLinkInit:
 8904                      ;  Function 'QueueLinkInit'; 0 bytes of locals, 1 regs to save.
 8905  00008198  afbefffc	sw	-4(r29),r30; push fp
 8906  0000819c  001df020	add	r30,r0,r29; fp = sp
 8907  000081a0  afbffff8	sw	-8(r29),r31; push ret addr
 8908  000081a4  2fbd0010	subui	r29,r29,#16; alloc local storage
 8909  000081a8  afa20000	sw	0(r29),r2
 8910  000081ac  8fc10000	lw	r1,(r30)
 8911  000081b0  8fc20004	lw	r2,4(r30)
 8912  000081b4  201f0000	addi	r31,r0,#0
 8913  000081b8  ac3f0000	sw	(r1),r31
 8914  000081bc  ac22000c	sw	12(r1),r2
 8915  000081c0  8fa20000	lw	r2,0(r29)
 8916  000081c4  8fdffff8	lw	r31,-8(r30)
 8917  000081c8  001ee820	add	r29,r0,r30
 8918  000081cc  8fdefffc	lw	r30,-4(r30)
 8919  000081d0  4be00000	jr	r31
 8920  000081d4  54000000	nop
 8921  000081d8          	.endproc _QueueLinkInit
 8922  000081d8          	.align 2
 8923  000081d8          	.proc _QueueNext
 8924  000081d8          	.global _QueueNext
 8925  000081d8          	_QueueNext:
 8926                      ;  Function 'QueueNext'; 0 bytes of locals, 0 regs to save.
 8927  000081d8  afbefffc	sw	-4(r29),r30; push fp
 8928  000081dc  001df020	add	r30,r0,r29; fp = sp
 8929  000081e0  afbffff8	sw	-8(r29),r31; push ret addr
 8930  000081e4  2fbd0008	subui	r29,r29,#8; alloc local storage
 8931  000081e8  8fc10000	lw	r1,(r30)
 8932  000081ec  8c210000	lw	r1,(r1)
 8933  000081f0  8fdffff8	lw	r31,-8(r30)
 8934  000081f4  001ee820	add	r29,r0,r30
 8935  000081f8  8fdefffc	lw	r30,-4(r30)
 8936  000081fc  4be00000	jr	r31
 8937  00008200  54000000	nop
 8938  00008204          	.endproc _QueueNext
 8939  00008204          	.align 2
 8940  00008204          	.proc _QueuePrev
 8941  00008204          	.global _QueuePrev
 8942  00008204          	_QueuePrev:
 8943                      ;  Function 'QueuePrev'; 0 bytes of locals, 0 regs to save.
 8944  00008204  afbefffc	sw	-4(r29),r30; push fp
 8945  00008208  001df020	add	r30,r0,r29; fp = sp
 8946  0000820c  afbffff8	sw	-8(r29),r31; push ret addr
 8947  00008210  2fbd0008	subui	r29,r29,#8; alloc local storage
 8948  00008214  8fc10000	lw	r1,(r30)
 8949  00008218  8c210004	lw	r1,4(r1)
 8950  0000821c  8fdffff8	lw	r31,-8(r30)
 8951  00008220  001ee820	add	r29,r0,r30
 8952  00008224  8fdefffc	lw	r30,-4(r30)
 8953  00008228  4be00000	jr	r31
 8954  0000822c  54000000	nop
 8955  00008230          	.endproc _QueuePrev
 8956  00008230          	.align 2
 8957  00008230          	.proc _QueueFirst
 8958  00008230          	.global _QueueFirst
 8959  00008230          	_QueueFirst:
 8960                      ;  Function 'QueueFirst'; 0 bytes of locals, 0 regs to save.
 8961  00008230  afbefffc	sw	-4(r29),r30; push fp
 8962  00008234  001df020	add	r30,r0,r29; fp = sp
 8963  00008238  afbffff8	sw	-8(r29),r31; push ret addr
 8964  0000823c  2fbd0008	subui	r29,r29,#8; alloc local storage
 8965  00008240  8fc10000	lw	r1,(r30)
 8966  00008244  8c210000	lw	r1,(r1)
 8967  00008248  8fdffff8	lw	r31,-8(r30)
 8968  0000824c  001ee820	add	r29,r0,r30
 8969  00008250  8fdefffc	lw	r30,-4(r30)
 8970  00008254  4be00000	jr	r31
 8971  00008258  54000000	nop
 8972  0000825c          	.endproc _QueueFirst
 8973  0000825c          	.align 2
 8974  0000825c          	.proc _QueueLast
 8975  0000825c          	.global _QueueLast
 8976  0000825c          	_QueueLast:
 8977                      ;  Function 'QueueLast'; 0 bytes of locals, 0 regs to save.
 8978  0000825c  afbefffc	sw	-4(r29),r30; push fp
 8979  00008260  001df020	add	r30,r0,r29; fp = sp
 8980  00008264  afbffff8	sw	-8(r29),r31; push ret addr
 8981  00008268  2fbd0008	subui	r29,r29,#8; alloc local storage
 8982  0000826c  8fc10000	lw	r1,(r30)
 8983  00008270  8c210004	lw	r1,4(r1)
 8984  00008274  8fdffff8	lw	r31,-8(r30)
 8985  00008278  001ee820	add	r29,r0,r30
 8986  0000827c  8fdefffc	lw	r30,-4(r30)
 8987  00008280  4be00000	jr	r31
 8988  00008284  54000000	nop
 8989  00008288          	.endproc _QueueLast
 8990  00008288          	.align 2
 8991  00008288          	.proc _QueueInsertAfter
 8992  00008288          	.global _QueueInsertAfter
 8993  00008288          	_QueueInsertAfter:
 8994                      ;  Function 'QueueInsertAfter'; 0 bytes of locals, 2 regs to save.
 8995  00008288  afbefffc	sw	-4(r29),r30; push fp
 8996  0000828c  001df020	add	r30,r0,r29; fp = sp
 8997  00008290  afbffff8	sw	-8(r29),r31; push ret addr
 8998  00008294  2fbd0010	subui	r29,r29,#16; alloc local storage
 8999  00008298  afa20000	sw	0(r29),r2
 9000  0000829c  afa30004	sw	4(r29),r3
 9001  000082a0  8fc30000	lw	r3,(r30)
 9002  000082a4  8fc20004	lw	r2,4(r30)
 9003  000082a8  8fc10008	lw	r1,8(r30)
 9004  000082ac  ac230008	sw	8(r1),r3
 9005  000082b0  ac220004	sw	4(r1),r2
 9006  000082b4  8c5f0000	lw	r31,(r2)
 9007  000082b8  ac3f0000	sw	(r1),r31
 9008  000082bc  ac410000	sw	(r2),r1
 9009  000082c0  8c220000	lw	r2,(r1)
 9010  000082c4  ac410004	sw	4(r2),r1
 9011  000082c8  8c610008	lw	r1,8(r3)
 9012  000082cc  20210001	addi	r1,r1,#1
 9013  000082d0  ac610008	sw	8(r3),r1
 9014  000082d4  8fa20000	lw	r2,0(r29)
 9015  000082d8  8fa30004	lw	r3,4(r29)
 9016  000082dc  8fdffff8	lw	r31,-8(r30)
 9017  000082e0  001ee820	add	r29,r0,r30
 9018  000082e4  8fdefffc	lw	r30,-4(r30)
 9019  000082e8  4be00000	jr	r31
 9020  000082ec  54000000	nop
 9021  000082f0          	.endproc _QueueInsertAfter
 9022  000082f0          	.align 2
 9023  000082f0          	.proc _QueueInsertFirst
 9024  000082f0          	.global _QueueInsertFirst
 9025  000082f0          	_QueueInsertFirst:
 9026                      ;  Function 'QueueInsertFirst'; 0 bytes of locals, 2 regs to save.
 9027  000082f0  afbefffc	sw	-4(r29),r30; push fp
 9028  000082f4  001df020	add	r30,r0,r29; fp = sp
 9029  000082f8  afbffff8	sw	-8(r29),r31; push ret addr
 9030  000082fc  2fbd0010	subui	r29,r29,#16; alloc local storage
 9031  00008300  afa20000	sw	0(r29),r2
 9032  00008304  afa30004	sw	4(r29),r3
 9033  00008308  8fc30000	lw	r3,(r30)
 9034  0000830c  8fc10004	lw	r1,4(r30)
 9035  00008310  ac230008	sw	8(r1),r3
 9036  00008314  ac230004	sw	4(r1),r3
 9037  00008318  8c7f0000	lw	r31,(r3)
 9038  0000831c  ac3f0000	sw	(r1),r31
 9039  00008320  ac610000	sw	(r3),r1
 9040  00008324  8c220000	lw	r2,(r1)
 9041  00008328  ac410004	sw	4(r2),r1
 9042  0000832c  8c610008	lw	r1,8(r3)
 9043  00008330  20210001	addi	r1,r1,#1
 9044  00008334  ac610008	sw	8(r3),r1
 9045  00008338  8fa20000	lw	r2,0(r29)
 9046  0000833c  8fa30004	lw	r3,4(r29)
 9047  00008340  8fdffff8	lw	r31,-8(r30)
 9048  00008344  001ee820	add	r29,r0,r30
 9049  00008348  8fdefffc	lw	r30,-4(r30)
 9050  0000834c  4be00000	jr	r31
 9051  00008350  54000000	nop
 9052  00008354          	.endproc _QueueInsertFirst
 9053  00008354          	.align 2
 9054  00008354          	.proc _QueueInsertLast
 9055  00008354          	.global _QueueInsertLast
 9056  00008354          	_QueueInsertLast:
 9057                      ;  Function 'QueueInsertLast'; 0 bytes of locals, 2 regs to save.
 9058  00008354  afbefffc	sw	-4(r29),r30; push fp
 9059  00008358  001df020	add	r30,r0,r29; fp = sp
 9060  0000835c  afbffff8	sw	-8(r29),r31; push ret addr
 9061  00008360  2fbd0010	subui	r29,r29,#16; alloc local storage
 9062  00008364  afa20000	sw	0(r29),r2
 9063  00008368  afa30004	sw	4(r29),r3
 9064  0000836c  8fc30000	lw	r3,(r30)
 9065  00008370  8fc10004	lw	r1,4(r30)
 9066  00008374  8c620004	lw	r2,4(r3)
 9067  00008378  ac230008	sw	8(r1),r3
 9068  0000837c  ac220004	sw	4(r1),r2
 9069  00008380  8c5f0000	lw	r31,(r2)
 9070  00008384  ac3f0000	sw	(r1),r31
 9071  00008388  ac410000	sw	(r2),r1
 9072  0000838c  8c220000	lw	r2,(r1)
 9073  00008390  ac410004	sw	4(r2),r1
 9074  00008394  8c610008	lw	r1,8(r3)
 9075  00008398  20210001	addi	r1,r1,#1
 9076  0000839c  ac610008	sw	8(r3),r1
 9077  000083a0  8fa20000	lw	r2,0(r29)
 9078  000083a4  8fa30004	lw	r3,4(r29)
 9079  000083a8  8fdffff8	lw	r31,-8(r30)
 9080  000083ac  001ee820	add	r29,r0,r30
 9081  000083b0  8fdefffc	lw	r30,-4(r30)
 9082  000083b4  4be00000	jr	r31
 9083  000083b8  54000000	nop
 9084  000083bc          	.endproc _QueueInsertLast
 9085  000083bc          	.align 2
 9086  000083bc          	.proc _QueueRemove
 9087  000083bc          	.global _QueueRemove
 9088  000083bc          	_QueueRemove:
 9089                      ;  Function 'QueueRemove'; 0 bytes of locals, 2 regs to save.
 9090  000083bc  afbefffc	sw	-4(r29),r30; push fp
 9091  000083c0  001df020	add	r30,r0,r29; fp = sp
 9092  000083c4  afbffff8	sw	-8(r29),r31; push ret addr
 9093  000083c8  2fbd0010	subui	r29,r29,#16; alloc local storage
 9094  000083cc  afa20000	sw	0(r29),r2
 9095  000083d0  afa30004	sw	4(r29),r3
 9096  000083d4  8fdf0000	lw	r31,(r30)
 9097  000083d8  8fe10008	lw	r1,8(r31)
 9098  000083dc  8c210008	lw	r1,8(r1)
 9099  000083e0  6c210000	sgti	r1,r1,#0
 9100  000083e4  1020002c	beqz	r1,L44_LF6
 9101  000083e8  54000000	nop; not filled.
 9102  000083ec  8fe10004	lw	r1,4(r31)
 9103  000083f0  8fe30000	lw	r3,(r31)
 9104  000083f4  ac230000	sw	(r1),r3
 9105  000083f8  8fe10000	lw	r1,(r31)
 9106  000083fc  8fe30004	lw	r3,4(r31)
 9107  00008400  ac230004	sw	4(r1),r3
 9108  00008404  8fe20008	lw	r2,8(r31)
 9109  00008408  8c410008	lw	r1,8(r2)
 9110  0000840c  2021ffff	addi	r1,r1,#-1
 9111  00008410  ac410008	sw	8(r2),r1
 9112  00008414          	L44_LF6:
 9113  00008414  20030000	addi	r3,r0,#0
 9114  00008418  afe30000	sw	(r31),r3
 9115  0000841c  8fa20000	lw	r2,0(r29)
 9116  00008420  8fa30004	lw	r3,4(r29)
 9117  00008424  8fdffff8	lw	r31,-8(r30)
 9118  00008428  001ee820	add	r29,r0,r30
 9119  0000842c  8fdefffc	lw	r30,-4(r30)
 9120  00008430  4be00000	jr	r31
 9121  00008434  54000000	nop
 9122  00008438          	.endproc _QueueRemove
 9123  00008438          	.align 2
 9124  00008438          	.proc _QueueLength
 9125  00008438          	.global _QueueLength
 9126  00008438          	_QueueLength:
 9127                      ;  Function 'QueueLength'; 0 bytes of locals, 0 regs to save.
 9128  00008438  afbefffc	sw	-4(r29),r30; push fp
 9129  0000843c  001df020	add	r30,r0,r29; fp = sp
 9130  00008440  afbffff8	sw	-8(r29),r31; push ret addr
 9131  00008444  2fbd0008	subui	r29,r29,#8; alloc local storage
 9132  00008448  8fc10000	lw	r1,(r30)
 9133  0000844c  8c210008	lw	r1,8(r1)
 9134  00008450  8fdffff8	lw	r31,-8(r30)
 9135  00008454  001ee820	add	r29,r0,r30
 9136  00008458  8fdefffc	lw	r30,-4(r30)
 9137  0000845c  4be00000	jr	r31
 9138  00008460  54000000	nop
 9139  00008464          	.endproc _QueueLength
 9140  00008464          	.align 2
 9141  00008464          	.proc _QueueEmpty
 9142  00008464          	.global _QueueEmpty
 9143  00008464          	_QueueEmpty:
 9144                      ;  Function 'QueueEmpty'; 0 bytes of locals, 0 regs to save.
 9145  00008464  afbefffc	sw	-4(r29),r30; push fp
 9146  00008468  001df020	add	r30,r0,r29; fp = sp
 9147  0000846c  afbffff8	sw	-8(r29),r31; push ret addr
 9148  00008470  2fbd0008	subui	r29,r29,#8; alloc local storage
 9149  00008474  8fc10000	lw	r1,(r30)
 9150  00008478  8c210008	lw	r1,8(r1)
 9151  0000847c  60210000	seqi	r1,r1,#0
 9152  00008480  8fdffff8	lw	r31,-8(r30)
 9153  00008484  001ee820	add	r29,r0,r30
 9154  00008488  8fdefffc	lw	r30,-4(r30)
 9155  0000848c  4be00000	jr	r31
 9156  00008490  54000000	nop
 9157  00008494          	.endproc _QueueEmpty
 9158  00008494          	.data
 9159  00011ef8          	.align 2
 9160  00011ef8          	LC0_LF6:
 9161  00011ef8  496e6974	.ascii "Initializing queue link %d.\n\000"
 9161  00011efc  69616c69	
 9161  00011f00  7a696e67	
 9161  00011f04  20717565	
 9161  00011f08  7565206c	
 9161  00011f0c  696e6b20	
 9161  00011f10  25642e0a	
 9161  00011f14  00      	
 9162  00011f15          	.text
 9163  00008494          	.align 2
 9164  00008494          	.proc _QueueModuleInit
 9165  00008494          	.global _QueueModuleInit
 9166  00008494          	_QueueModuleInit:
 9167                      ;  Function 'QueueModuleInit'; 0 bytes of locals, 4 regs to save.
 9168  00008494  afbefffc	sw	-4(r29),r30; push fp
 9169  00008498  001df020	add	r30,r0,r29; fp = sp
 9170  0000849c  afbffff8	sw	-8(r29),r31; push ret addr
 9171  000084a0  2fbd0018	subui	r29,r29,#24; alloc local storage
 9172  000084a4  afa20000	sw	0(r29),r2
 9173  000084a8  afa30004	sw	4(r29),r3
 9174  000084ac  afa40008	sw	8(r29),r4
 9175  000084b0  afa5000c	sw	12(r29),r5
 9176  000084b4  23bdfff8	addi	r29,r29,#-8
 9177  000084b8  3c050001	lhi	r5,((_freeLinks)>>16)&0xffff
 9178  000084bc  24a51f64	addui	r5,r5,(_freeLinks)&0xffff
 9179  000084c0  afa50000	sw	(r29),r5
 9180  000084c4  0c0000e0	jal	_QueueInit
 9181  000084c8  54000000	nop; not filled.
 9182  000084cc  20030000	addi	r3,r0,#0
 9183  000084d0  23bd0008	addi	r29,r29,#8
 9184  000084d4  3c040000	lhi	r4,((_debugstr)>>16)&0xffff
 9185  000084d8  2484ef7c	addui	r4,r4,(_debugstr)&0xffff
 9186  000084dc  3c020001	lhi	r2,((_linkpool_LF6)>>16)&0xffff
 9187  000084e0  24421f70	addui	r2,r2,(_linkpool_LF6)&0xffff
 9188  000084e4          	L63_LF6:
 9189  000084e4  23bdfff8	addi	r29,r29,#-8
 9190  000084e8  afa40000	sw	(r29),r4
 9191  000084ec  20050069	addi	r5,r0,#105
 9192  000084f0  afa50004	sw	4(r29),r5
 9193  000084f4  0fffb9f8	jal	_dindex
 9194  000084f8  54000000	nop; not filled.
 9195  000084fc  23bd0008	addi	r29,r29,#8
 9196  00008500  64210000	snei	r1,r1,#0
 9197  00008504  1420002c	bnez	r1,L65_LF6
 9198  00008508  54000000	nop; not filled.
 9199  0000850c  23bdfff8	addi	r29,r29,#-8
 9200  00008510  afa40000	sw	(r29),r4
 9201  00008514  2005002b	addi	r5,r0,#43
 9202  00008518  afa50004	sw	4(r29),r5
 9203  0000851c  0fffb9d0	jal	_dindex
 9204  00008520  54000000	nop; not filled.
 9205  00008524  23bd0008	addi	r29,r29,#8
 9206  00008528  64210000	snei	r1,r1,#0
 9207  0000852c  10200024	beqz	r1,L64_LF6
 9208  00008530  54000000	nop; not filled.
 9209  00008534          	L65_LF6:
 9210  00008534  23bdfff8	addi	r29,r29,#-8
 9211  00008538  3c050001	lhi	r5,((LC0_LF6)>>16)&0xffff
 9212  0000853c  24a51ef8	addui	r5,r5,(LC0_LF6)&0xffff
 9213  00008540  afa50000	sw	(r29),r5
 9214  00008544  afa30004	sw	4(r29),r3
 9215  00008548  0c002fac	jal	_printf
 9216  0000854c  54000000	nop; not filled.
 9217  00008550  23bd0008	addi	r29,r29,#8
 9218  00008554          	L64_LF6:
 9219  00008554  20050000	addi	r5,r0,#0
 9220  00008558  ac450000	sw	(r2),r5
 9221  0000855c  23bdfff8	addi	r29,r29,#-8
 9222  00008560  afa20000	sw	(r29),r2
 9223  00008564  0c000078	jal	_QueueFreeLink
 9224  00008568  54000000	nop; not filled.
 9225  0000856c  23bd0008	addi	r29,r29,#8
 9226  00008570  20420010	addi	r2,r2,#16
 9227  00008574  20630001	addi	r3,r3,#1
 9228  00008578  7061018f	slei	r1,r3,#399
 9229  0000857c  1420ff64	bnez	r1,L63_LF6
 9230  00008580  54000000	nop; not filled.
 9231  00008584  8fa20000	lw	r2,0(r29)
 9232  00008588  8fa30004	lw	r3,4(r29)
 9233  0000858c  8fa40008	lw	r4,8(r29)
 9234  00008590  8fa5000c	lw	r5,12(r29)
 9235  00008594  8fdffff8	lw	r31,-8(r30)
 9236  00008598  001ee820	add	r29,r0,r30
 9237  0000859c  8fdefffc	lw	r30,-4(r30)
 9238  000085a0  4be00000	jr	r31
 9239  000085a4  54000000	nop
 9240  000085a8          	.endproc _QueueModuleInit
 9241  000085a8          	.align 2
 9242  000085a8          	.proc _QueueInit
 9243  000085a8          	.global _QueueInit
 9244  000085a8          	_QueueInit:
 9245                      ;  Function 'QueueInit'; 0 bytes of locals, 0 regs to save.
 9246  000085a8  afbefffc	sw	-4(r29),r30; push fp
 9247  000085ac  001df020	add	r30,r0,r29; fp = sp
 9248  000085b0  afbffff8	sw	-8(r29),r31; push ret addr
 9249  000085b4  2fbd0008	subui	r29,r29,#8; alloc local storage
 9250  000085b8  8fc10000	lw	r1,(r30)
 9251  000085bc  ac210000	sw	(r1),r1
 9252  000085c0  ac210004	sw	4(r1),r1
 9253  000085c4  201f0000	addi	r31,r0,#0
 9254  000085c8  ac3f0008	sw	8(r1),r31
 9255  000085cc  8fdffff8	lw	r31,-8(r30)
 9256  000085d0  001ee820	add	r29,r0,r30
 9257  000085d4  8fdefffc	lw	r30,-4(r30)
 9258  000085d8  4be00000	jr	r31
 9259  000085dc  54000000	nop
 9260  000085e0          	.endproc _QueueInit
 9261  000085e0          	.data
 9262  00011f15          	.align 2
 9263  00011f18          	LC1_LF6:
 9264  00011f18  25733a20	.ascii "%s: %s\n\000"
 9264  00011f1c  25730a00	
 9265  00011f20          	.align 2
 9266  00011f20          	LC2_LF6:
 9267  00011f20  51756575	.ascii "QueueFreeLink\000"
 9267  00011f24  65467265	
 9267  00011f28  654c696e	
 9267  00011f2c  6b00    	
 9268  00011f2e          	.align 2
 9269  00011f30          	LC3_LF6:
 9270  00011f30  4c696e6b	.ascii "Link not empty\000"
 9270  00011f34  206e6f74	
 9270  00011f38  20656d70	
 9270  00011f3c  747900  	
 9271  00011f3f          	.text
 9272  000085e0          	.align 2
 9273  000085e0          	.proc _QueueFreeLink
 9274  000085e0          	.global _QueueFreeLink
 9275  000085e0          	_QueueFreeLink:
 9276                      ;  Function 'QueueFreeLink'; 0 bytes of locals, 3 regs to save.
 9277  000085e0  afbefffc	sw	-4(r29),r30; push fp
 9278  000085e4  001df020	add	r30,r0,r29; fp = sp
 9279  000085e8  afbffff8	sw	-8(r29),r31; push ret addr
 9280  000085ec  2fbd0018	subui	r29,r29,#24; alloc local storage
 9281  000085f0  afa20000	sw	0(r29),r2
 9282  000085f4  afa30004	sw	4(r29),r3
 9283  000085f8  afa40008	sw	8(r29),r4
 9284  000085fc  8fc30000	lw	r3,(r30)
 9285  00008600  8c610000	lw	r1,(r3)
 9286  00008604  64210000	snei	r1,r1,#0
 9287  00008608  10200038	beqz	r1,L77_LF6
 9288  0000860c  54000000	nop; not filled.
 9289  00008610  23bdfff0	addi	r29,r29,#-16
 9290  00008614  3c040001	lhi	r4,((LC1_LF6)>>16)&0xffff
 9291  00008618  24841f18	addui	r4,r4,(LC1_LF6)&0xffff
 9292  0000861c  afa40000	sw	(r29),r4
 9293  00008620  3c010001	lhi	r1,((LC2_LF6)>>16)&0xffff
 9294  00008624  24211f20	addui	r1,r1,(LC2_LF6)&0xffff
 9295  00008628  afa10004	sw	4(r29),r1
 9296  0000862c  3c040001	lhi	r4,((LC3_LF6)>>16)&0xffff
 9297  00008630  24841f30	addui	r4,r4,(LC3_LF6)&0xffff
 9298  00008634  afa40008	sw	8(r29),r4
 9299  00008638  0c002ebc	jal	_printf
 9300  0000863c  54000000	nop; not filled.
 9301  00008640  23bd0010	addi	r29,r29,#16
 9302  00008644          	L77_LF6:
 9303  00008644  3c020001	lhi	r2,((_freeLinks)>>16)&0xffff
 9304  00008648  24421f64	addui	r2,r2,(_freeLinks)&0xffff
 9305  0000864c  8c410004	lw	r1,4(r2)
 9306  00008650  ac620008	sw	8(r3),r2
 9307  00008654  ac610004	sw	4(r3),r1
 9308  00008658  8c240000	lw	r4,(r1)
 9309  0000865c  ac640000	sw	(r3),r4
 9310  00008660  ac230000	sw	(r1),r3
 9311  00008664  8c610000	lw	r1,(r3)
 9312  00008668  ac230004	sw	4(r1),r3
 9313  0000866c  8c410008	lw	r1,8(r2)
 9314  00008670  20210001	addi	r1,r1,#1
 9315  00008674  ac410008	sw	8(r2),r1
 9316  00008678  8fa20000	lw	r2,0(r29)
 9317  0000867c  8fa30004	lw	r3,4(r29)
 9318  00008680  8fa40008	lw	r4,8(r29)
 9319  00008684  8fdffff8	lw	r31,-8(r30)
 9320  00008688  001ee820	add	r29,r0,r30
 9321  0000868c  8fdefffc	lw	r30,-4(r30)
 9322  00008690  4be00000	jr	r31
 9323  00008694  54000000	nop
 9324  00008698          	.endproc _QueueFreeLink
 9325  00008698          	.data
 9326  00011f3f          	.align 2
 9327  00011f40          	LC4_LF6:
 9328  00011f40  51756575	.ascii "QueueAllocLink\000"
 9328  00011f44  65416c6c	
 9328  00011f48  6f634c69	
 9328  00011f4c  6e6b00  	
 9329  00011f4f          	.align 2
 9330  00011f50          	LC5_LF6:
 9331  00011f50  4c696e6b	.ascii "Link not allocated!\000"
 9331  00011f54  206e6f74	
 9331  00011f58  20616c6c	
 9331  00011f5c  6f636174	
 9331  00011f60  65642100	
 9332  00011f64          	.text
 9333  00008698          	.align 2
 9334  00008698          	.proc _QueueAllocLink
 9335  00008698          	.global _QueueAllocLink
 9336  00008698          	_QueueAllocLink:
 9337                      ;  Function 'QueueAllocLink'; 0 bytes of locals, 3 regs to save.
 9338  00008698  afbefffc	sw	-4(r29),r30; push fp
 9339  0000869c  001df020	add	r30,r0,r29; fp = sp
 9340  000086a0  afbffff8	sw	-8(r29),r31; push ret addr
 9341  000086a4  2fbd0018	subui	r29,r29,#24; alloc local storage
 9342  000086a8  afa20000	sw	0(r29),r2
 9343  000086ac  afa30004	sw	4(r29),r3
 9344  000086b0  afa40008	sw	8(r29),r4
 9345  000086b4  3c020001	lhi	r2,((_freeLinks)>>16)&0xffff
 9346  000086b8  24421f64	addui	r2,r2,(_freeLinks)&0xffff
 9347  000086bc  8c410008	lw	r1,8(r2)
 9348  000086c0  60210000	seqi	r1,r1,#0
 9349  000086c4  14200054	bnez	r1,L92_LF6
 9350  000086c8  54000000	nop; not filled.
 9351  000086cc  8c430000	lw	r3,(r2)
 9352  000086d0  8c610008	lw	r1,8(r3)
 9353  000086d4  8c210008	lw	r1,8(r1)
 9354  000086d8  6c210000	sgti	r1,r1,#0
 9355  000086dc  1020002c	beqz	r1,L97_LF6
 9356  000086e0  54000000	nop; not filled.
 9357  000086e4  8c610004	lw	r1,4(r3)
 9358  000086e8  8c640000	lw	r4,(r3)
 9359  000086ec  ac240000	sw	(r1),r4
 9360  000086f0  8c610000	lw	r1,(r3)
 9361  000086f4  8c640004	lw	r4,4(r3)
 9362  000086f8  ac240004	sw	4(r1),r4
 9363  000086fc  8c620008	lw	r2,8(r3)
 9364  00008700  8c410008	lw	r1,8(r2)
 9365  00008704  2021ffff	addi	r1,r1,#-1
 9366  00008708  ac410008	sw	8(r2),r1
 9367  0000870c          	L97_LF6:
 9368  0000870c  20040000	addi	r4,r0,#0
 9369  00008710  ac640000	sw	(r3),r4
 9370  00008714  08000008	j	L98_LF6
 9371  00008718  54000000	nop; not filled.
 9372  0000871c          	L92_LF6:
 9373  0000871c  20030000	addi	r3,r0,#0
 9374  00008720          	L98_LF6:
 9375  00008720  64610000	snei	r1,r3,#0
 9376  00008724  14200038	bnez	r1,L100_LF6
 9377  00008728  54000000	nop; not filled.
 9378  0000872c  23bdfff0	addi	r29,r29,#-16
 9379  00008730  3c040001	lhi	r4,((LC1_LF6)>>16)&0xffff
 9380  00008734  24841f18	addui	r4,r4,(LC1_LF6)&0xffff
 9381  00008738  afa40000	sw	(r29),r4
 9382  0000873c  3c010001	lhi	r1,((LC4_LF6)>>16)&0xffff
 9383  00008740  24211f40	addui	r1,r1,(LC4_LF6)&0xffff
 9384  00008744  afa10004	sw	4(r29),r1
 9385  00008748  3c040001	lhi	r4,((LC5_LF6)>>16)&0xffff
 9386  0000874c  24841f50	addui	r4,r4,(LC5_LF6)&0xffff
 9387  00008750  afa40008	sw	8(r29),r4
 9388  00008754  0c002da0	jal	_printf
 9389  00008758  54000000	nop; not filled.
 9390  0000875c  23bd0010	addi	r29,r29,#16
 9391  00008760          	L100_LF6:
 9392  00008760  00030820	add	r1,r0,r3
 9393  00008764  8fa20000	lw	r2,0(r29)
 9394  00008768  8fa30004	lw	r3,4(r29)
 9395  0000876c  8fa40008	lw	r4,8(r29)
 9396  00008770  8fdffff8	lw	r31,-8(r30)
 9397  00008774  001ee820	add	r29,r0,r30
 9398  00008778  8fdefffc	lw	r30,-4(r30)
 9399  0000877c  4be00000	jr	r31
 9400  00008780  54000000	nop
 9401  00008784          	.endproc _QueueAllocLink
 9402  00008784          	.data
 9403  00011f64          	.align 2
 9404  00011f64          	.global _freeLinks
 9405  00011f64          	_freeLinks:
 9406  00011f64          	.space 12
 9407  00011f70          	.align 2
 9408  00011f70          	_linkpool_LF6:
 9409  00011f70          	.space 6400
 9410                      ; Compiled by GCC
 9411  00013870          	.text
 9412  00008784          	.align 2
 9413  00008784          	.proc _isspace
 9414  00008784          	.global _isspace
 9415  00008784          	_isspace:
 9416                      ;  Function 'isspace'; 0 bytes of locals, 1 regs to save.
 9417  00008784  afbefffc	sw	-4(r29),r30; push fp
 9418  00008788  001df020	add	r30,r0,r29; fp = sp
 9419  0000878c  afbffff8	sw	-8(r29),r31; push ret addr
 9420  00008790  2fbd0010	subui	r29,r29,#16; alloc local storage
 9421  00008794  afa20000	sw	0(r29),r2
 9422  00008798  83c20003	lb	r2,3(r30)
 9423  0000879c  201f0000	addi	r31,r0,#0
 9424  000087a0  304100ff	andi	r1,r2,#0x00ff
 9425  000087a4  60210020	seqi	r1,r1,#32
 9426  000087a8  14200018	bnez	r1,L6_LF7
 9427  000087ac  54000000	nop; not filled.
 9428  000087b0  2041fff7	addi	r1,r2,#-9
 9429  000087b4  302100ff	andi	r1,r1,#0x00ff
 9430  000087b8  70210001	sleui	r1,r1,#1
 9431  000087bc  10200008	beqz	r1,L5_LF7
 9432  000087c0  54000000	nop; not filled.
 9433  000087c4          	L6_LF7:
 9434  000087c4  201f0001	addi	r31,r0,#1
 9435  000087c8          	L5_LF7:
 9436  000087c8  001f0820	add	r1,r0,r31
 9437  000087cc  8fa20000	lw	r2,0(r29)
 9438  000087d0  8fdffff8	lw	r31,-8(r30)
 9439  000087d4  001ee820	add	r29,r0,r30
 9440  000087d8  8fdefffc	lw	r30,-4(r30)
 9441  000087dc  4be00000	jr	r31
 9442  000087e0  54000000	nop
 9443  000087e4          	.endproc _isspace
 9444  000087e4          	.align 2
 9445  000087e4          	.proc _isxdigit
 9446  000087e4          	.global _isxdigit
 9447  000087e4          	_isxdigit:
 9448                      ;  Function 'isxdigit'; 0 bytes of locals, 1 regs to save.
 9449  000087e4  afbefffc	sw	-4(r29),r30; push fp
 9450  000087e8  001df020	add	r30,r0,r29; fp = sp
 9451  000087ec  afbffff8	sw	-8(r29),r31; push ret addr
 9452  000087f0  2fbd0010	subui	r29,r29,#16; alloc local storage
 9453  000087f4  afa20000	sw	0(r29),r2
 9454  000087f8  83df0003	lb	r31,3(r30)
 9455  000087fc  20020000	addi	r2,r0,#0
 9456  00008800  23e1ffd0	addi	r1,r31,#-48
 9457  00008804  302100ff	andi	r1,r1,#0x00ff
 9458  00008808  70210009	sleui	r1,r1,#9
 9459  0000880c  14200028	bnez	r1,L12_LF7
 9460  00008810  54000000	nop; not filled.
 9461  00008814  23e1ff9f	addi	r1,r31,#-97
 9462  00008818  302100ff	andi	r1,r1,#0x00ff
 9463  0000881c  70210005	sleui	r1,r1,#5
 9464  00008820  14200014	bnez	r1,L12_LF7
 9465  00008824  54000000	nop; not filled.
 9466  00008828  33e100ff	andi	r1,r31,#0x00ff
 9467  0000882c  64210041	snei	r1,r1,#65
 9468  00008830  14200008	bnez	r1,L11_LF7
 9469  00008834  54000000	nop; not filled.
 9470  00008838          	L12_LF7:
 9471  00008838  20020001	addi	r2,r0,#1
 9472  0000883c          	L11_LF7:
 9473  0000883c  00020820	add	r1,r0,r2
 9474  00008840  8fa20000	lw	r2,0(r29)
 9475  00008844  8fdffff8	lw	r31,-8(r30)
 9476  00008848  001ee820	add	r29,r0,r30
 9477  0000884c  8fdefffc	lw	r30,-4(r30)
 9478  00008850  4be00000	jr	r31
 9479  00008854  54000000	nop
 9480  00008858          	.endproc _isxdigit
 9481  00008858          	.align 2
 9482  00008858          	.proc _DisableIntrs
 9483  00008858          	.global _DisableIntrs
 9484  00008858          	_DisableIntrs:
 9485                      ;  Function 'DisableIntrs'; 0 bytes of locals, 1 regs to save.
 9486  00008858  afbefffc	sw	-4(r29),r30; push fp
 9487  0000885c  001df020	add	r30,r0,r29; fp = sp
 9488  00008860  afbffff8	sw	-8(r29),r31; push ret addr
 9489  00008864  2fbd0010	subui	r29,r29,#16; alloc local storage
 9490  00008868  afa20000	sw	0(r29),r2
 9491  0000886c  23bdfff8	addi	r29,r29,#-8
 9492  00008870  2002000f	addi	r2,r0,#15
 9493  00008874  afa20000	sw	(r29),r2
 9494  00008878  0fff8a0c	jal	_SetIntrs
 9495  0000887c  54000000	nop; not filled.
 9496  00008880  23bd0008	addi	r29,r29,#8
 9497  00008884  8fa20000	lw	r2,0(r29)
 9498  00008888  8fdffff8	lw	r31,-8(r30)
 9499  0000888c  001ee820	add	r29,r0,r30
 9500  00008890  8fdefffc	lw	r30,-4(r30)
 9501  00008894  4be00000	jr	r31
 9502  00008898  54000000	nop
 9503  0000889c          	.endproc _DisableIntrs
 9504  0000889c          	.align 2
 9505  0000889c          	.proc _EnableIntrs
 9506  0000889c          	.global _EnableIntrs
 9507  0000889c          	_EnableIntrs:
 9508                      ;  Function 'EnableIntrs'; 0 bytes of locals, 1 regs to save.
 9509  0000889c  afbefffc	sw	-4(r29),r30; push fp
 9510  000088a0  001df020	add	r30,r0,r29; fp = sp
 9511  000088a4  afbffff8	sw	-8(r29),r31; push ret addr
 9512  000088a8  2fbd0010	subui	r29,r29,#16; alloc local storage
 9513  000088ac  afa20000	sw	0(r29),r2
 9514  000088b0  23bdfff8	addi	r29,r29,#-8
 9515  000088b4  20020000	addi	r2,r0,#0
 9516  000088b8  afa20000	sw	(r29),r2
 9517  000088bc  0fff89c8	jal	_SetIntrs
 9518  000088c0  54000000	nop; not filled.
 9519  000088c4  23bd0008	addi	r29,r29,#8
 9520  000088c8  8fa20000	lw	r2,0(r29)
 9521  000088cc  8fdffff8	lw	r31,-8(r30)
 9522  000088d0  001ee820	add	r29,r0,r30
 9523  000088d4  8fdefffc	lw	r30,-4(r30)
 9524  000088d8  4be00000	jr	r31
 9525  000088dc  54000000	nop
 9526  000088e0          	.endproc _EnableIntrs
 9527  000088e0          	.align 2
 9528  000088e0          	.proc _RestoreIntrs
 9529  000088e0          	.global _RestoreIntrs
 9530  000088e0          	_RestoreIntrs:
 9531                      ;  Function 'RestoreIntrs'; 0 bytes of locals, 1 regs to save.
 9532  000088e0  afbefffc	sw	-4(r29),r30; push fp
 9533  000088e4  001df020	add	r30,r0,r29; fp = sp
 9534  000088e8  afbffff8	sw	-8(r29),r31; push ret addr
 9535  000088ec  2fbd0010	subui	r29,r29,#16; alloc local storage
 9536  000088f0  afa20000	sw	0(r29),r2
 9537  000088f4  23bdfff8	addi	r29,r29,#-8
 9538  000088f8  8fc20000	lw	r2,(r30)
 9539  000088fc  afa20000	sw	(r29),r2
 9540  00008900  0fff8984	jal	_SetIntrs
 9541  00008904  54000000	nop; not filled.
 9542  00008908  23bd0008	addi	r29,r29,#8
 9543  0000890c  8fa20000	lw	r2,0(r29)
 9544  00008910  8fdffff8	lw	r31,-8(r30)
 9545  00008914  001ee820	add	r29,r0,r30
 9546  00008918  8fdefffc	lw	r30,-4(r30)
 9547  0000891c  4be00000	jr	r31
 9548  00008920  54000000	nop
 9549  00008924          	.endproc _RestoreIntrs
 9550  00008924          	.align 2
 9551  00008924          	.proc _QueueLinkInit
 9552  00008924          	.global _QueueLinkInit
 9553  00008924          	_QueueLinkInit:
 9554                      ;  Function 'QueueLinkInit'; 0 bytes of locals, 1 regs to save.
 9555  00008924  afbefffc	sw	-4(r29),r30; push fp
 9556  00008928  001df020	add	r30,r0,r29; fp = sp
 9557  0000892c  afbffff8	sw	-8(r29),r31; push ret addr
 9558  00008930  2fbd0010	subui	r29,r29,#16; alloc local storage
 9559  00008934  afa20000	sw	0(r29),r2
 9560  00008938  8fc10000	lw	r1,(r30)
 9561  0000893c  8fc20004	lw	r2,4(r30)
 9562  00008940  201f0000	addi	r31,r0,#0
 9563  00008944  ac3f0000	sw	(r1),r31
 9564  00008948  ac22000c	sw	12(r1),r2
 9565  0000894c  8fa20000	lw	r2,0(r29)
 9566  00008950  8fdffff8	lw	r31,-8(r30)
 9567  00008954  001ee820	add	r29,r0,r30
 9568  00008958  8fdefffc	lw	r30,-4(r30)
 9569  0000895c  4be00000	jr	r31
 9570  00008960  54000000	nop
 9571  00008964          	.endproc _QueueLinkInit
 9572  00008964          	.align 2
 9573  00008964          	.proc _QueueNext
 9574  00008964          	.global _QueueNext
 9575  00008964          	_QueueNext:
 9576                      ;  Function 'QueueNext'; 0 bytes of locals, 0 regs to save.
 9577  00008964  afbefffc	sw	-4(r29),r30; push fp
 9578  00008968  001df020	add	r30,r0,r29; fp = sp
 9579  0000896c  afbffff8	sw	-8(r29),r31; push ret addr
 9580  00008970  2fbd0008	subui	r29,r29,#8; alloc local storage
 9581  00008974  8fc10000	lw	r1,(r30)
 9582  00008978  8c210000	lw	r1,(r1)
 9583  0000897c  8fdffff8	lw	r31,-8(r30)
 9584  00008980  001ee820	add	r29,r0,r30
 9585  00008984  8fdefffc	lw	r30,-4(r30)
 9586  00008988  4be00000	jr	r31
 9587  0000898c  54000000	nop
 9588  00008990          	.endproc _QueueNext
 9589  00008990          	.align 2
 9590  00008990          	.proc _QueuePrev
 9591  00008990          	.global _QueuePrev
 9592  00008990          	_QueuePrev:
 9593                      ;  Function 'QueuePrev'; 0 bytes of locals, 0 regs to save.
 9594  00008990  afbefffc	sw	-4(r29),r30; push fp
 9595  00008994  001df020	add	r30,r0,r29; fp = sp
 9596  00008998  afbffff8	sw	-8(r29),r31; push ret addr
 9597  0000899c  2fbd0008	subui	r29,r29,#8; alloc local storage
 9598  000089a0  8fc10000	lw	r1,(r30)
 9599  000089a4  8c210004	lw	r1,4(r1)
 9600  000089a8  8fdffff8	lw	r31,-8(r30)
 9601  000089ac  001ee820	add	r29,r0,r30
 9602  000089b0  8fdefffc	lw	r30,-4(r30)
 9603  000089b4  4be00000	jr	r31
 9604  000089b8  54000000	nop
 9605  000089bc          	.endproc _QueuePrev
 9606  000089bc          	.align 2
 9607  000089bc          	.proc _QueueFirst
 9608  000089bc          	.global _QueueFirst
 9609  000089bc          	_QueueFirst:
 9610                      ;  Function 'QueueFirst'; 0 bytes of locals, 0 regs to save.
 9611  000089bc  afbefffc	sw	-4(r29),r30; push fp
 9612  000089c0  001df020	add	r30,r0,r29; fp = sp
 9613  000089c4  afbffff8	sw	-8(r29),r31; push ret addr
 9614  000089c8  2fbd0008	subui	r29,r29,#8; alloc local storage
 9615  000089cc  8fc10000	lw	r1,(r30)
 9616  000089d0  8c210000	lw	r1,(r1)
 9617  000089d4  8fdffff8	lw	r31,-8(r30)
 9618  000089d8  001ee820	add	r29,r0,r30
 9619  000089dc  8fdefffc	lw	r30,-4(r30)
 9620  000089e0  4be00000	jr	r31
 9621  000089e4  54000000	nop
 9622  000089e8          	.endproc _QueueFirst
 9623  000089e8          	.align 2
 9624  000089e8          	.proc _QueueLast
 9625  000089e8          	.global _QueueLast
 9626  000089e8          	_QueueLast:
 9627                      ;  Function 'QueueLast'; 0 bytes of locals, 0 regs to save.
 9628  000089e8  afbefffc	sw	-4(r29),r30; push fp
 9629  000089ec  001df020	add	r30,r0,r29; fp = sp
 9630  000089f0  afbffff8	sw	-8(r29),r31; push ret addr
 9631  000089f4  2fbd0008	subui	r29,r29,#8; alloc local storage
 9632  000089f8  8fc10000	lw	r1,(r30)
 9633  000089fc  8c210004	lw	r1,4(r1)
 9634  00008a00  8fdffff8	lw	r31,-8(r30)
 9635  00008a04  001ee820	add	r29,r0,r30
 9636  00008a08  8fdefffc	lw	r30,-4(r30)
 9637  00008a0c  4be00000	jr	r31
 9638  00008a10  54000000	nop
 9639  00008a14          	.endproc _QueueLast
 9640  00008a14          	.align 2
 9641  00008a14          	.proc _QueueInsertAfter
 9642  00008a14          	.global _QueueInsertAfter
 9643  00008a14          	_QueueInsertAfter:
 9644                      ;  Function 'QueueInsertAfter'; 0 bytes of locals, 2 regs to save.
 9645  00008a14  afbefffc	sw	-4(r29),r30; push fp
 9646  00008a18  001df020	add	r30,r0,r29; fp = sp
 9647  00008a1c  afbffff8	sw	-8(r29),r31; push ret addr
 9648  00008a20  2fbd0010	subui	r29,r29,#16; alloc local storage
 9649  00008a24  afa20000	sw	0(r29),r2
 9650  00008a28  afa30004	sw	4(r29),r3
 9651  00008a2c  8fc30000	lw	r3,(r30)
 9652  00008a30  8fc20004	lw	r2,4(r30)
 9653  00008a34  8fc10008	lw	r1,8(r30)
 9654  00008a38  ac230008	sw	8(r1),r3
 9655  00008a3c  ac220004	sw	4(r1),r2
 9656  00008a40  8c5f0000	lw	r31,(r2)
 9657  00008a44  ac3f0000	sw	(r1),r31
 9658  00008a48  ac410000	sw	(r2),r1
 9659  00008a4c  8c220000	lw	r2,(r1)
 9660  00008a50  ac410004	sw	4(r2),r1
 9661  00008a54  8c610008	lw	r1,8(r3)
 9662  00008a58  20210001	addi	r1,r1,#1
 9663  00008a5c  ac610008	sw	8(r3),r1
 9664  00008a60  8fa20000	lw	r2,0(r29)
 9665  00008a64  8fa30004	lw	r3,4(r29)
 9666  00008a68  8fdffff8	lw	r31,-8(r30)
 9667  00008a6c  001ee820	add	r29,r0,r30
 9668  00008a70  8fdefffc	lw	r30,-4(r30)
 9669  00008a74  4be00000	jr	r31
 9670  00008a78  54000000	nop
 9671  00008a7c          	.endproc _QueueInsertAfter
 9672  00008a7c          	.align 2
 9673  00008a7c          	.proc _QueueInsertFirst
 9674  00008a7c          	.global _QueueInsertFirst
 9675  00008a7c          	_QueueInsertFirst:
 9676                      ;  Function 'QueueInsertFirst'; 0 bytes of locals, 2 regs to save.
 9677  00008a7c  afbefffc	sw	-4(r29),r30; push fp
 9678  00008a80  001df020	add	r30,r0,r29; fp = sp
 9679  00008a84  afbffff8	sw	-8(r29),r31; push ret addr
 9680  00008a88  2fbd0010	subui	r29,r29,#16; alloc local storage
 9681  00008a8c  afa20000	sw	0(r29),r2
 9682  00008a90  afa30004	sw	4(r29),r3
 9683  00008a94  8fc30000	lw	r3,(r30)
 9684  00008a98  8fc10004	lw	r1,4(r30)
 9685  00008a9c  ac230008	sw	8(r1),r3
 9686  00008aa0  ac230004	sw	4(r1),r3
 9687  00008aa4  8c7f0000	lw	r31,(r3)
 9688  00008aa8  ac3f0000	sw	(r1),r31
 9689  00008aac  ac610000	sw	(r3),r1
 9690  00008ab0  8c220000	lw	r2,(r1)
 9691  00008ab4  ac410004	sw	4(r2),r1
 9692  00008ab8  8c610008	lw	r1,8(r3)
 9693  00008abc  20210001	addi	r1,r1,#1
 9694  00008ac0  ac610008	sw	8(r3),r1
 9695  00008ac4  8fa20000	lw	r2,0(r29)
 9696  00008ac8  8fa30004	lw	r3,4(r29)
 9697  00008acc  8fdffff8	lw	r31,-8(r30)
 9698  00008ad0  001ee820	add	r29,r0,r30
 9699  00008ad4  8fdefffc	lw	r30,-4(r30)
 9700  00008ad8  4be00000	jr	r31
 9701  00008adc  54000000	nop
 9702  00008ae0          	.endproc _QueueInsertFirst
 9703  00008ae0          	.align 2
 9704  00008ae0          	.proc _QueueInsertLast
 9705  00008ae0          	.global _QueueInsertLast
 9706  00008ae0          	_QueueInsertLast:
 9707                      ;  Function 'QueueInsertLast'; 0 bytes of locals, 2 regs to save.
 9708  00008ae0  afbefffc	sw	-4(r29),r30; push fp
 9709  00008ae4  001df020	add	r30,r0,r29; fp = sp
 9710  00008ae8  afbffff8	sw	-8(r29),r31; push ret addr
 9711  00008aec  2fbd0010	subui	r29,r29,#16; alloc local storage
 9712  00008af0  afa20000	sw	0(r29),r2
 9713  00008af4  afa30004	sw	4(r29),r3
 9714  00008af8  8fc30000	lw	r3,(r30)
 9715  00008afc  8fc10004	lw	r1,4(r30)
 9716  00008b00  8c620004	lw	r2,4(r3)
 9717  00008b04  ac230008	sw	8(r1),r3
 9718  00008b08  ac220004	sw	4(r1),r2
 9719  00008b0c  8c5f0000	lw	r31,(r2)
 9720  00008b10  ac3f0000	sw	(r1),r31
 9721  00008b14  ac410000	sw	(r2),r1
 9722  00008b18  8c220000	lw	r2,(r1)
 9723  00008b1c  ac410004	sw	4(r2),r1
 9724  00008b20  8c610008	lw	r1,8(r3)
 9725  00008b24  20210001	addi	r1,r1,#1
 9726  00008b28  ac610008	sw	8(r3),r1
 9727  00008b2c  8fa20000	lw	r2,0(r29)
 9728  00008b30  8fa30004	lw	r3,4(r29)
 9729  00008b34  8fdffff8	lw	r31,-8(r30)
 9730  00008b38  001ee820	add	r29,r0,r30
 9731  00008b3c  8fdefffc	lw	r30,-4(r30)
 9732  00008b40  4be00000	jr	r31
 9733  00008b44  54000000	nop
 9734  00008b48          	.endproc _QueueInsertLast
 9735  00008b48          	.align 2
 9736  00008b48          	.proc _QueueRemove
 9737  00008b48          	.global _QueueRemove
 9738  00008b48          	_QueueRemove:
 9739                      ;  Function 'QueueRemove'; 0 bytes of locals, 2 regs to save.
 9740  00008b48  afbefffc	sw	-4(r29),r30; push fp
 9741  00008b4c  001df020	add	r30,r0,r29; fp = sp
 9742  00008b50  afbffff8	sw	-8(r29),r31; push ret addr
 9743  00008b54  2fbd0010	subui	r29,r29,#16; alloc local storage
 9744  00008b58  afa20000	sw	0(r29),r2
 9745  00008b5c  afa30004	sw	4(r29),r3
 9746  00008b60  8fdf0000	lw	r31,(r30)
 9747  00008b64  8fe10008	lw	r1,8(r31)
 9748  00008b68  8c210008	lw	r1,8(r1)
 9749  00008b6c  6c210000	sgti	r1,r1,#0
 9750  00008b70  1020002c	beqz	r1,L44_LF7
 9751  00008b74  54000000	nop; not filled.
 9752  00008b78  8fe10004	lw	r1,4(r31)
 9753  00008b7c  8fe30000	lw	r3,(r31)
 9754  00008b80  ac230000	sw	(r1),r3
 9755  00008b84  8fe10000	lw	r1,(r31)
 9756  00008b88  8fe30004	lw	r3,4(r31)
 9757  00008b8c  ac230004	sw	4(r1),r3
 9758  00008b90  8fe20008	lw	r2,8(r31)
 9759  00008b94  8c410008	lw	r1,8(r2)
 9760  00008b98  2021ffff	addi	r1,r1,#-1
 9761  00008b9c  ac410008	sw	8(r2),r1
 9762  00008ba0          	L44_LF7:
 9763  00008ba0  20030000	addi	r3,r0,#0
 9764  00008ba4  afe30000	sw	(r31),r3
 9765  00008ba8  8fa20000	lw	r2,0(r29)
 9766  00008bac  8fa30004	lw	r3,4(r29)
 9767  00008bb0  8fdffff8	lw	r31,-8(r30)
 9768  00008bb4  001ee820	add	r29,r0,r30
 9769  00008bb8  8fdefffc	lw	r30,-4(r30)
 9770  00008bbc  4be00000	jr	r31
 9771  00008bc0  54000000	nop
 9772  00008bc4          	.endproc _QueueRemove
 9773  00008bc4          	.align 2
 9774  00008bc4          	.proc _QueueLength
 9775  00008bc4          	.global _QueueLength
 9776  00008bc4          	_QueueLength:
 9777                      ;  Function 'QueueLength'; 0 bytes of locals, 0 regs to save.
 9778  00008bc4  afbefffc	sw	-4(r29),r30; push fp
 9779  00008bc8  001df020	add	r30,r0,r29; fp = sp
 9780  00008bcc  afbffff8	sw	-8(r29),r31; push ret addr
 9781  00008bd0  2fbd0008	subui	r29,r29,#8; alloc local storage
 9782  00008bd4  8fc10000	lw	r1,(r30)
 9783  00008bd8  8c210008	lw	r1,8(r1)
 9784  00008bdc  8fdffff8	lw	r31,-8(r30)
 9785  00008be0  001ee820	add	r29,r0,r30
 9786  00008be4  8fdefffc	lw	r30,-4(r30)
 9787  00008be8  4be00000	jr	r31
 9788  00008bec  54000000	nop
 9789  00008bf0          	.endproc _QueueLength
 9790  00008bf0          	.align 2
 9791  00008bf0          	.proc _QueueEmpty
 9792  00008bf0          	.global _QueueEmpty
 9793  00008bf0          	_QueueEmpty:
 9794                      ;  Function 'QueueEmpty'; 0 bytes of locals, 0 regs to save.
 9795  00008bf0  afbefffc	sw	-4(r29),r30; push fp
 9796  00008bf4  001df020	add	r30,r0,r29; fp = sp
 9797  00008bf8  afbffff8	sw	-8(r29),r31; push ret addr
 9798  00008bfc  2fbd0008	subui	r29,r29,#8; alloc local storage
 9799  00008c00  8fc10000	lw	r1,(r30)
 9800  00008c04  8c210008	lw	r1,8(r1)
 9801  00008c08  60210000	seqi	r1,r1,#0
 9802  00008c0c  8fdffff8	lw	r31,-8(r30)
 9803  00008c10  001ee820	add	r29,r0,r30
 9804  00008c14  8fdefffc	lw	r30,-4(r30)
 9805  00008c18  4be00000	jr	r31
 9806  00008c1c  54000000	nop
 9807  00008c20          	.endproc _QueueEmpty
 9808  00008c20          	.data
 9809  00013870          	.align 2
 9810  00013870          	LC0_LF7:
 9811  00013870  456e7465	.ascii "Entering SynchModuleInit\n\000"
 9811  00013874  72696e67	
 9811  00013878  2053796e	
 9811  0001387c  63684d6f	
 9811  00013880  64756c65	
 9811  00013884  496e6974	
 9811  00013888  0a00    	
 9812  0001388a          	.align 2
 9813  0001388c          	LC1_LF7:
 9814  0001388c  4c656176	.ascii "Leaving SynchModuleInit\n\000"
 9814  00013890  696e6720	
 9814  00013894  53796e63	
 9814  00013898  684d6f64	
 9814  0001389c  756c6549	
 9814  000138a0  6e69740a	
 9814  000138a4  00      	
 9815  000138a5          	.text
 9816  00008c20          	.align 2
 9817  00008c20          	.proc _SynchModuleInit
 9818  00008c20          	.global _SynchModuleInit
 9819  00008c20          	_SynchModuleInit:
 9820                      ;  Function 'SynchModuleInit'; 0 bytes of locals, 2 regs to save.
 9821  00008c20  afbefffc	sw	-4(r29),r30; push fp
 9822  00008c24  001df020	add	r30,r0,r29; fp = sp
 9823  00008c28  afbffff8	sw	-8(r29),r31; push ret addr
 9824  00008c2c  2fbd0010	subui	r29,r29,#16; alloc local storage
 9825  00008c30  afa20000	sw	0(r29),r2
 9826  00008c34  afa30004	sw	4(r29),r3
 9827  00008c38  23bdfff8	addi	r29,r29,#-8
 9828  00008c3c  3c020000	lhi	r2,((_debugstr)>>16)&0xffff
 9829  00008c40  2442ef7c	addui	r2,r2,(_debugstr)&0xffff
 9830  00008c44  afa20000	sw	(r29),r2
 9831  00008c48  20030070	addi	r3,r0,#112
 9832  00008c4c  afa30004	sw	4(r29),r3
 9833  00008c50  0fffb29c	jal	_dindex
 9834  00008c54  54000000	nop; not filled.
 9835  00008c58  23bd0008	addi	r29,r29,#8
 9836  00008c5c  64210000	snei	r1,r1,#0
 9837  00008c60  1420002c	bnez	r1,L53_LF7
 9838  00008c64  54000000	nop; not filled.
 9839  00008c68  23bdfff8	addi	r29,r29,#-8
 9840  00008c6c  afa20000	sw	(r29),r2
 9841  00008c70  2003002b	addi	r3,r0,#43
 9842  00008c74  afa30004	sw	4(r29),r3
 9843  00008c78  0fffb274	jal	_dindex
 9844  00008c7c  54000000	nop; not filled.
 9845  00008c80  23bd0008	addi	r29,r29,#8
 9846  00008c84  64210000	snei	r1,r1,#0
 9847  00008c88  10200020	beqz	r1,L52_LF7
 9848  00008c8c  54000000	nop; not filled.
 9849  00008c90          	L53_LF7:
 9850  00008c90  23bdfff8	addi	r29,r29,#-8
 9851  00008c94  3c030001	lhi	r3,((LC0_LF7)>>16)&0xffff
 9852  00008c98  24633870	addui	r3,r3,(LC0_LF7)&0xffff
 9853  00008c9c  afa30000	sw	(r29),r3
 9854  00008ca0  0c002854	jal	_printf
 9855  00008ca4  54000000	nop; not filled.
 9856  00008ca8  23bd0008	addi	r29,r29,#8
 9857  00008cac          	L52_LF7:
 9858  00008cac  3c1f0001	lhi	r31,((_sems_LF7)>>16)&0xffff
 9859  00008cb0  27ff3954	addui	r31,r31,(_sems_LF7)&0xffff
 9860  00008cb4  23e2026c	addi	r2,r31,#620
 9861  00008cb8          	L57_LF7:
 9862  00008cb8  20030000	addi	r3,r0,#0
 9863  00008cbc  afe30010	sw	16(r31),r3
 9864  00008cc0  23ff0014	addi	r31,r31,#20
 9865  00008cc4  03e2082c	sle	r1,r31,r2
 9866  00008cc8  1420ffec	bnez	r1,L57_LF7
 9867  00008ccc  54000000	nop; not filled.
 9868  00008cd0  23bdfff8	addi	r29,r29,#-8
 9869  00008cd4  3c020000	lhi	r2,((_debugstr)>>16)&0xffff
 9870  00008cd8  2442ef7c	addui	r2,r2,(_debugstr)&0xffff
 9871  00008cdc  afa20000	sw	(r29),r2
 9872  00008ce0  20030070	addi	r3,r0,#112
 9873  00008ce4  afa30004	sw	4(r29),r3
 9874  00008ce8  0fffb204	jal	_dindex
 9875  00008cec  54000000	nop; not filled.
 9876  00008cf0  23bd0008	addi	r29,r29,#8
 9877  00008cf4  64210000	snei	r1,r1,#0
 9878  00008cf8  1420002c	bnez	r1,L60_LF7
 9879  00008cfc  54000000	nop; not filled.
 9880  00008d00  23bdfff8	addi	r29,r29,#-8
 9881  00008d04  afa20000	sw	(r29),r2
 9882  00008d08  2003002b	addi	r3,r0,#43
 9883  00008d0c  afa30004	sw	4(r29),r3
 9884  00008d10  0fffb1dc	jal	_dindex
 9885  00008d14  54000000	nop; not filled.
 9886  00008d18  23bd0008	addi	r29,r29,#8
 9887  00008d1c  64210000	snei	r1,r1,#0
 9888  00008d20  10200020	beqz	r1,L59_LF7
 9889  00008d24  54000000	nop; not filled.
 9890  00008d28          	L60_LF7:
 9891  00008d28  23bdfff8	addi	r29,r29,#-8
 9892  00008d2c  3c030001	lhi	r3,((LC1_LF7)>>16)&0xffff
 9893  00008d30  2463388c	addui	r3,r3,(LC1_LF7)&0xffff
 9894  00008d34  afa30000	sw	(r29),r3
 9895  00008d38  0c0027bc	jal	_printf
 9896  00008d3c  54000000	nop; not filled.
 9897  00008d40  23bd0008	addi	r29,r29,#8
 9898  00008d44          	L59_LF7:
 9899  00008d44  8fa20000	lw	r2,0(r29)
 9900  00008d48  8fa30004	lw	r3,4(r29)
 9901  00008d4c  8fdffff8	lw	r31,-8(r30)
 9902  00008d50  001ee820	add	r29,r0,r30
 9903  00008d54  8fdefffc	lw	r30,-4(r30)
 9904  00008d58  4be00000	jr	r31
 9905  00008d5c  54000000	nop
 9906  00008d60          	.endproc _SynchModuleInit
 9907  00008d60          	.align 2
 9908  00008d60          	.proc _SemInit
 9909  00008d60          	.global _SemInit
 9910  00008d60          	_SemInit:
 9911                      ;  Function 'SemInit'; 0 bytes of locals, 2 regs to save.
 9912  00008d60  afbefffc	sw	-4(r29),r30; push fp
 9913  00008d64  001df020	add	r30,r0,r29; fp = sp
 9914  00008d68  afbffff8	sw	-8(r29),r31; push ret addr
 9915  00008d6c  2fbd0010	subui	r29,r29,#16; alloc local storage
 9916  00008d70  afa20000	sw	0(r29),r2
 9917  00008d74  afa30004	sw	4(r29),r3
 9918  00008d78  8fc20000	lw	r2,(r30)
 9919  00008d7c  8fc30004	lw	r3,4(r30)
 9920  00008d80  23bdfff8	addi	r29,r29,#-8
 9921  00008d84  afa20000	sw	(r29),r2
 9922  00008d88  0ffff81c	jal	_QueueInit
 9923  00008d8c  54000000	nop; not filled.
 9924  00008d90  ac43000c	sw	12(r2),r3
 9925  00008d94  23bd0008	addi	r29,r29,#8
 9926  00008d98  8fa20000	lw	r2,0(r29)
 9927  00008d9c  8fa30004	lw	r3,4(r29)
 9928  00008da0  8fdffff8	lw	r31,-8(r30)
 9929  00008da4  001ee820	add	r29,r0,r30
 9930  00008da8  8fdefffc	lw	r30,-4(r30)
 9931  00008dac  4be00000	jr	r31
 9932  00008db0  54000000	nop
 9933  00008db4          	.endproc _SemInit
 9934  00008db4          	.align 2
 9935  00008db4          	.proc _SemCreate
 9936  00008db4          	.global _SemCreate
 9937  00008db4          	_SemCreate:
 9938                      ;  Function 'SemCreate'; 0 bytes of locals, 4 regs to save.
 9939  00008db4  afbefffc	sw	-4(r29),r30; push fp
 9940  00008db8  001df020	add	r30,r0,r29; fp = sp
 9941  00008dbc  afbffff8	sw	-8(r29),r31; push ret addr
 9942  00008dc0  2fbd0018	subui	r29,r29,#24; alloc local storage
 9943  00008dc4  afa20000	sw	0(r29),r2
 9944  00008dc8  afa30004	sw	4(r29),r3
 9945  00008dcc  afa40008	sw	8(r29),r4
 9946  00008dd0  afa5000c	sw	12(r29),r5
 9947  00008dd4  23bdfff8	addi	r29,r29,#-8
 9948  00008dd8  2005000f	addi	r5,r0,#15
 9949  00008ddc  afa50000	sw	(r29),r5
 9950  00008de0  0fff84a4	jal	_SetIntrs
 9951  00008de4  54000000	nop; not filled.
 9952  00008de8  00012020	add	r4,r0,r1
 9953  00008dec  23bd0008	addi	r29,r29,#8
 9954  00008df0  20030000	addi	r3,r0,#0
 9955  00008df4  3c1f0001	lhi	r31,((_sems_LF7)>>16)&0xffff
 9956  00008df8  27ff3954	addui	r31,r31,(_sems_LF7)&0xffff
 9957  00008dfc          	L79_LF7:
 9958  00008dfc  001f1020	add	r2,r0,r31
 9959  00008e00  8fe10010	lw	r1,16(r31)
 9960  00008e04  64210000	snei	r1,r1,#0
 9961  00008e08  10200078	beqz	r1,L86_LF7
 9962  00008e0c  54000000	nop; not filled.
 9963  00008e10  205f0014	addi	r31,r2,#20
 9964  00008e14  20630001	addi	r3,r3,#1
 9965  00008e18  7061001f	slei	r1,r3,#31
 9966  00008e1c  1420ffdc	bnez	r1,L79_LF7
 9967  00008e20  54000000	nop; not filled.
 9968  00008e24          	L77_LF7:
 9969  00008e24  23bdfff8	addi	r29,r29,#-8
 9970  00008e28  afa40000	sw	(r29),r4
 9971  00008e2c  0fff8458	jal	_SetIntrs
 9972  00008e30  54000000	nop; not filled.
 9973  00008e34  23bd0008	addi	r29,r29,#8
 9974  00008e38  60610020	seqi	r1,r3,#32
 9975  00008e3c  14200054	bnez	r1,L83_LF7
 9976  00008e40  54000000	nop; not filled.
 9977  00008e44  50610002	slli	r1,r3,#0x2
 9978  00008e48  00230820	add	r1,r1,r3
 9979  00008e4c  50210002	slli	r1,r1,#0x2
 9980  00008e50  3c050001	lhi	r5,((_sems_LF7)>>16)&0xffff
 9981  00008e54  24a53954	addui	r5,r5,(_sems_LF7)&0xffff
 9982  00008e58  00251020	add	r2,r1,r5
 9983  00008e5c  23bdfff8	addi	r29,r29,#-8
 9984  00008e60  afa20000	sw	(r29),r2
 9985  00008e64  0ffff740	jal	_QueueInit
 9986  00008e68  54000000	nop; not filled.
 9987  00008e6c  8fc50000	lw	r5,(r30)
 9988  00008e70  ac45000c	sw	12(r2),r5
 9989  00008e74  23bd0008	addi	r29,r29,#8
 9990  00008e78  00030820	add	r1,r0,r3
 9991  00008e7c  08000018	j	L85_LF7
 9992  00008e80  54000000	nop; not filled.
 9993  00008e84          	L86_LF7:
 9994  00008e84  20050001	addi	r5,r0,#1
 9995  00008e88  afe50010	sw	16(r31),r5
 9996  00008e8c  0bffff94	j	L77_LF7
 9997  00008e90  54000000	nop; not filled.
 9998  00008e94          	L83_LF7:
 9999  00008e94  2001ffff	addi	r1,r0,#-1
10000  00008e98          	L85_LF7:
10001  00008e98  8fa20000	lw	r2,0(r29)
10002  00008e9c  8fa30004	lw	r3,4(r29)
10003  00008ea0  8fa40008	lw	r4,8(r29)
10004  00008ea4  8fa5000c	lw	r5,12(r29)
10005  00008ea8  8fdffff8	lw	r31,-8(r30)
10006  00008eac  001ee820	add	r29,r0,r30
10007  00008eb0  8fdefffc	lw	r30,-4(r30)
10008  00008eb4  4be00000	jr	r31
10009  00008eb8  54000000	nop
10010  00008ebc          	.endproc _SemCreate
10011  00008ebc          	.data
10012  000138a5          	.align 2
10013  000138a8          	LC2_LF7:
10014  000138a8  4f6c6420	.ascii "Old interrupt value was 0x%x.\n\000"
10014  000138ac  696e7465	
10014  000138b0  72727570	
10014  000138b4  74207661	
10014  000138b8  6c756520	
10014  000138bc  77617320	
10014  000138c0  30782578	
10014  000138c4  2e0a00  	
10015  000138c7          	.align 2
10016  000138c8          	LC3_LF7:
10017  000138c8  50726f63	.ascii "Proc 0x%x waiting on sem 0x%x, count=%d.\n\000"
10017  000138cc  20307825	
10017  000138d0  78207761	
10017  000138d4  6974696e	
10017  000138d8  67206f6e	
10017  000138dc  2073656d	
10017  000138e0  20307825	
10017  000138e4  782c2063	
10017  000138e8  6f756e74	
10017  000138ec  3d25642e	
10017  000138f0  0a00    	
10018  000138f2          	.align 2
10019  000138f4          	LC4_LF7:
10020  000138f4  53757370	.ascii "Suspending current proc (0x%x).\n\000"
10020  000138f8  656e6469	
10020  000138fc  6e672063	
10020  00013900  75727265	
10020  00013904  6e742070	
10020  00013908  726f6320	
10020  0001390c  28307825	
10020  00013910  78292e0a	
10020  00013914  00      	
10021  00013915          	.text
10022  00008ebc          	.align 2
10023  00008ebc          	.proc _SemWait
10024  00008ebc          	.global _SemWait
10025  00008ebc          	_SemWait:
10026                      ;  Function 'SemWait'; 0 bytes of locals, 6 regs to save.
10027  00008ebc  afbefffc	sw	-4(r29),r30; push fp
10028  00008ec0  001df020	add	r30,r0,r29; fp = sp
10029  00008ec4  afbffff8	sw	-8(r29),r31; push ret addr
10030  00008ec8  2fbd0020	subui	r29,r29,#32; alloc local storage
10031  00008ecc  afa20000	sw	0(r29),r2
10032  00008ed0  afa30004	sw	4(r29),r3
10033  00008ed4  afa40008	sw	8(r29),r4
10034  00008ed8  afa5000c	sw	12(r29),r5
10035  00008edc  afa60010	sw	16(r29),r6
10036  00008ee0  afa70014	sw	20(r29),r7
10037  00008ee4  8fc40000	lw	r4,(r30)
10038  00008ee8  23bdfff8	addi	r29,r29,#-8
10039  00008eec  2007000f	addi	r7,r0,#15
10040  00008ef0  afa70000	sw	(r29),r7
10041  00008ef4  0fff8390	jal	_SetIntrs
10042  00008ef8  54000000	nop; not filled.
10043  00008efc  00013020	add	r6,r0,r1
10044  00008f00  23bd0008	addi	r29,r29,#8
10045  00008f04  23bdfff8	addi	r29,r29,#-8
10046  00008f08  3c020000	lhi	r2,((_debugstr)>>16)&0xffff
10047  00008f0c  2442ef7c	addui	r2,r2,(_debugstr)&0xffff
10048  00008f10  afa20000	sw	(r29),r2
10049  00008f14  20070049	addi	r7,r0,#73
10050  00008f18  afa70004	sw	4(r29),r7
10051  00008f1c  0fffafd0	jal	_dindex
10052  00008f20  54000000	nop; not filled.
10053  00008f24  23bd0008	addi	r29,r29,#8
10054  00008f28  64210000	snei	r1,r1,#0
10055  00008f2c  1420002c	bnez	r1,L90_LF7
10056  00008f30  54000000	nop; not filled.
10057  00008f34  23bdfff8	addi	r29,r29,#-8
10058  00008f38  afa20000	sw	(r29),r2
10059  00008f3c  2007002b	addi	r7,r0,#43
10060  00008f40  afa70004	sw	4(r29),r7
10061  00008f44  0fffafa8	jal	_dindex
10062  00008f48  54000000	nop; not filled.
10063  00008f4c  23bd0008	addi	r29,r29,#8
10064  00008f50  64210000	snei	r1,r1,#0
10065  00008f54  10200024	beqz	r1,L89_LF7
10066  00008f58  54000000	nop; not filled.
10067  00008f5c          	L90_LF7:
10068  00008f5c  23bdfff8	addi	r29,r29,#-8
10069  00008f60  3c070001	lhi	r7,((LC2_LF7)>>16)&0xffff
10070  00008f64  24e738a8	addui	r7,r7,(LC2_LF7)&0xffff
10071  00008f68  afa70000	sw	(r29),r7
10072  00008f6c  afa60004	sw	4(r29),r6
10073  00008f70  0c002584	jal	_printf
10074  00008f74  54000000	nop; not filled.
10075  00008f78  23bd0008	addi	r29,r29,#8
10076  00008f7c          	L89_LF7:
10077  00008f7c  23bdfff8	addi	r29,r29,#-8
10078  00008f80  3c020000	lhi	r2,((_debugstr)>>16)&0xffff
10079  00008f84  2442ef7c	addui	r2,r2,(_debugstr)&0xffff
10080  00008f88  afa20000	sw	(r29),r2
10081  00008f8c  20070073	addi	r7,r0,#115
10082  00008f90  afa70004	sw	4(r29),r7
10083  00008f94  0fffaf58	jal	_dindex
10084  00008f98  54000000	nop; not filled.
10085  00008f9c  23bd0008	addi	r29,r29,#8
10086  00008fa0  64210000	snei	r1,r1,#0
10087  00008fa4  1420002c	bnez	r1,L92_LF7
10088  00008fa8  54000000	nop; not filled.
10089  00008fac  23bdfff8	addi	r29,r29,#-8
10090  00008fb0  afa20000	sw	(r29),r2
10091  00008fb4  2007002b	addi	r7,r0,#43
10092  00008fb8  afa70004	sw	4(r29),r7
10093  00008fbc  0fffaf30	jal	_dindex
10094  00008fc0  54000000	nop; not filled.
10095  00008fc4  23bd0008	addi	r29,r29,#8
10096  00008fc8  64210000	snei	r1,r1,#0
10097  00008fcc  1020003c	beqz	r1,L91_LF7
10098  00008fd0  54000000	nop; not filled.
10099  00008fd4          	L92_LF7:
10100  00008fd4  23bdfff0	addi	r29,r29,#-16
10101  00008fd8  3c070001	lhi	r7,((LC3_LF7)>>16)&0xffff
10102  00008fdc  24e738c8	addui	r7,r7,(LC3_LF7)&0xffff
10103  00008fe0  afa70000	sw	(r29),r7
10104  00008fe4  3c010000	lhi	r1,((_currentPCB)>>16)&0xffff
10105  00008fe8  2421f044	addui	r1,r1,(_currentPCB)&0xffff
10106  00008fec  8c210000	lw	r1,(r1)
10107  00008ff0  afa10004	sw	4(r29),r1
10108  00008ff4  afa40008	sw	8(r29),r4
10109  00008ff8  8c87000c	lw	r7,12(r4)
10110  00008ffc  afa7000c	sw	12(r29),r7
10111  00009000  0c0024f4	jal	_printf
10112  00009004  54000000	nop; not filled.
10113  00009008  23bd0010	addi	r29,r29,#16
10114  0000900c          	L91_LF7:
10115  0000900c  8c81000c	lw	r1,12(r4)
10116  00009010  2021ffff	addi	r1,r1,#-1
10117  00009014  ac81000c	sw	12(r4),r1
10118  00009018  68210000	slti	r1,r1,#0
10119  0000901c  102000d8	beqz	r1,L93_LF7
10120  00009020  54000000	nop; not filled.
10121  00009024  0ffff670	jal	_QueueAllocLink
10122  00009028  54000000	nop; not filled.
10123  0000902c  00011020	add	r2,r0,r1
10124  00009030  3c050000	lhi	r5,((_currentPCB)>>16)&0xffff
10125  00009034  24a5f044	addui	r5,r5,(_currentPCB)&0xffff
10126  00009038  8ca10000	lw	r1,(r5)
10127  0000903c  20070000	addi	r7,r0,#0
10128  00009040  ac470000	sw	(r2),r7
10129  00009044  ac41000c	sw	12(r2),r1
10130  00009048  23bdfff8	addi	r29,r29,#-8
10131  0000904c  3c030000	lhi	r3,((_debugstr)>>16)&0xffff
10132  00009050  2463ef7c	addui	r3,r3,(_debugstr)&0xffff
10133  00009054  afa30000	sw	(r29),r3
10134  00009058  20070073	addi	r7,r0,#115
10135  0000905c  afa70004	sw	4(r29),r7
10136  00009060  0fffae8c	jal	_dindex
10137  00009064  54000000	nop; not filled.
10138  00009068  23bd0008	addi	r29,r29,#8
10139  0000906c  64210000	snei	r1,r1,#0
10140  00009070  1420002c	bnez	r1,L96_LF7
10141  00009074  54000000	nop; not filled.
10142  00009078  23bdfff8	addi	r29,r29,#-8
10143  0000907c  afa30000	sw	(r29),r3
10144  00009080  2007002b	addi	r7,r0,#43
10145  00009084  afa70004	sw	4(r29),r7
10146  00009088  0fffae64	jal	_dindex
10147  0000908c  54000000	nop; not filled.
10148  00009090  23bd0008	addi	r29,r29,#8
10149  00009094  64210000	snei	r1,r1,#0
10150  00009098  10200028	beqz	r1,L95_LF7
10151  0000909c  54000000	nop; not filled.
10152  000090a0          	L96_LF7:
10153  000090a0  23bdfff8	addi	r29,r29,#-8
10154  000090a4  3c070001	lhi	r7,((LC4_LF7)>>16)&0xffff
10155  000090a8  24e738f4	addui	r7,r7,(LC4_LF7)&0xffff
10156  000090ac  afa70000	sw	(r29),r7
10157  000090b0  8ca10000	lw	r1,(r5)
10158  000090b4  afa10004	sw	4(r29),r1
10159  000090b8  0c00243c	jal	_printf
10160  000090bc  54000000	nop; not filled.
10161  000090c0  23bd0008	addi	r29,r29,#8
10162  000090c4          	L95_LF7:
10163  000090c4  8c810004	lw	r1,4(r4)
10164  000090c8  ac440008	sw	8(r2),r4
10165  000090cc  ac410004	sw	4(r2),r1
10166  000090d0  8c270000	lw	r7,(r1)
10167  000090d4  ac470000	sw	(r2),r7
10168  000090d8  ac220000	sw	(r1),r2
10169  000090dc  8c410000	lw	r1,(r2)
10170  000090e0  ac220004	sw	4(r1),r2
10171  000090e4  8c810008	lw	r1,8(r4)
10172  000090e8  20210001	addi	r1,r1,#1
10173  000090ec  ac810008	sw	8(r4),r1
10174  000090f0  0fff81e0	jal	_ProcessSleep
10175  000090f4  54000000	nop; not filled.
10176  000090f8          	L93_LF7:
10177  000090f8  23bdfff8	addi	r29,r29,#-8
10178  000090fc  afa60000	sw	(r29),r6
10179  00009100  0fff8184	jal	_SetIntrs
10180  00009104  54000000	nop; not filled.
10181  00009108  23bd0008	addi	r29,r29,#8
10182  0000910c  8fa20000	lw	r2,0(r29)
10183  00009110  8fa30004	lw	r3,4(r29)
10184  00009114  8fa40008	lw	r4,8(r29)
10185  00009118  8fa5000c	lw	r5,12(r29)
10186  0000911c  8fa60010	lw	r6,16(r29)
10187  00009120  8fa70014	lw	r7,20(r29)
10188  00009124  8fdffff8	lw	r31,-8(r30)
10189  00009128  001ee820	add	r29,r0,r30
10190  0000912c  8fdefffc	lw	r30,-4(r30)
10191  00009130  4be00000	jr	r31
10192  00009134  54000000	nop
10193  00009138          	.endproc _SemWait
10194  00009138          	.align 2
10195  00009138          	.proc _SemHandleWait
10196  00009138          	.global _SemHandleWait
10197  00009138          	_SemHandleWait:
10198                      ;  Function 'SemHandleWait'; 0 bytes of locals, 1 regs to save.
10199  00009138  afbefffc	sw	-4(r29),r30; push fp
10200  0000913c  001df020	add	r30,r0,r29; fp = sp
10201  00009140  afbffff8	sw	-8(r29),r31; push ret addr
10202  00009144  2fbd0010	subui	r29,r29,#16; alloc local storage
10203  00009148  afa20000	sw	0(r29),r2
10204  0000914c  8fdf0000	lw	r31,(r30)
10205  00009150  73e1001f	sleui	r1,r31,#31
10206  00009154  10200058	beqz	r1,L106_LF7
10207  00009158  54000000	nop; not filled.
10208  0000915c  53e10002	slli	r1,r31,#0x2
10209  00009160  003f0820	add	r1,r1,r31
10210  00009164  50210002	slli	r1,r1,#0x2
10211  00009168  3c020001	lhi	r2,((_sems_LF7)>>16)&0xffff
10212  0000916c  24423954	addui	r2,r2,(_sems_LF7)&0xffff
10213  00009170  0022f820	add	r31,r1,r2
10214  00009174  8fe10010	lw	r1,16(r31)
10215  00009178  64210000	snei	r1,r1,#0
10216  0000917c  10200024	beqz	r1,L107_LF7
10217  00009180  54000000	nop; not filled.
10218  00009184  23bdfff8	addi	r29,r29,#-8
10219  00009188  afbf0000	sw	(r29),r31
10220  0000918c  0ffffd2c	jal	_SemWait
10221  00009190  54000000	nop; not filled.
10222  00009194  20010000	addi	r1,r0,#0
10223  00009198  23bd0008	addi	r29,r29,#8
10224  0000919c  08000014	j	L105_LF7
10225  000091a0  54000000	nop; not filled.
10226  000091a4          	L107_LF7:
10227  000091a4  20010001	addi	r1,r0,#1
10228  000091a8  08000008	j	L105_LF7
10229  000091ac  54000000	nop; not filled.
10230  000091b0          	L106_LF7:
10231  000091b0  20010001	addi	r1,r0,#1
10232  000091b4          	L105_LF7:
10233  000091b4  8fa20000	lw	r2,0(r29)
10234  000091b8  8fdffff8	lw	r31,-8(r30)
10235  000091bc  001ee820	add	r29,r0,r30
10236  000091c0  8fdefffc	lw	r30,-4(r30)
10237  000091c4  4be00000	jr	r31
10238  000091c8  54000000	nop
10239  000091cc          	.endproc _SemHandleWait
10240  000091cc          	.data
10241  00013915          	.align 2
10242  00013918          	LC5_LF7:
10243  00013918  5369676e	.ascii "Signalling on sem 0x%x, count=%d.\n\000"
10243  0001391c  616c6c69	
10243  00013920  6e67206f	
10243  00013924  6e207365	
10243  00013928  6d203078	
10243  0001392c  25782c20	
10243  00013930  636f756e	
10243  00013934  743d2564	
10243  00013938  2e0a00  	
10244  0001393b          	.align 2
10245  0001393c          	LC6_LF7:
10246  0001393c  57616b69	.ascii "Waking up PCB 0x%x.\n\000"
10246  00013940  6e672075	
10246  00013944  70205043	
10246  00013948  42203078	
10246  0001394c  25782e0a	
10246  00013950  00      	
10247  00013951          	.text
10248  000091cc          	.align 2
10249  000091cc          	.proc _SemSignal
10250  000091cc          	.global _SemSignal
10251  000091cc          	_SemSignal:
10252                      ;  Function 'SemSignal'; 0 bytes of locals, 4 regs to save.
10253  000091cc  afbefffc	sw	-4(r29),r30; push fp
10254  000091d0  001df020	add	r30,r0,r29; fp = sp
10255  000091d4  afbffff8	sw	-8(r29),r31; push ret addr
10256  000091d8  2fbd0018	subui	r29,r29,#24; alloc local storage
10257  000091dc  afa20000	sw	0(r29),r2
10258  000091e0  afa30004	sw	4(r29),r3
10259  000091e4  afa40008	sw	8(r29),r4
10260  000091e8  afa5000c	sw	12(r29),r5
10261  000091ec  8fc20000	lw	r2,(r30)
10262  000091f0  23bdfff8	addi	r29,r29,#-8
10263  000091f4  2005000f	addi	r5,r0,#15
10264  000091f8  afa50000	sw	(r29),r5
10265  000091fc  0fff8088	jal	_SetIntrs
10266  00009200  54000000	nop; not filled.
10267  00009204  00012020	add	r4,r0,r1
10268  00009208  23bd0008	addi	r29,r29,#8
10269  0000920c  23bdfff8	addi	r29,r29,#-8
10270  00009210  3c030000	lhi	r3,((_debugstr)>>16)&0xffff
10271  00009214  2463ef7c	addui	r3,r3,(_debugstr)&0xffff
10272  00009218  afa30000	sw	(r29),r3
10273  0000921c  20050073	addi	r5,r0,#115
10274  00009220  afa50004	sw	4(r29),r5
10275  00009224  0fffacc8	jal	_dindex
10276  00009228  54000000	nop; not filled.
10277  0000922c  23bd0008	addi	r29,r29,#8
10278  00009230  64210000	snei	r1,r1,#0
10279  00009234  1420002c	bnez	r1,L113_LF7
10280  00009238  54000000	nop; not filled.
10281  0000923c  23bdfff8	addi	r29,r29,#-8
10282  00009240  afa30000	sw	(r29),r3
10283  00009244  2005002b	addi	r5,r0,#43
10284  00009248  afa50004	sw	4(r29),r5
10285  0000924c  0fffaca0	jal	_dindex
10286  00009250  54000000	nop; not filled.
10287  00009254  23bd0008	addi	r29,r29,#8
10288  00009258  64210000	snei	r1,r1,#0
10289  0000925c  1020002c	beqz	r1,L112_LF7
10290  00009260  54000000	nop; not filled.
10291  00009264          	L113_LF7:
10292  00009264  23bdfff0	addi	r29,r29,#-16
10293  00009268  3c050001	lhi	r5,((LC5_LF7)>>16)&0xffff
10294  0000926c  24a53918	addui	r5,r5,(LC5_LF7)&0xffff
10295  00009270  afa50000	sw	(r29),r5
10296  00009274  afa20004	sw	4(r29),r2
10297  00009278  8c45000c	lw	r5,12(r2)
10298  0000927c  afa50008	sw	8(r29),r5
10299  00009280  0c002274	jal	_printf
10300  00009284  54000000	nop; not filled.
10301  00009288  23bd0010	addi	r29,r29,#16
10302  0000928c          	L112_LF7:
10303  0000928c  8c41000c	lw	r1,12(r2)
10304  00009290  20210001	addi	r1,r1,#1
10305  00009294  ac41000c	sw	12(r2),r1
10306  00009298  70210000	slei	r1,r1,#0
10307  0000929c  102000ec	beqz	r1,L114_LF7
10308  000092a0  54000000	nop; not filled.
10309  000092a4  8c430000	lw	r3,(r2)
10310  000092a8  8c610008	lw	r1,8(r3)
10311  000092ac  8c210008	lw	r1,8(r1)
10312  000092b0  6c210000	sgti	r1,r1,#0
10313  000092b4  1020002c	beqz	r1,L117_LF7
10314  000092b8  54000000	nop; not filled.
10315  000092bc  8c610004	lw	r1,4(r3)
10316  000092c0  8c650000	lw	r5,(r3)
10317  000092c4  ac250000	sw	(r1),r5
10318  000092c8  8c610000	lw	r1,(r3)
10319  000092cc  8c650004	lw	r5,4(r3)
10320  000092d0  ac250004	sw	4(r1),r5
10321  000092d4  8c620008	lw	r2,8(r3)
10322  000092d8  8c410008	lw	r1,8(r2)
10323  000092dc  2021ffff	addi	r1,r1,#-1
10324  000092e0  ac410008	sw	8(r2),r1
10325  000092e4          	L117_LF7:
10326  000092e4  20050000	addi	r5,r0,#0
10327  000092e8  ac650000	sw	(r3),r5
10328  000092ec  23bdfff8	addi	r29,r29,#-8
10329  000092f0  3c020000	lhi	r2,((_debugstr)>>16)&0xffff
10330  000092f4  2442ef7c	addui	r2,r2,(_debugstr)&0xffff
10331  000092f8  afa20000	sw	(r29),r2
10332  000092fc  20050073	addi	r5,r0,#115
10333  00009300  afa50004	sw	4(r29),r5
10334  00009304  0fffabe8	jal	_dindex
10335  00009308  54000000	nop; not filled.
10336  0000930c  23bd0008	addi	r29,r29,#8
10337  00009310  64210000	snei	r1,r1,#0
10338  00009314  1420002c	bnez	r1,L119_LF7
10339  00009318  54000000	nop; not filled.
10340  0000931c  23bdfff8	addi	r29,r29,#-8
10341  00009320  afa20000	sw	(r29),r2
10342  00009324  2005002b	addi	r5,r0,#43
10343  00009328  afa50004	sw	4(r29),r5
10344  0000932c  0fffabc0	jal	_dindex
10345  00009330  54000000	nop; not filled.
10346  00009334  23bd0008	addi	r29,r29,#8
10347  00009338  64210000	snei	r1,r1,#0
10348  0000933c  10200028	beqz	r1,L118_LF7
10349  00009340  54000000	nop; not filled.
10350  00009344          	L119_LF7:
10351  00009344  23bdfff8	addi	r29,r29,#-8
10352  00009348  3c050001	lhi	r5,((LC6_LF7)>>16)&0xffff
10353  0000934c  24a5393c	addui	r5,r5,(LC6_LF7)&0xffff
10354  00009350  afa50000	sw	(r29),r5
10355  00009354  8c61000c	lw	r1,12(r3)
10356  00009358  afa10004	sw	4(r29),r1
10357  0000935c  0c002198	jal	_printf
10358  00009360  54000000	nop; not filled.
10359  00009364  23bd0008	addi	r29,r29,#8
10360  00009368          	L118_LF7:
10361  00009368  23bdfff8	addi	r29,r29,#-8
10362  0000936c  8c65000c	lw	r5,12(r3)
10363  00009370  afa50000	sw	(r29),r5
10364  00009374  0fffbf54	jal	_ProcessWakeup
10365  00009378  54000000	nop; not filled.
10366  0000937c  afa30000	sw	(r29),r3
10367  00009380  0ffff25c	jal	_QueueFreeLink
10368  00009384  54000000	nop; not filled.
10369  00009388  23bd0008	addi	r29,r29,#8
10370  0000938c          	L114_LF7:
10371  0000938c  23bdfff8	addi	r29,r29,#-8
10372  00009390  afa40000	sw	(r29),r4
10373  00009394  0fff7ef0	jal	_SetIntrs
10374  00009398  54000000	nop; not filled.
10375  0000939c  23bd0008	addi	r29,r29,#8
10376  000093a0  8fa20000	lw	r2,0(r29)
10377  000093a4  8fa30004	lw	r3,4(r29)
10378  000093a8  8fa40008	lw	r4,8(r29)
10379  000093ac  8fa5000c	lw	r5,12(r29)
10380  000093b0  8fdffff8	lw	r31,-8(r30)
10381  000093b4  001ee820	add	r29,r0,r30
10382  000093b8  8fdefffc	lw	r30,-4(r30)
10383  000093bc  4be00000	jr	r31
10384  000093c0  54000000	nop
10385  000093c4          	.endproc _SemSignal
10386  000093c4          	.align 2
10387  000093c4          	.proc _SemHandleSignal
10388  000093c4          	.global _SemHandleSignal
10389  000093c4          	_SemHandleSignal:
10390                      ;  Function 'SemHandleSignal'; 0 bytes of locals, 1 regs to save.
10391  000093c4  afbefffc	sw	-4(r29),r30; push fp
10392  000093c8  001df020	add	r30,r0,r29; fp = sp
10393  000093cc  afbffff8	sw	-8(r29),r31; push ret addr
10394  000093d0  2fbd0010	subui	r29,r29,#16; alloc local storage
10395  000093d4  afa20000	sw	0(r29),r2
10396  000093d8  8fdf0000	lw	r31,(r30)
10397  000093dc  73e1001f	sleui	r1,r31,#31
10398  000093e0  10200058	beqz	r1,L126_LF7
10399  000093e4  54000000	nop; not filled.
10400  000093e8  53e10002	slli	r1,r31,#0x2
10401  000093ec  003f0820	add	r1,r1,r31
10402  000093f0  50210002	slli	r1,r1,#0x2
10403  000093f4  3c020001	lhi	r2,((_sems_LF7)>>16)&0xffff
10404  000093f8  24423954	addui	r2,r2,(_sems_LF7)&0xffff
10405  000093fc  0022f820	add	r31,r1,r2
10406  00009400  8fe10010	lw	r1,16(r31)
10407  00009404  64210000	snei	r1,r1,#0
10408  00009408  10200024	beqz	r1,L127_LF7
10409  0000940c  54000000	nop; not filled.
10410  00009410  23bdfff8	addi	r29,r29,#-8
10411  00009414  afbf0000	sw	(r29),r31
10412  00009418  0ffffdb0	jal	_SemSignal
10413  0000941c  54000000	nop; not filled.
10414  00009420  20010000	addi	r1,r0,#0
10415  00009424  23bd0008	addi	r29,r29,#8
10416  00009428  08000014	j	L125_LF7
10417  0000942c  54000000	nop; not filled.
10418  00009430          	L127_LF7:
10419  00009430  20010001	addi	r1,r0,#1
10420  00009434  08000008	j	L125_LF7
10421  00009438  54000000	nop; not filled.
10422  0000943c          	L126_LF7:
10423  0000943c  20010001	addi	r1,r0,#1
10424  00009440          	L125_LF7:
10425  00009440  8fa20000	lw	r2,0(r29)
10426  00009444  8fdffff8	lw	r31,-8(r30)
10427  00009448  001ee820	add	r29,r0,r30
10428  0000944c  8fdefffc	lw	r30,-4(r30)
10429  00009450  4be00000	jr	r31
10430  00009454  54000000	nop
10431  00009458          	.endproc _SemHandleSignal
10432  00009458          	.data
10433  00013951          	.align 2
10434  00013954          	_sems_LF7:
10435  00013954          	.space 640
10436                      ; Compiled by GCC
10438  00013bd4          	.align 2
10439  00013bd4          	_rcsid_LF8:
10440  00013bd4  3a207472	.ascii "$Id: traps.c,v 1.1 2000/09/20 01:50:19 elm Exp elm $\000"
10440  00013bd8  6170732e	
10440  00013bdc  632c7620	
10440  00013be0  312e3120	
10440  00013be4  32303030	
10440  00013be8  2f30392f	
10440  00013bec  32302030	
10440  00013bf0  313a3530	
10440  00013bf4  3a313920	
10440  00013bf8  656c6d20	
10440  00013bfc  45787020	
10440  00013c00  656c6d20	
10440  00013c04  303030  	
10441  00013c07          	.text
10442  00009458          	.align 2
10443  00009458          	.proc _isspace
10444  00009458          	.global _isspace
10445  00009458          	_isspace:
10446                      ;  Function 'isspace'; 0 bytes of locals, 1 regs to save.
10447  00009458  afbefffc	sw	-4(r29),r30; push fp
10448  0000945c  001df020	add	r30,r0,r29; fp = sp
10449  00009460  afbffff8	sw	-8(r29),r31; push ret addr
10450  00009464  2fbd0010	subui	r29,r29,#16; alloc local storage
10451  00009468  afa20000	sw	0(r29),r2
10452  0000946c  83c20003	lb	r2,3(r30)
10453  00009470  201f0000	addi	r31,r0,#0
10454  00009474  304100ff	andi	r1,r2,#0x00ff
10455  00009478  60210020	seqi	r1,r1,#32
10456  0000947c  14200018	bnez	r1,L6_LF8
10457  00009480  54000000	nop; not filled.
10458  00009484  2041fff7	addi	r1,r2,#-9
10459  00009488  302100ff	andi	r1,r1,#0x00ff
10460  0000948c  70210001	sleui	r1,r1,#1
10461  00009490  10200008	beqz	r1,L5_LF8
10462  00009494  54000000	nop; not filled.
10463  00009498          	L6_LF8:
10464  00009498  201f0001	addi	r31,r0,#1
10465  0000949c          	L5_LF8:
10466  0000949c  001f0820	add	r1,r0,r31
10467  000094a0  8fa20000	lw	r2,0(r29)
10468  000094a4  8fdffff8	lw	r31,-8(r30)
10469  000094a8  001ee820	add	r29,r0,r30
10470  000094ac  8fdefffc	lw	r30,-4(r30)
10471  000094b0  4be00000	jr	r31
10472  000094b4  54000000	nop
10473  000094b8          	.endproc _isspace
10474  000094b8          	.align 2
10475  000094b8          	.proc _isxdigit
10476  000094b8          	.global _isxdigit
10477  000094b8          	_isxdigit:
10478                      ;  Function 'isxdigit'; 0 bytes of locals, 1 regs to save.
10479  000094b8  afbefffc	sw	-4(r29),r30; push fp
10480  000094bc  001df020	add	r30,r0,r29; fp = sp
10481  000094c0  afbffff8	sw	-8(r29),r31; push ret addr
10482  000094c4  2fbd0010	subui	r29,r29,#16; alloc local storage
10483  000094c8  afa20000	sw	0(r29),r2
10484  000094cc  83df0003	lb	r31,3(r30)
10485  000094d0  20020000	addi	r2,r0,#0
10486  000094d4  23e1ffd0	addi	r1,r31,#-48
10487  000094d8  302100ff	andi	r1,r1,#0x00ff
10488  000094dc  70210009	sleui	r1,r1,#9
10489  000094e0  14200028	bnez	r1,L12_LF8
10490  000094e4  54000000	nop; not filled.
10491  000094e8  23e1ff9f	addi	r1,r31,#-97
10492  000094ec  302100ff	andi	r1,r1,#0x00ff
10493  000094f0  70210005	sleui	r1,r1,#5
10494  000094f4  14200014	bnez	r1,L12_LF8
10495  000094f8  54000000	nop; not filled.
10496  000094fc  33e100ff	andi	r1,r31,#0x00ff
10497  00009500  64210041	snei	r1,r1,#65
10498  00009504  14200008	bnez	r1,L11_LF8
10499  00009508  54000000	nop; not filled.
10500  0000950c          	L12_LF8:
10501  0000950c  20020001	addi	r2,r0,#1
10502  00009510          	L11_LF8:
10503  00009510  00020820	add	r1,r0,r2
10504  00009514  8fa20000	lw	r2,0(r29)
10505  00009518  8fdffff8	lw	r31,-8(r30)
10506  0000951c  001ee820	add	r29,r0,r30
10507  00009520  8fdefffc	lw	r30,-4(r30)
10508  00009524  4be00000	jr	r31
10509  00009528  54000000	nop
10510  0000952c          	.endproc _isxdigit
10511  0000952c          	.align 2
10512  0000952c          	.proc _DisableIntrs
10513  0000952c          	.global _DisableIntrs
10514  0000952c          	_DisableIntrs:
10515                      ;  Function 'DisableIntrs'; 0 bytes of locals, 1 regs to save.
10516  0000952c  afbefffc	sw	-4(r29),r30; push fp
10517  00009530  001df020	add	r30,r0,r29; fp = sp
10518  00009534  afbffff8	sw	-8(r29),r31; push ret addr
10519  00009538  2fbd0010	subui	r29,r29,#16; alloc local storage
10520  0000953c  afa20000	sw	0(r29),r2
10521  00009540  23bdfff8	addi	r29,r29,#-8
10522  00009544  2002000f	addi	r2,r0,#15
10523  00009548  afa20000	sw	(r29),r2
10524  0000954c  0fff7d38	jal	_SetIntrs
10525  00009550  54000000	nop; not filled.
10526  00009554  23bd0008	addi	r29,r29,#8
10527  00009558  8fa20000	lw	r2,0(r29)
10528  0000955c  8fdffff8	lw	r31,-8(r30)
10529  00009560  001ee820	add	r29,r0,r30
10530  00009564  8fdefffc	lw	r30,-4(r30)
10531  00009568  4be00000	jr	r31
10532  0000956c  54000000	nop
10533  00009570          	.endproc _DisableIntrs
10534  00009570          	.align 2
10535  00009570          	.proc _EnableIntrs
10536  00009570          	.global _EnableIntrs
10537  00009570          	_EnableIntrs:
10538                      ;  Function 'EnableIntrs'; 0 bytes of locals, 1 regs to save.
10539  00009570  afbefffc	sw	-4(r29),r30; push fp
10540  00009574  001df020	add	r30,r0,r29; fp = sp
10541  00009578  afbffff8	sw	-8(r29),r31; push ret addr
10542  0000957c  2fbd0010	subui	r29,r29,#16; alloc local storage
10543  00009580  afa20000	sw	0(r29),r2
10544  00009584  23bdfff8	addi	r29,r29,#-8
10545  00009588  20020000	addi	r2,r0,#0
10546  0000958c  afa20000	sw	(r29),r2
10547  00009590  0fff7cf4	jal	_SetIntrs
10548  00009594  54000000	nop; not filled.
10549  00009598  23bd0008	addi	r29,r29,#8
10550  0000959c  8fa20000	lw	r2,0(r29)
10551  000095a0  8fdffff8	lw	r31,-8(r30)
10552  000095a4  001ee820	add	r29,r0,r30
10553  000095a8  8fdefffc	lw	r30,-4(r30)
10554  000095ac  4be00000	jr	r31
10555  000095b0  54000000	nop
10556  000095b4          	.endproc _EnableIntrs
10557  000095b4          	.align 2
10558  000095b4          	.proc _RestoreIntrs
10559  000095b4          	.global _RestoreIntrs
10560  000095b4          	_RestoreIntrs:
10561                      ;  Function 'RestoreIntrs'; 0 bytes of locals, 1 regs to save.
10562  000095b4  afbefffc	sw	-4(r29),r30; push fp
10563  000095b8  001df020	add	r30,r0,r29; fp = sp
10564  000095bc  afbffff8	sw	-8(r29),r31; push ret addr
10565  000095c0  2fbd0010	subui	r29,r29,#16; alloc local storage
10566  000095c4  afa20000	sw	0(r29),r2
10567  000095c8  23bdfff8	addi	r29,r29,#-8
10568  000095cc  8fc20000	lw	r2,(r30)
10569  000095d0  afa20000	sw	(r29),r2
10570  000095d4  0fff7cb0	jal	_SetIntrs
10571  000095d8  54000000	nop; not filled.
10572  000095dc  23bd0008	addi	r29,r29,#8
10573  000095e0  8fa20000	lw	r2,0(r29)
10574  000095e4  8fdffff8	lw	r31,-8(r30)
10575  000095e8  001ee820	add	r29,r0,r30
10576  000095ec  8fdefffc	lw	r30,-4(r30)
10577  000095f0  4be00000	jr	r31
10578  000095f4  54000000	nop
10579  000095f8          	.endproc _RestoreIntrs
10580  000095f8          	.align 2
10581  000095f8          	.proc _QueueLinkInit
10582  000095f8          	.global _QueueLinkInit
10583  000095f8          	_QueueLinkInit:
10584                      ;  Function 'QueueLinkInit'; 0 bytes of locals, 1 regs to save.
10585  000095f8  afbefffc	sw	-4(r29),r30; push fp
10586  000095fc  001df020	add	r30,r0,r29; fp = sp
10587  00009600  afbffff8	sw	-8(r29),r31; push ret addr
10588  00009604  2fbd0010	subui	r29,r29,#16; alloc local storage
10589  00009608  afa20000	sw	0(r29),r2
10590  0000960c  8fc10000	lw	r1,(r30)
10591  00009610  8fc20004	lw	r2,4(r30)
10592  00009614  201f0000	addi	r31,r0,#0
10593  00009618  ac3f0000	sw	(r1),r31
10594  0000961c  ac22000c	sw	12(r1),r2
10595  00009620  8fa20000	lw	r2,0(r29)
10596  00009624  8fdffff8	lw	r31,-8(r30)
10597  00009628  001ee820	add	r29,r0,r30
10598  0000962c  8fdefffc	lw	r30,-4(r30)
10599  00009630  4be00000	jr	r31
10600  00009634  54000000	nop
10601  00009638          	.endproc _QueueLinkInit
10602  00009638          	.align 2
10603  00009638          	.proc _QueueNext
10604  00009638          	.global _QueueNext
10605  00009638          	_QueueNext:
10606                      ;  Function 'QueueNext'; 0 bytes of locals, 0 regs to save.
10607  00009638  afbefffc	sw	-4(r29),r30; push fp
10608  0000963c  001df020	add	r30,r0,r29; fp = sp
10609  00009640  afbffff8	sw	-8(r29),r31; push ret addr
10610  00009644  2fbd0008	subui	r29,r29,#8; alloc local storage
10611  00009648  8fc10000	lw	r1,(r30)
10612  0000964c  8c210000	lw	r1,(r1)
10613  00009650  8fdffff8	lw	r31,-8(r30)
10614  00009654  001ee820	add	r29,r0,r30
10615  00009658  8fdefffc	lw	r30,-4(r30)
10616  0000965c  4be00000	jr	r31
10617  00009660  54000000	nop
10618  00009664          	.endproc _QueueNext
10619  00009664          	.align 2
10620  00009664          	.proc _QueuePrev
10621  00009664          	.global _QueuePrev
10622  00009664          	_QueuePrev:
10623                      ;  Function 'QueuePrev'; 0 bytes of locals, 0 regs to save.
10624  00009664  afbefffc	sw	-4(r29),r30; push fp
10625  00009668  001df020	add	r30,r0,r29; fp = sp
10626  0000966c  afbffff8	sw	-8(r29),r31; push ret addr
10627  00009670  2fbd0008	subui	r29,r29,#8; alloc local storage
10628  00009674  8fc10000	lw	r1,(r30)
10629  00009678  8c210004	lw	r1,4(r1)
10630  0000967c  8fdffff8	lw	r31,-8(r30)
10631  00009680  001ee820	add	r29,r0,r30
10632  00009684  8fdefffc	lw	r30,-4(r30)
10633  00009688  4be00000	jr	r31
10634  0000968c  54000000	nop
10635  00009690          	.endproc _QueuePrev
10636  00009690          	.align 2
10637  00009690          	.proc _QueueFirst
10638  00009690          	.global _QueueFirst
10639  00009690          	_QueueFirst:
10640                      ;  Function 'QueueFirst'; 0 bytes of locals, 0 regs to save.
10641  00009690  afbefffc	sw	-4(r29),r30; push fp
10642  00009694  001df020	add	r30,r0,r29; fp = sp
10643  00009698  afbffff8	sw	-8(r29),r31; push ret addr
10644  0000969c  2fbd0008	subui	r29,r29,#8; alloc local storage
10645  000096a0  8fc10000	lw	r1,(r30)
10646  000096a4  8c210000	lw	r1,(r1)
10647  000096a8  8fdffff8	lw	r31,-8(r30)
10648  000096ac  001ee820	add	r29,r0,r30
10649  000096b0  8fdefffc	lw	r30,-4(r30)
10650  000096b4  4be00000	jr	r31
10651  000096b8  54000000	nop
10652  000096bc          	.endproc _QueueFirst
10653  000096bc          	.align 2
10654  000096bc          	.proc _QueueLast
10655  000096bc          	.global _QueueLast
10656  000096bc          	_QueueLast:
10657                      ;  Function 'QueueLast'; 0 bytes of locals, 0 regs to save.
10658  000096bc  afbefffc	sw	-4(r29),r30; push fp
10659  000096c0  001df020	add	r30,r0,r29; fp = sp
10660  000096c4  afbffff8	sw	-8(r29),r31; push ret addr
10661  000096c8  2fbd0008	subui	r29,r29,#8; alloc local storage
10662  000096cc  8fc10000	lw	r1,(r30)
10663  000096d0  8c210004	lw	r1,4(r1)
10664  000096d4  8fdffff8	lw	r31,-8(r30)
10665  000096d8  001ee820	add	r29,r0,r30
10666  000096dc  8fdefffc	lw	r30,-4(r30)
10667  000096e0  4be00000	jr	r31
10668  000096e4  54000000	nop
10669  000096e8          	.endproc _QueueLast
10670  000096e8          	.align 2
10671  000096e8          	.proc _QueueInsertAfter
10672  000096e8          	.global _QueueInsertAfter
10673  000096e8          	_QueueInsertAfter:
10674                      ;  Function 'QueueInsertAfter'; 0 bytes of locals, 2 regs to save.
10675  000096e8  afbefffc	sw	-4(r29),r30; push fp
10676  000096ec  001df020	add	r30,r0,r29; fp = sp
10677  000096f0  afbffff8	sw	-8(r29),r31; push ret addr
10678  000096f4  2fbd0010	subui	r29,r29,#16; alloc local storage
10679  000096f8  afa20000	sw	0(r29),r2
10680  000096fc  afa30004	sw	4(r29),r3
10681  00009700  8fc30000	lw	r3,(r30)
10682  00009704  8fc20004	lw	r2,4(r30)
10683  00009708  8fc10008	lw	r1,8(r30)
10684  0000970c  ac230008	sw	8(r1),r3
10685  00009710  ac220004	sw	4(r1),r2
10686  00009714  8c5f0000	lw	r31,(r2)
10687  00009718  ac3f0000	sw	(r1),r31
10688  0000971c  ac410000	sw	(r2),r1
10689  00009720  8c220000	lw	r2,(r1)
10690  00009724  ac410004	sw	4(r2),r1
10691  00009728  8c610008	lw	r1,8(r3)
10692  0000972c  20210001	addi	r1,r1,#1
10693  00009730  ac610008	sw	8(r3),r1
10694  00009734  8fa20000	lw	r2,0(r29)
10695  00009738  8fa30004	lw	r3,4(r29)
10696  0000973c  8fdffff8	lw	r31,-8(r30)
10697  00009740  001ee820	add	r29,r0,r30
10698  00009744  8fdefffc	lw	r30,-4(r30)
10699  00009748  4be00000	jr	r31
10700  0000974c  54000000	nop
10701  00009750          	.endproc _QueueInsertAfter
10702  00009750          	.align 2
10703  00009750          	.proc _QueueInsertFirst
10704  00009750          	.global _QueueInsertFirst
10705  00009750          	_QueueInsertFirst:
10706                      ;  Function 'QueueInsertFirst'; 0 bytes of locals, 2 regs to save.
10707  00009750  afbefffc	sw	-4(r29),r30; push fp
10708  00009754  001df020	add	r30,r0,r29; fp = sp
10709  00009758  afbffff8	sw	-8(r29),r31; push ret addr
10710  0000975c  2fbd0010	subui	r29,r29,#16; alloc local storage
10711  00009760  afa20000	sw	0(r29),r2
10712  00009764  afa30004	sw	4(r29),r3
10713  00009768  8fc30000	lw	r3,(r30)
10714  0000976c  8fc10004	lw	r1,4(r30)
10715  00009770  ac230008	sw	8(r1),r3
10716  00009774  ac230004	sw	4(r1),r3
10717  00009778  8c7f0000	lw	r31,(r3)
10718  0000977c  ac3f0000	sw	(r1),r31
10719  00009780  ac610000	sw	(r3),r1
10720  00009784  8c220000	lw	r2,(r1)
10721  00009788  ac410004	sw	4(r2),r1
10722  0000978c  8c610008	lw	r1,8(r3)
10723  00009790  20210001	addi	r1,r1,#1
10724  00009794  ac610008	sw	8(r3),r1
10725  00009798  8fa20000	lw	r2,0(r29)
10726  0000979c  8fa30004	lw	r3,4(r29)
10727  000097a0  8fdffff8	lw	r31,-8(r30)
10728  000097a4  001ee820	add	r29,r0,r30
10729  000097a8  8fdefffc	lw	r30,-4(r30)
10730  000097ac  4be00000	jr	r31
10731  000097b0  54000000	nop
10732  000097b4          	.endproc _QueueInsertFirst
10733  000097b4          	.align 2
10734  000097b4          	.proc _QueueInsertLast
10735  000097b4          	.global _QueueInsertLast
10736  000097b4          	_QueueInsertLast:
10737                      ;  Function 'QueueInsertLast'; 0 bytes of locals, 2 regs to save.
10738  000097b4  afbefffc	sw	-4(r29),r30; push fp
10739  000097b8  001df020	add	r30,r0,r29; fp = sp
10740  000097bc  afbffff8	sw	-8(r29),r31; push ret addr
10741  000097c0  2fbd0010	subui	r29,r29,#16; alloc local storage
10742  000097c4  afa20000	sw	0(r29),r2
10743  000097c8  afa30004	sw	4(r29),r3
10744  000097cc  8fc30000	lw	r3,(r30)
10745  000097d0  8fc10004	lw	r1,4(r30)
10746  000097d4  8c620004	lw	r2,4(r3)
10747  000097d8  ac230008	sw	8(r1),r3
10748  000097dc  ac220004	sw	4(r1),r2
10749  000097e0  8c5f0000	lw	r31,(r2)
10750  000097e4  ac3f0000	sw	(r1),r31
10751  000097e8  ac410000	sw	(r2),r1
10752  000097ec  8c220000	lw	r2,(r1)
10753  000097f0  ac410004	sw	4(r2),r1
10754  000097f4  8c610008	lw	r1,8(r3)
10755  000097f8  20210001	addi	r1,r1,#1
10756  000097fc  ac610008	sw	8(r3),r1
10757  00009800  8fa20000	lw	r2,0(r29)
10758  00009804  8fa30004	lw	r3,4(r29)
10759  00009808  8fdffff8	lw	r31,-8(r30)
10760  0000980c  001ee820	add	r29,r0,r30
10761  00009810  8fdefffc	lw	r30,-4(r30)
10762  00009814  4be00000	jr	r31
10763  00009818  54000000	nop
10764  0000981c          	.endproc _QueueInsertLast
10765  0000981c          	.align 2
10766  0000981c          	.proc _QueueRemove
10767  0000981c          	.global _QueueRemove
10768  0000981c          	_QueueRemove:
10769                      ;  Function 'QueueRemove'; 0 bytes of locals, 2 regs to save.
10770  0000981c  afbefffc	sw	-4(r29),r30; push fp
10771  00009820  001df020	add	r30,r0,r29; fp = sp
10772  00009824  afbffff8	sw	-8(r29),r31; push ret addr
10773  00009828  2fbd0010	subui	r29,r29,#16; alloc local storage
10774  0000982c  afa20000	sw	0(r29),r2
10775  00009830  afa30004	sw	4(r29),r3
10776  00009834  8fdf0000	lw	r31,(r30)
10777  00009838  8fe10008	lw	r1,8(r31)
10778  0000983c  8c210008	lw	r1,8(r1)
10779  00009840  6c210000	sgti	r1,r1,#0
10780  00009844  1020002c	beqz	r1,L44_LF8
10781  00009848  54000000	nop; not filled.
10782  0000984c  8fe10004	lw	r1,4(r31)
10783  00009850  8fe30000	lw	r3,(r31)
10784  00009854  ac230000	sw	(r1),r3
10785  00009858  8fe10000	lw	r1,(r31)
10786  0000985c  8fe30004	lw	r3,4(r31)
10787  00009860  ac230004	sw	4(r1),r3
10788  00009864  8fe20008	lw	r2,8(r31)
10789  00009868  8c410008	lw	r1,8(r2)
10790  0000986c  2021ffff	addi	r1,r1,#-1
10791  00009870  ac410008	sw	8(r2),r1
10792  00009874          	L44_LF8:
10793  00009874  20030000	addi	r3,r0,#0
10794  00009878  afe30000	sw	(r31),r3
10795  0000987c  8fa20000	lw	r2,0(r29)
10796  00009880  8fa30004	lw	r3,4(r29)
10797  00009884  8fdffff8	lw	r31,-8(r30)
10798  00009888  001ee820	add	r29,r0,r30
10799  0000988c  8fdefffc	lw	r30,-4(r30)
10800  00009890  4be00000	jr	r31
10801  00009894  54000000	nop
10802  00009898          	.endproc _QueueRemove
10803  00009898          	.align 2
10804  00009898          	.proc _QueueLength
10805  00009898          	.global _QueueLength
10806  00009898          	_QueueLength:
10807                      ;  Function 'QueueLength'; 0 bytes of locals, 0 regs to save.
10808  00009898  afbefffc	sw	-4(r29),r30; push fp
10809  0000989c  001df020	add	r30,r0,r29; fp = sp
10810  000098a0  afbffff8	sw	-8(r29),r31; push ret addr
10811  000098a4  2fbd0008	subui	r29,r29,#8; alloc local storage
10812  000098a8  8fc10000	lw	r1,(r30)
10813  000098ac  8c210008	lw	r1,8(r1)
10814  000098b0  8fdffff8	lw	r31,-8(r30)
10815  000098b4  001ee820	add	r29,r0,r30
10816  000098b8  8fdefffc	lw	r30,-4(r30)
10817  000098bc  4be00000	jr	r31
10818  000098c0  54000000	nop
10819  000098c4          	.endproc _QueueLength
10820  000098c4          	.align 2
10821  000098c4          	.proc _QueueEmpty
10822  000098c4          	.global _QueueEmpty
10823  000098c4          	_QueueEmpty:
10824                      ;  Function 'QueueEmpty'; 0 bytes of locals, 0 regs to save.
10825  000098c4  afbefffc	sw	-4(r29),r30; push fp
10826  000098c8  001df020	add	r30,r0,r29; fp = sp
10827  000098cc  afbffff8	sw	-8(r29),r31; push ret addr
10828  000098d0  2fbd0008	subui	r29,r29,#8; alloc local storage
10829  000098d4  8fc10000	lw	r1,(r30)
10830  000098d8  8c210008	lw	r1,8(r1)
10831  000098dc  60210000	seqi	r1,r1,#0
10832  000098e0  8fdffff8	lw	r31,-8(r30)
10833  000098e4  001ee820	add	r29,r0,r30
10834  000098e8  8fdefffc	lw	r30,-4(r30)
10835  000098ec  4be00000	jr	r31
10836  000098f0  54000000	nop
10837  000098f4          	.endproc _QueueEmpty
10838  000098f4          	.align 2
10839  000098f4          	.proc _TimerSet
10840  000098f4          	.global _TimerSet
10841  000098f4          	_TimerSet:
10842                      ;  Function 'TimerSet'; 0 bytes of locals, 0 regs to save.
10843  000098f4  afbefffc	sw	-4(r29),r30; push fp
10844  000098f8  001df020	add	r30,r0,r29; fp = sp
10845  000098fc  afbffff8	sw	-8(r29),r31; push ret addr
10846  00009900  2fbd0008	subui	r29,r29,#8; alloc local storage
10847  00009904  3c01fff0	lhi	r1,#-16
10848  00009908  24210010	addui	r1,r1,#16
10849  0000990c  8fdf0000	lw	r31,(r30)
10850  00009910  ac3f0000	sw	(r1),r31
10851  00009914  8fdffff8	lw	r31,-8(r30)
10852  00009918  001ee820	add	r29,r0,r30
10853  0000991c  8fdefffc	lw	r30,-4(r30)
10854  00009920  4be00000	jr	r31
10855  00009924  54000000	nop
10856  00009928          	.endproc _TimerSet
10857  00009928          	.align 2
10858  00009928          	.proc _KbdModuleInit
10859  00009928          	.global _KbdModuleInit
10860  00009928          	_KbdModuleInit:
10861                      ;  Function 'KbdModuleInit'; 0 bytes of locals, 0 regs to save.
10862  00009928  afbefffc	sw	-4(r29),r30; push fp
10863  0000992c  001df020	add	r30,r0,r29; fp = sp
10864  00009930  afbffff8	sw	-8(r29),r31; push ret addr
10865  00009934  2fbd0008	subui	r29,r29,#8; alloc local storage
10866  00009938  3c01fff0	lhi	r1,#-16
10867  0000993c  242101c0	addui	r1,r1,#448
10868  00009940  201f0001	addi	r31,r0,#1
10869  00009944  ac3f0000	sw	(r1),r31
10870  00009948  8fdffff8	lw	r31,-8(r30)
10871  0000994c  001ee820	add	r29,r0,r30
10872  00009950  8fdefffc	lw	r30,-4(r30)
10873  00009954  4be00000	jr	r31
10874  00009958  54000000	nop
10875  0000995c          	.endproc _KbdModuleInit
10876  0000995c          	.data
10877  00013c07          	.align 2
10878  00013c08          	LC0_LF8:
10879  00013c08  46617461	.ascii "Fatal: Cumulative length of all arguments > 100\n\000"
10879  00013c0c  6c3a2043	
10879  00013c10  756d756c	
10879  00013c14  61746976	
10879  00013c18  65206c65	
10879  00013c1c  6e677468	
10879  00013c20  206f6620	
10879  00013c24  616c6c20	
10879  00013c28  61726775	
10879  00013c2c  6d656e74	
10879  00013c30  73203e20	
10879  00013c34  3130300a	
10879  00013c38  00      	
10880  00013c39          	.text
10881  0000995c          	.align 2
10882  0000995c          	.proc _TrapProcessCreateHandler_LF8
10883  0000995c          	_TrapProcessCreateHandler_LF8:
10884                      ;  Function 'TrapProcessCreateHandler'; 1640 bytes of locals, 11 regs to save.
10885  0000995c  afbefffc	sw	-4(r29),r30; push fp
10886  00009960  001df020	add	r30,r0,r29; fp = sp
10887  00009964  afbffff8	sw	-8(r29),r31; push ret addr
10888  00009968  2fbd06a0	subui	r29,r29,#1696; alloc local storage
10889  0000996c  afa20000	sw	0(r29),r2
10890  00009970  afa30004	sw	4(r29),r3
10891  00009974  afa40008	sw	8(r29),r4
10892  00009978  afa5000c	sw	12(r29),r5
10893  0000997c  afa60010	sw	16(r29),r6
10894  00009980  afa70014	sw	20(r29),r7
10895  00009984  afa80018	sw	24(r29),r8
10896  00009988  afa9001c	sw	28(r29),r9
10897  0000998c  afaa0020	sw	32(r29),r10
10898  00009990  afab0024	sw	36(r29),r11
10899  00009994  afac0028	sw	40(r29),r12
10900  00009998  8fc40000	lw	r4,(r30)
10901  0000999c  8fc60004	lw	r6,4(r30)
10902  000099a0  23c2fbf8	addi	r2,r30,#-1032
10903  000099a4  23c3fc5b	addi	r3,r30,#-933
10904  000099a8          	L65_LF8:
10905  000099a8  200c0000	addi	r12,r0,(#0x0)&0xff
10906  000099ac  a04c0000	sb	(r2),r12
10907  000099b0  20420001	addi	r2,r2,#1
10908  000099b4  0043082c	sle	r1,r2,r3
10909  000099b8  1420ffec	bnez	r1,L65_LF8
10910  000099bc  54000000	nop; not filled.
10911  000099c0  20050000	addi	r5,r0,#0
10912  000099c4  64c10000	snei	r1,r6,#0
10913  000099c8  142000a0	bnez	r1,L67_LF8
10914  000099cc  54000000	nop; not filled.
10915  000099d0  23bdfff0	addi	r29,r29,#-16
10916  000099d4  3c020000	lhi	r2,((_currentPCB)>>16)&0xffff
10917  000099d8  2442f044	addui	r2,r2,(_currentPCB)&0xffff
10918  000099dc  8c4c0000	lw	r12,(r2)
10919  000099e0  afac0000	sw	(r29),r12
10920  000099e4  afa40004	sw	4(r29),r4
10921  000099e8  23c1f990	addi	r1,r30,#-1648
10922  000099ec  afa10008	sw	8(r29),r1
10923  000099f0  200c0200	addi	r12,r0,#512
10924  000099f4  afac000c	sw	12(r29),r12
10925  000099f8  0fff9c14	jal	_MemoryCopyUserToSystem
10926  000099fc  54000000	nop; not filled.
10927  00009a00  23bd0010	addi	r29,r29,#16
10928  00009a04  23c4fb8f	addi	r4,r30,#-1137
10929  00009a08  23c3fb90	addi	r3,r30,#-1136
10930  00009a0c          	L68_LF8:
10931  00009a0c  23bdfff0	addi	r29,r29,#-16
10932  00009a10  8c4c0000	lw	r12,(r2)
10933  00009a14  afac0000	sw	(r29),r12
10934  00009a18  8fc1f990	lw	r1,-1648(r30)
10935  00009a1c  00250820	add	r1,r1,r5
10936  00009a20  afa10004	sw	4(r29),r1
10937  00009a24  afa30008	sw	8(r29),r3
10938  00009a28  200c0001	addi	r12,r0,#1
10939  00009a2c  afac000c	sw	12(r29),r12
10940  00009a30  0fff9bdc	jal	_MemoryCopyUserToSystem
10941  00009a34  54000000	nop; not filled.
10942  00009a38  20840001	addi	r4,r4,#1
10943  00009a3c  20630001	addi	r3,r3,#1
10944  00009a40  20a50001	addi	r5,r5,#1
10945  00009a44  23bd0010	addi	r29,r29,#16
10946  00009a48  70a10063	sleui	r1,r5,#99
10947  00009a4c  10200060	beqz	r1,L73_LF8
10948  00009a50  54000000	nop; not filled.
10949  00009a54  90810000	lbu	r1,(r4)
10950  00009a58  64210000	snei	r1,r1,#0
10951  00009a5c  10200050	beqz	r1,L73_LF8
10952  00009a60  54000000	nop; not filled.
10953  00009a64  0bffffa4	j	L68_LF8
10954  00009a68  54000000	nop; not filled.
10955  00009a6c          	L67_LF8:
10956  00009a6c  23bdfff0	addi	r29,r29,#-16
10957  00009a70  afa40000	sw	(r29),r4
10958  00009a74  23c1f990	addi	r1,r30,#-1648
10959  00009a78  afa10004	sw	4(r29),r1
10960  00009a7c  200c0200	addi	r12,r0,#512
10961  00009a80  afac0008	sw	8(r29),r12
10962  00009a84  0fffa7f8	jal	_bcopy
10963  00009a88  54000000	nop; not filled.
10964  00009a8c  8fccf990	lw	r12,-1648(r30)
10965  00009a90  afac0000	sw	(r29),r12
10966  00009a94  23c1fb90	addi	r1,r30,#-1136
10967  00009a98  afa10004	sw	4(r29),r1
10968  00009a9c  200c0064	addi	r12,r0,#100
10969  00009aa0  afac0008	sw	8(r29),r12
10970  00009aa4  0fff9fec	jal	_dstrncpy
10971  00009aa8  54000000	nop; not filled.
10972  00009aac  23bd0010	addi	r29,r29,#16
10973  00009ab0          	L73_LF8:
10974  00009ab0  200c0000	addi	r12,r0,(#0x0)&0xff
10975  00009ab4  a3ccfbf3	sb	-1037(r30),r12
10976  00009ab8  20050000	addi	r5,r0,#0
10977  00009abc  64c10000	snei	r1,r6,#0
10978  00009ac0  142000b0	bnez	r1,L74_LF8
10979  00009ac4  54000000	nop; not filled.
10980  00009ac8  3c080000	lhi	r8,((_currentPCB)>>16)&0xffff
10981  00009acc  2508f044	addui	r8,r8,(_currentPCB)&0xffff
10982  00009ad0  23cbfbf8	addi	r11,r30,#-1032
10983  00009ad4  23cafbf7	addi	r10,r30,#-1033
10984  00009ad8  23c6fff8	addi	r6,r30,#-8
10985  00009adc  23c90020	addi	r9,r30,#32
10986  00009ae0          	L85_LF8:
10987  00009ae0  8cc1f998	lw	r1,-1640(r6)
10988  00009ae4  64210000	snei	r1,r1,#0
10989  00009ae8  1020012c	beqz	r1,L86_LF8
10990  00009aec  54000000	nop; not filled.
10991  00009af0  20020000	addi	r2,r0,#0
10992  00009af4  00063820	add	r7,r0,r6
10993  00009af8  00aa2020	add	r4,r5,r10
10994  00009afc  00ab1820	add	r3,r5,r11
10995  00009b00          	L80_LF8:
10996  00009b00  23bdfff0	addi	r29,r29,#-16
10997  00009b04  8d0c0000	lw	r12,(r8)
10998  00009b08  afac0000	sw	(r29),r12
10999  00009b0c  8ce1f998	lw	r1,-1640(r7)
11000  00009b10  00220820	add	r1,r1,r2
11001  00009b14  afa10004	sw	4(r29),r1
11002  00009b18  afa30008	sw	8(r29),r3
11003  00009b1c  200c0001	addi	r12,r0,#1
11004  00009b20  afac000c	sw	12(r29),r12
11005  00009b24  0fff9ae8	jal	_MemoryCopyUserToSystem
11006  00009b28  54000000	nop; not filled.
11007  00009b2c  20840001	addi	r4,r4,#1
11008  00009b30  20630001	addi	r3,r3,#1
11009  00009b34  20a50001	addi	r5,r5,#1
11010  00009b38  20420001	addi	r2,r2,#1
11011  00009b3c  23bd0010	addi	r29,r29,#16
11012  00009b40  70a103ff	sleui	r1,r5,#1023
11013  00009b44  10200014	beqz	r1,L77_LF8
11014  00009b48  54000000	nop; not filled.
11015  00009b4c  90810000	lbu	r1,(r4)
11016  00009b50  64210000	snei	r1,r1,#0
11017  00009b54  1420ffa8	bnez	r1,L80_LF8
11018  00009b58  54000000	nop; not filled.
11019  00009b5c          	L77_LF8:
11020  00009b5c  20c60004	addi	r6,r6,#4
11021  00009b60  00c9082c	sle	r1,r6,r9
11022  00009b64  102000b0	beqz	r1,L86_LF8
11023  00009b68  54000000	nop; not filled.
11024  00009b6c  0bffff70	j	L85_LF8
11025  00009b70  54000000	nop; not filled.
11026  00009b74          	L74_LF8:
11027  00009b74  23c5fbf8	addi	r5,r30,#-1032
11028  00009b78  00053820	add	r7,r0,r5
11029  00009b7c  23c3fff8	addi	r3,r30,#-8
11030  00009b80  23c60020	addi	r6,r30,#32
11031  00009b84          	L93_LF8:
11032  00009b84  2064f998	addi	r4,r3,#-1640
11033  00009b88  8c820000	lw	r2,(r4)
11034  00009b8c  64410000	snei	r1,r2,#0
11035  00009b90  10200084	beqz	r1,L86_LF8
11036  00009b94  54000000	nop; not filled.
11037  00009b98  23bdfff8	addi	r29,r29,#-8
11038  00009b9c  afa20000	sw	(r29),r2
11039  00009ba0  0fffa0dc	jal	_dstrlen
11040  00009ba4  54000000	nop; not filled.
11041  00009ba8  00a11020	add	r2,r5,r1
11042  00009bac  00470822	sub	r1,r2,r7
11043  00009bb0  23bd0008	addi	r29,r29,#8
11044  00009bb4  6c210064	sgti	r1,r1,#100
11045  00009bb8  10200028	beqz	r1,L92_LF8
11046  00009bbc  54000000	nop; not filled.
11047  00009bc0  23bdfff8	addi	r29,r29,#-8
11048  00009bc4  3c0c0001	lhi	r12,((LC0_LF8)>>16)&0xffff
11049  00009bc8  258c3c08	addui	r12,r12,(LC0_LF8)&0xffff
11050  00009bcc  afac0000	sw	(r29),r12
11051  00009bd0  0c001924	jal	_printf
11052  00009bd4  54000000	nop; not filled.
11053  00009bd8  0c001904	jal	_exitsim
11054  00009bdc  54000000	nop; not filled.
11055  00009be0  23bd0008	addi	r29,r29,#8
11056  00009be4          	L92_LF8:
11057  00009be4  23bdfff8	addi	r29,r29,#-8
11058  00009be8  afa50000	sw	(r29),r5
11059  00009bec  8c810000	lw	r1,(r4)
11060  00009bf0  afa10004	sw	4(r29),r1
11061  00009bf4  0fff9e38	jal	_dstrcpy
11062  00009bf8  54000000	nop; not filled.
11063  00009bfc  200c0000	addi	r12,r0,(#0x0)&0xff
11064  00009c00  a04c0000	sb	(r2),r12
11065  00009c04  23bd0008	addi	r29,r29,#8
11066  00009c08  20630004	addi	r3,r3,#4
11067  00009c0c  0066082c	sle	r1,r3,r6
11068  00009c10  1420ff70	bnez	r1,L93_LF8
11069  00009c14  54000000	nop; not filled.
11070  00009c18          	L86_LF8:
11071  00009c18  200c0000	addi	r12,r0,(#0x0)&0xff
11072  00009c1c  a3ccfff7	sb	-9(r30),r12
11073  00009c20  23bdfff0	addi	r29,r29,#-16
11074  00009c24  200c0000	addi	r12,r0,#0
11075  00009c28  afac0000	sw	(r29),r12
11076  00009c2c  23c1fbf8	addi	r1,r30,#-1032
11077  00009c30  afa10004	sw	4(r29),r1
11078  00009c34  23c1fb90	addi	r1,r30,#-1136
11079  00009c38  afa10008	sw	8(r29),r1
11080  00009c3c  200c0001	addi	r12,r0,#1
11081  00009c40  afac000c	sw	12(r29),r12
11082  00009c44  0fffbad8	jal	_ProcessFork
11083  00009c48  54000000	nop; not filled.
11084  00009c4c  23bd0010	addi	r29,r29,#16
11085  00009c50  8fa20000	lw	r2,0(r29)
11086  00009c54  8fa30004	lw	r3,4(r29)
11087  00009c58  8fa40008	lw	r4,8(r29)
11088  00009c5c  8fa5000c	lw	r5,12(r29)
11089  00009c60  8fa60010	lw	r6,16(r29)
11090  00009c64  8fa70014	lw	r7,20(r29)
11091  00009c68  8fa80018	lw	r8,24(r29)
11092  00009c6c  8fa9001c	lw	r9,28(r29)
11093  00009c70  8faa0020	lw	r10,32(r29)
11094  00009c74  8fab0024	lw	r11,36(r29)
11095  00009c78  8fac0028	lw	r12,40(r29)
11096  00009c7c  8fdffff8	lw	r31,-8(r30)
11097  00009c80  001ee820	add	r29,r0,r30
11098  00009c84  8fdefffc	lw	r30,-4(r30)
11099  00009c88  4be00000	jr	r31
11100  00009c8c  54000000	nop
11101  00009c90          	.endproc _TrapProcessCreateHandler_LF8
11102  00009c90          	.align 2
11103  00009c90          	.proc _TrapPrintfHandler_LF8
11104  00009c90          	_TrapPrintfHandler_LF8:
11105                      ;  Function 'TrapPrintfHandler'; 160 bytes of locals, 10 regs to save.
11106  00009c90  afbefffc	sw	-4(r29),r30; push fp
11107  00009c94  001df020	add	r30,r0,r29; fp = sp
11108  00009c98  afbffff8	sw	-8(r29),r31; push ret addr
11109  00009c9c  2fbd00d0	subui	r29,r29,#208; alloc local storage
11110  00009ca0  afa20000	sw	0(r29),r2
11111  00009ca4  afa30004	sw	4(r29),r3
11112  00009ca8  afa40008	sw	8(r29),r4
11113  00009cac  afa5000c	sw	12(r29),r5
11114  00009cb0  afa60010	sw	16(r29),r6
11115  00009cb4  afa70014	sw	20(r29),r7
11116  00009cb8  afa80018	sw	24(r29),r8
11117  00009cbc  afa9001c	sw	28(r29),r9
11118  00009cc0  afaa0020	sw	32(r29),r10
11119  00009cc4  afab0024	sw	36(r29),r11
11120  00009cc8  8fc40000	lw	r4,(r30)
11121  00009ccc  8fc10004	lw	r1,4(r30)
11122  00009cd0  20080000	addi	r8,r0,#0
11123  00009cd4  00081820	add	r3,r0,r8
11124  00009cd8  64210000	snei	r1,r1,#0
11125  00009cdc  142000a0	bnez	r1,L95_LF8
11126  00009ce0  54000000	nop; not filled.
11127  00009ce4  23bdfff0	addi	r29,r29,#-16
11128  00009ce8  3c020000	lhi	r2,((_currentPCB)>>16)&0xffff
11129  00009cec  2442f044	addui	r2,r2,(_currentPCB)&0xffff
11130  00009cf0  8c4b0000	lw	r11,(r2)
11131  00009cf4  afab0000	sw	(r29),r11
11132  00009cf8  afa40004	sw	4(r29),r4
11133  00009cfc  23c1ff58	addi	r1,r30,#-168
11134  00009d00  afa10008	sw	8(r29),r1
11135  00009d04  200b0028	addi	r11,r0,#40
11136  00009d08  afab000c	sw	12(r29),r11
11137  00009d0c  0fff9900	jal	_MemoryCopyUserToSystem
11138  00009d10  54000000	nop; not filled.
11139  00009d14  23bd0010	addi	r29,r29,#16
11140  00009d18  23c5ffa7	addi	r5,r30,#-89
11141  00009d1c  23c4ffa8	addi	r4,r30,#-88
11142  00009d20          	L96_LF8:
11143  00009d20  23bdfff0	addi	r29,r29,#-16
11144  00009d24  8c4b0000	lw	r11,(r2)
11145  00009d28  afab0000	sw	(r29),r11
11146  00009d2c  8fc1ff58	lw	r1,-168(r30)
11147  00009d30  00230820	add	r1,r1,r3
11148  00009d34  afa10004	sw	4(r29),r1
11149  00009d38  afa40008	sw	8(r29),r4
11150  00009d3c  200b0001	addi	r11,r0,#1
11151  00009d40  afab000c	sw	12(r29),r11
11152  00009d44  0fff98c8	jal	_MemoryCopyUserToSystem
11153  00009d48  54000000	nop; not filled.
11154  00009d4c  20a50001	addi	r5,r5,#1
11155  00009d50  20840001	addi	r4,r4,#1
11156  00009d54  20630001	addi	r3,r3,#1
11157  00009d58  23bd0010	addi	r29,r29,#16
11158  00009d5c  7061004f	sleui	r1,r3,#79
11159  00009d60  10200060	beqz	r1,L101_LF8
11160  00009d64  54000000	nop; not filled.
11161  00009d68  90a10000	lbu	r1,(r5)
11162  00009d6c  64210000	snei	r1,r1,#0
11163  00009d70  10200050	beqz	r1,L101_LF8
11164  00009d74  54000000	nop; not filled.
11165  00009d78  0bffffa4	j	L96_LF8
11166  00009d7c  54000000	nop; not filled.
11167  00009d80          	L95_LF8:
11168  00009d80  23bdfff0	addi	r29,r29,#-16
11169  00009d84  afa40000	sw	(r29),r4
11170  00009d88  23c1ff58	addi	r1,r30,#-168
11171  00009d8c  afa10004	sw	4(r29),r1
11172  00009d90  200b0028	addi	r11,r0,#40
11173  00009d94  afab0008	sw	8(r29),r11
11174  00009d98  0fffa4e4	jal	_bcopy
11175  00009d9c  54000000	nop; not filled.
11176  00009da0  8fcbff58	lw	r11,-168(r30)
11177  00009da4  afab0000	sw	(r29),r11
11178  00009da8  23c1ffa8	addi	r1,r30,#-88
11179  00009dac  afa10004	sw	4(r29),r1
11180  00009db0  200b0050	addi	r11,r0,#80
11181  00009db4  afab0008	sw	8(r29),r11
11182  00009db8  0fff9cd8	jal	_dstrncpy
11183  00009dbc  54000000	nop; not filled.
11184  00009dc0  23bd0010	addi	r29,r29,#16
11185  00009dc4          	L101_LF8:
11186  00009dc4  200b0000	addi	r11,r0,(#0x0)&0xff
11187  00009dc8  a3cbfff7	sb	-9(r30),r11
11188  00009dcc  23c3ffa8	addi	r3,r30,#-88
11189  00009dd0  80620000	lb	r2,(r3)
11190  00009dd4  304100ff	andi	r1,r2,#0x00ff
11191  00009dd8  64210000	snei	r1,r1,#0
11192  00009ddc  102000f0	beqz	r1,L103_LF8
11193  00009de0  54000000	nop; not filled.
11194  00009de4  23cafff8	addi	r10,r30,#-8
11195  00009de8  23c9ff5c	addi	r9,r30,#-164
11196  00009dec  51010002	slli	r1,r8,#0x2
11197  00009df0  00293820	add	r7,r1,r9
11198  00009df4  002a3020	add	r6,r1,r10
11199  00009df8          	L105_LF8:
11200  00009df8  304100ff	andi	r1,r2,#0x00ff
11201  00009dfc  60210025	seqi	r1,r1,#37
11202  00009e00  102000b4	beqz	r1,L104_LF8
11203  00009e04  54000000	nop; not filled.
11204  00009e08  90610001	lbu	r1,1(r3)
11205  00009e0c  60210025	seqi	r1,r1,#37
11206  00009e10  10200010	beqz	r1,L107_LF8
11207  00009e14  54000000	nop; not filled.
11208  00009e18  20630001	addi	r3,r3,#1
11209  00009e1c  08000098	j	L104_LF8
11210  00009e20  54000000	nop; not filled.
11211  00009e24          	L107_LF8:
11212  00009e24  8ceb0000	lw	r11,(r7)
11213  00009e28  accbff88	sw	-120(r6),r11
11214  00009e2c  51010002	slli	r1,r8,#0x2
11215  00009e30  00292820	add	r5,r1,r9
11216  00009e34  002a2020	add	r4,r1,r10
11217  00009e38          	L110_LF8:
11218  00009e38  20630001	addi	r3,r3,#1
11219  00009e3c  807f0000	lb	r31,(r3)
11220  00009e40  33e200ff	andi	r2,r31,#0x00ff
11221  00009e44  60410073	seqi	r1,r2,#115
11222  00009e48  14200060	bnez	r1,L109_LF8
11223  00009e4c  54000000	nop; not filled.
11224  00009e50  6041006c	seqi	r1,r2,#108
11225  00009e54  1420ffe0	bnez	r1,L110_LF8
11226  00009e58  54000000	nop; not filled.
11227  00009e5c  23e1ff9a	addi	r1,r31,#-102
11228  00009e60  302100ff	andi	r1,r1,#0x00ff
11229  00009e64  70210001	sleui	r1,r1,#1
11230  00009e68  14200010	bnez	r1,L116_LF8
11231  00009e6c  54000000	nop; not filled.
11232  00009e70  60410065	seqi	r1,r2,#101
11233  00009e74  10200020	beqz	r1,L115_LF8
11234  00009e78  54000000	nop; not filled.
11235  00009e7c          	L116_LF8:
11236  00009e7c  20e70004	addi	r7,r7,#4
11237  00009e80  20c60004	addi	r6,r6,#4
11238  00009e84  21080001	addi	r8,r8,#1
11239  00009e88  8ca50004	lw	r5,4(r5)
11240  00009e8c  ac85ff8c	sw	-116(r4),r5
11241  00009e90  08000018	j	L109_LF8
11242  00009e94  54000000	nop; not filled.
11243  00009e98          	L115_LF8:
11244  00009e98  23e1ff9f	addi	r1,r31,#-97
11245  00009e9c  302100ff	andi	r1,r1,#0x00ff
11246  00009ea0  70210019	sleui	r1,r1,#25
11247  00009ea4  1020ff90	beqz	r1,L110_LF8
11248  00009ea8  54000000	nop; not filled.
11249  00009eac          	L109_LF8:
11250  00009eac  20e70004	addi	r7,r7,#4
11251  00009eb0  20c60004	addi	r6,r6,#4
11252  00009eb4  21080001	addi	r8,r8,#1
11253  00009eb8          	L104_LF8:
11254  00009eb8  20630001	addi	r3,r3,#1
11255  00009ebc  80620000	lb	r2,(r3)
11256  00009ec0  304100ff	andi	r1,r2,#0x00ff
11257  00009ec4  64210000	snei	r1,r1,#0
11258  00009ec8  1420ff2c	bnez	r1,L105_LF8
11259  00009ecc  54000000	nop; not filled.
11260  00009ed0          	L103_LF8:
11261  00009ed0  23bdffd8	addi	r29,r29,#-40
11262  00009ed4  23c1ffa8	addi	r1,r30,#-88
11263  00009ed8  afa10000	sw	(r29),r1
11264  00009edc  8fc1ff80	lw	r1,-128(r30)
11265  00009ee0  afa10004	sw	4(r29),r1
11266  00009ee4  8fcbff84	lw	r11,-124(r30)
11267  00009ee8  afab0008	sw	8(r29),r11
11268  00009eec  8fcbff88	lw	r11,-120(r30)
11269  00009ef0  afab000c	sw	12(r29),r11
11270  00009ef4  8fcbff8c	lw	r11,-116(r30)
11271  00009ef8  afab0010	sw	16(r29),r11
11272  00009efc  8fcbff90	lw	r11,-112(r30)
11273  00009f00  afab0014	sw	20(r29),r11
11274  00009f04  8fcbff94	lw	r11,-108(r30)
11275  00009f08  afab0018	sw	24(r29),r11
11276  00009f0c  8fcbff98	lw	r11,-104(r30)
11277  00009f10  afab001c	sw	28(r29),r11
11278  00009f14  8fcbff9c	lw	r11,-100(r30)
11279  00009f18  afab0020	sw	32(r29),r11
11280  00009f1c  0c0015d8	jal	_printf
11281  00009f20  54000000	nop; not filled.
11282  00009f24  23bd0028	addi	r29,r29,#40
11283  00009f28  8fa20000	lw	r2,0(r29)
11284  00009f2c  8fa30004	lw	r3,4(r29)
11285  00009f30  8fa40008	lw	r4,8(r29)
11286  00009f34  8fa5000c	lw	r5,12(r29)
11287  00009f38  8fa60010	lw	r6,16(r29)
11288  00009f3c  8fa70014	lw	r7,20(r29)
11289  00009f40  8fa80018	lw	r8,24(r29)
11290  00009f44  8fa9001c	lw	r9,28(r29)
11291  00009f48  8faa0020	lw	r10,32(r29)
11292  00009f4c  8fab0024	lw	r11,36(r29)
11293  00009f50  8fdffff8	lw	r31,-8(r30)
11294  00009f54  001ee820	add	r29,r0,r30
11295  00009f58  8fdefffc	lw	r30,-4(r30)
11296  00009f5c  4be00000	jr	r31
11297  00009f60  54000000	nop
11298  00009f64          	.endproc _TrapPrintfHandler_LF8
11299  00009f64          	.data
11300  00013c39          	.align 2
11301  00013c3c          	LC1_LF8:
11302  00013c3c  496e7465	.ascii "Interrupt cause=0x%x iar=0x%x isr=0x%x args=0x%08x.\n\000"
11302  00013c40  72727570	
11302  00013c44  74206361	
11302  00013c48  7573653d	
11302  00013c4c  30782578	
11302  00013c50  20696172	
11302  00013c54  3d307825	
11302  00013c58  78206973	
11302  00013c5c  723d3078	
11302  00013c60  25782061	
11302  00013c64  7267733d	
11302  00013c68  30782530	
11302  00013c6c  38782e0a	
11302  00013c70  00      	
11303  00013c71          	.align 2
11304  00013c74          	LC2_LF8:
11305  00013c74  476f7420	.ascii "Got a context switch trap!\n\000"
11305  00013c78  6120636f	
11305  00013c7c  6e746578	
11305  00013c80  74207377	
11305  00013c84  69746368	
11305  00013c88  20747261	
11305  00013c8c  70210a00	
11306  00013c90          	.align 2
11307  00013c90          	LC3_LF8:
11308  00013c90  456e7465	.ascii "Entered TRAP_EXIT\n\000"
11308  00013c94  72656420	
11308  00013c98  54524150	
11308  00013c9c  5f455849	
11308  00013ca0  540a00  	
11309  00013ca3          	.align 2
11310  00013ca4          	LC4_LF8:
11311  00013ca4  476f7420	.ascii "Got a fork trap!\n\000"
11311  00013ca8  6120666f	
11311  00013cac  726b2074	
11311  00013cb0  72617021	
11311  00013cb4  0a00    	
11312  00013cb6          	.align 2
11313  00013cb8          	LC5_LF8:
11314  00013cb8  476f7420	.ascii "Got a process sleep trap!\n\000"
11314  00013cbc  61207072	
11314  00013cc0  6f636573	
11314  00013cc4  7320736c	
11314  00013cc8  65657020	
11314  00013ccc  74726170	
11314  00013cd0  210a00  	
11315  00013cd3          	.align 2
11316  00013cd4          	LC6_LF8:
11317  00013cd4  476f7420	.ascii "Got a printf trap!\n\000"
11317  00013cd8  61207072	
11317  00013cdc  696e7466	
11317  00013ce0  20747261	
11317  00013ce4  70210a00	
11318  00013ce8          	.align 2
11319  00013ce8          	LC7_LF8:
11320  00013ce8  476f7420	.ascii "Got an open with parameters (\'%s\',0x%x)\n\000"
11320  00013cec  616e206f	
11320  00013cf0  70656e20	
11320  00013cf4  77697468	
11320  00013cf8  20706172	
11320  00013cfc  616d6574	
11320  00013d00  65727320	
11320  00013d04  28272573	
11320  00013d08  272c3078	
11320  00013d0c  2578290a	
11320  00013d10  00      	
11321  00013d11          	.align 2
11322  00013d14          	LC8_LF8:
11323  00013d14  476f7420	.ascii "Got an unrecognized trap (0x%x) - exiting!\n\000"
11323  00013d18  616e2075	
11323  00013d1c  6e726563	
11323  00013d20  6f676e69	
11323  00013d24  7a656420	
11323  00013d28  74726170	
11323  00013d2c  20283078	
11323  00013d30  25782920	
11323  00013d34  2d206578	
11323  00013d38  6974696e	
11323  00013d3c  67210a00	
11324  00013d40          	.align 2
11325  00013d40          	LC9_LF8:
11326  00013d40  476f7420	.ascii "Got a timer interrupt!\n\000"
11326  00013d44  61207469	
11326  00013d48  6d657220	
11326  00013d4c  696e7465	
11326  00013d50  72727570	
11326  00013d54  74210a00	
11327  00013d58          	.align 2
11328  00013d58          	LC10_LF8:
11329  00013d58  476f7420	.ascii "Got a keyboard interrupt (char=0x%x(%c), nleft=%d)!\n\000"
11329  00013d5c  61206b65	
11329  00013d60  79626f61	
11329  00013d64  72642069	
11329  00013d68  6e746572	
11329  00013d6c  72757074	
11329  00013d70  20286368	
11329  00013d74  61723d30	
11329  00013d78  78257828	
11329  00013d7c  2563292c	
11329  00013d80  206e6c65	
11329  00013d84  66743d25	
11329  00013d88  6429210a	
11329  00013d8c  00      	
11330  00013d8d          	.align 2
11331  00013d90          	LC11_LF8:
11332  00013d90  656e7465	.ascii "entering TRAP_ACCESS:\n\000"
11332  00013d94  72696e67	
11332  00013d98  20545241	
11332  00013d9c  505f4143	
11332  00013da0  43455353	
11332  00013da4  3a0a00  	
11333  00013da7          	.align 2
11334  00013da8          	LC12_LF8:
11335  00013da8  45786974	.ascii "Exiting after illegal instruction at iar=0x%x, isr=0x%x\n\000"
11335  00013dac  696e6720	
11335  00013db0  61667465	
11335  00013db4  7220696c	
11335  00013db8  6c656761	
11335  00013dbc  6c20696e	
11335  00013dc0  73747275	
11335  00013dc4  6374696f	
11335  00013dc8  6e206174	
11335  00013dcc  20696172	
11335  00013dd0  3d307825	
11335  00013dd4  782c2069	
11335  00013dd8  73723d30	
11335  00013ddc  7825780a	
11335  00013de0  00      	
11336  00013de1          	.align 2
11337  00013de4          	LC13_LF8:
11338  00013de4  476f7420	.ascii "Got an unrecognized system interrupt (0x%x) - exiting!\n\000"
11338  00013de8  616e2075	
11338  00013dec  6e726563	
11338  00013df0  6f676e69	
11338  00013df4  7a656420	
11338  00013df8  73797374	
11338  00013dfc  656d2069	
11338  00013e00  6e746572	
11338  00013e04  72757074	
11338  00013e08  20283078	
11338  00013e0c  25782920	
11338  00013e10  2d206578	
11338  00013e14  6974696e	
11338  00013e18  67210a00	
11339  00013e1c          	.align 2
11340  00013e1c          	LC14_LF8:
11341  00013e1c  41626f75	.ascii "About to return from dointerrupt.\n\000"
11341  00013e20  7420746f	
11341  00013e24  20726574	
11341  00013e28  75726e20	
11341  00013e2c  66726f6d	
11341  00013e30  20646f69	
11341  00013e34  6e746572	
11341  00013e38  72757074	
11341  00013e3c  2e0a00  	
11342  00013e3f          	.text
11343  00009f64          	.align 2
11344  00009f64          	.proc _dointerrupt
11345  00009f64          	.global _dointerrupt
11346  00009f64          	_dointerrupt:
11347                      ;  Function 'dointerrupt'; 56 bytes of locals, 6 regs to save.
11348  00009f64  afbefffc	sw	-4(r29),r30; push fp
11349  00009f68  001df020	add	r30,r0,r29; fp = sp
11350  00009f6c  afbffff8	sw	-8(r29),r31; push ret addr
11351  00009f70  2fbd0058	subui	r29,r29,#88; alloc local storage
11352  00009f74  afa20000	sw	0(r29),r2
11353  00009f78  afa30004	sw	4(r29),r3
11354  00009f7c  afa40008	sw	8(r29),r4
11355  00009f80  afa5000c	sw	12(r29),r5
11356  00009f84  afa60010	sw	16(r29),r6
11357  00009f88  afa70014	sw	20(r29),r7
11358  00009f8c  8fc20000	lw	r2,(r30)
11359  00009f90  8fc60004	lw	r6,4(r30)
11360  00009f94  8fc50008	lw	r5,8(r30)
11361  00009f98  8fc3000c	lw	r3,12(r30)
11362  00009f9c  23bdfff8	addi	r29,r29,#-8
11363  00009fa0  3c040000	lhi	r4,((_debugstr)>>16)&0xffff
11364  00009fa4  2484ef7c	addui	r4,r4,(_debugstr)&0xffff
11365  00009fa8  afa40000	sw	(r29),r4
11366  00009fac  20070074	addi	r7,r0,#116
11367  00009fb0  afa70004	sw	4(r29),r7
11368  00009fb4  0fff9f38	jal	_dindex
11369  00009fb8  54000000	nop; not filled.
11370  00009fbc  23bd0008	addi	r29,r29,#8
11371  00009fc0  64210000	snei	r1,r1,#0
11372  00009fc4  1420002c	bnez	r1,L123_LF8
11373  00009fc8  54000000	nop; not filled.
11374  00009fcc  23bdfff8	addi	r29,r29,#-8
11375  00009fd0  afa40000	sw	(r29),r4
11376  00009fd4  2007002b	addi	r7,r0,#43
11377  00009fd8  afa70004	sw	4(r29),r7
11378  00009fdc  0fff9f10	jal	_dindex
11379  00009fe0  54000000	nop; not filled.
11380  00009fe4  23bd0008	addi	r29,r29,#8
11381  00009fe8  64210000	snei	r1,r1,#0
11382  00009fec  10200030	beqz	r1,L122_LF8
11383  00009ff0  54000000	nop; not filled.
11384  00009ff4          	L123_LF8:
11385  00009ff4  23bdffe8	addi	r29,r29,#-24
11386  00009ff8  3c070001	lhi	r7,((LC1_LF8)>>16)&0xffff
11387  00009ffc  24e73c3c	addui	r7,r7,(LC1_LF8)&0xffff
11388  0000a000  afa70000	sw	(r29),r7
11389  0000a004  afa20004	sw	4(r29),r2
11390  0000a008  afa60008	sw	8(r29),r6
11391  0000a00c  afa5000c	sw	12(r29),r5
11392  0000a010  afa30010	sw	16(r29),r3
11393  0000a014  0c0014e0	jal	_printf
11394  0000a018  54000000	nop; not filled.
11395  0000a01c  23bd0018	addi	r29,r29,#24
11396  0000a020          	L122_LF8:
11397  0000a020  3c070800	lhi	r7,#2048
11398  0000a024  24e70000	addui	r7,r7,#0
11399  0000a028  00470824	and	r1,r2,r7
11400  0000a02c  64210000	snei	r1,r1,#0
11401  0000a030  10200924	beqz	r1,L124_LF8
11402  0000a034  54000000	nop; not filled.
11403  0000a038  3c07f7ff	lhi	r7,#-2049
11404  0000a03c  24e7ffff	addui	r7,r7,#65535
11405  0000a040  00471024	and	r2,r2,r7
11406  0000a044  60410400	seqi	r1,r2,#1024
11407  0000a048  14200110	bnez	r1,L126_LF8
11408  0000a04c  54000000	nop; not filled.
11409  0000a050  6c410400	sgtui	r1,r2,#1024
11410  0000a054  14200074	bnez	r1,L177_LF8
11411  0000a058  54000000	nop; not filled.
11412  0000a05c  60410212	seqi	r1,r2,#530
11413  0000a060  14200638	bnez	r1,L158_LF8
11414  0000a064  54000000	nop; not filled.
11415  0000a068  6c410212	sgtui	r1,r2,#530
11416  0000a06c  14200030	bnez	r1,L178_LF8
11417  0000a070  54000000	nop; not filled.
11418  0000a074  60410210	seqi	r1,r2,#528
11419  0000a078  1420050c	bnez	r1,L149_LF8
11420  0000a07c  54000000	nop; not filled.
11421  0000a080  6c410210	sgtui	r1,r2,#528
11422  0000a084  1420055c	bnez	r1,L152_LF8
11423  0000a088  54000000	nop; not filled.
11424  0000a08c  60410201	seqi	r1,r2,#513
11425  0000a090  102008b0	beqz	r1,L175_LF8
11426  0000a094  54000000	nop; not filled.
11427  0000a098  080002dc	j	L138_LF8
11428  0000a09c  54000000	nop; not filled.
11429  0000a0a0          	L178_LF8:
11430  0000a0a0  60410214	seqi	r1,r2,#532
11431  0000a0a4  14200484	bnez	r1,L146_LF8
11432  0000a0a8  54000000	nop; not filled.
11433  0000a0ac  68410214	sltui	r1,r2,#532
11434  0000a0b0  14200358	bnez	r1,L141_LF8
11435  0000a0b4  54000000	nop; not filled.
11436  0000a0b8  60410300	seqi	r1,r2,#768
11437  0000a0bc  10200884	beqz	r1,L175_LF8
11438  0000a0c0  54000000	nop; not filled.
11439  0000a0c4  08000100	j	L129_LF8
11440  0000a0c8  54000000	nop; not filled.
11441  0000a0cc          	L177_LF8:
11442  0000a0cc  60410432	seqi	r1,r2,#1074
11443  0000a0d0  14200658	bnez	r1,L162_LF8
11444  0000a0d4  54000000	nop; not filled.
11445  0000a0d8  6c410432	sgtui	r1,r2,#1074
11446  0000a0dc  14200030	bnez	r1,L179_LF8
11447  0000a0e0  54000000	nop; not filled.
11448  0000a0e4  60410430	seqi	r1,r2,#1072
11449  0000a0e8  14200174	bnez	r1,L132_LF8
11450  0000a0ec  54000000	nop; not filled.
11451  0000a0f0  6c410430	sgtui	r1,r2,#1072
11452  0000a0f4  14200600	bnez	r1,L161_LF8
11453  0000a0f8  54000000	nop; not filled.
11454  0000a0fc  60410410	seqi	r1,r2,#1040
11455  0000a100  10200840	beqz	r1,L175_LF8
11456  0000a104  54000000	nop; not filled.
11457  0000a108  080001cc	j	L135_LF8
11458  0000a10c  54000000	nop; not filled.
11459  0000a110          	L179_LF8:
11460  0000a110  60410451	seqi	r1,r2,#1105
11461  0000a114  142006dc	bnez	r1,L167_LF8
11462  0000a118  54000000	nop; not filled.
11463  0000a11c  6c410451	sgtui	r1,r2,#1105
11464  0000a120  14200018	bnez	r1,L180_LF8
11465  0000a124  54000000	nop; not filled.
11466  0000a128  60410450	seqi	r1,r2,#1104
11467  0000a12c  10200814	beqz	r1,L175_LF8
11468  0000a130  54000000	nop; not filled.
11469  0000a134  08000614	j	L163_LF8
11470  0000a138  54000000	nop; not filled.
11471  0000a13c          	L180_LF8:
11472  0000a13c  60410452	seqi	r1,r2,#1106
11473  0000a140  14200758	bnez	r1,L171_LF8
11474  0000a144  54000000	nop; not filled.
11475  0000a148  60410580	seqi	r1,r2,#1408
11476  0000a14c  102007f4	beqz	r1,L175_LF8
11477  0000a150  54000000	nop; not filled.
11478  0000a154  080004e8	j	L155_LF8
11479  0000a158  54000000	nop; not filled.
11480  0000a15c          	L126_LF8:
11481  0000a15c  23bdfff8	addi	r29,r29,#-8
11482  0000a160  3c020000	lhi	r2,((_debugstr)>>16)&0xffff
11483  0000a164  2442ef7c	addui	r2,r2,(_debugstr)&0xffff
11484  0000a168  afa20000	sw	(r29),r2
11485  0000a16c  20070074	addi	r7,r0,#116
11486  0000a170  afa70004	sw	4(r29),r7
11487  0000a174  0fff9d78	jal	_dindex
11488  0000a178  54000000	nop; not filled.
11489  0000a17c  23bd0008	addi	r29,r29,#8
11490  0000a180  64210000	snei	r1,r1,#0
11491  0000a184  1420002c	bnez	r1,L128_LF8
11492  0000a188  54000000	nop; not filled.
11493  0000a18c  23bdfff8	addi	r29,r29,#-8
11494  0000a190  afa20000	sw	(r29),r2
11495  0000a194  2007002b	addi	r7,r0,#43
11496  0000a198  afa70004	sw	4(r29),r7
11497  0000a19c  0fff9d50	jal	_dindex
11498  0000a1a0  54000000	nop; not filled.
11499  0000a1a4  23bd0008	addi	r29,r29,#8
11500  0000a1a8  64210000	snei	r1,r1,#0
11501  0000a1ac  10200894	beqz	r1,L184_LF8
11502  0000a1b0  54000000	nop; not filled.
11503  0000a1b4          	L128_LF8:
11504  0000a1b4  23bdfff8	addi	r29,r29,#-8
11505  0000a1b8  3c070001	lhi	r7,((LC2_LF8)>>16)&0xffff
11506  0000a1bc  24e73c74	addui	r7,r7,(LC2_LF8)&0xffff
11507  0000a1c0  08000870	j	L206_LF8
11508  0000a1c4  54000000	nop; not filled.
11509  0000a1c8          	L129_LF8:
11510  0000a1c8  23bdfff8	addi	r29,r29,#-8
11511  0000a1cc  3c020000	lhi	r2,((_debugstr)>>16)&0xffff
11512  0000a1d0  2442ef7c	addui	r2,r2,(_debugstr)&0xffff
11513  0000a1d4  afa20000	sw	(r29),r2
11514  0000a1d8  20070074	addi	r7,r0,#116
11515  0000a1dc  afa70004	sw	4(r29),r7
11516  0000a1e0  0fff9d0c	jal	_dindex
11517  0000a1e4  54000000	nop; not filled.
11518  0000a1e8  23bd0008	addi	r29,r29,#8
11519  0000a1ec  64210000	snei	r1,r1,#0
11520  0000a1f0  1420002c	bnez	r1,L131_LF8
11521  0000a1f4  54000000	nop; not filled.
11522  0000a1f8  23bdfff8	addi	r29,r29,#-8
11523  0000a1fc  afa20000	sw	(r29),r2
11524  0000a200  2007002b	addi	r7,r0,#43
11525  0000a204  afa70004	sw	4(r29),r7
11526  0000a208  0fff9ce4	jal	_dindex
11527  0000a20c  54000000	nop; not filled.
11528  0000a210  23bd0008	addi	r29,r29,#8
11529  0000a214  64210000	snei	r1,r1,#0
11530  0000a218  10200020	beqz	r1,L130_LF8
11531  0000a21c  54000000	nop; not filled.
11532  0000a220          	L131_LF8:
11533  0000a220  23bdfff8	addi	r29,r29,#-8
11534  0000a224  3c070001	lhi	r7,((LC3_LF8)>>16)&0xffff
11535  0000a228  24e73c90	addui	r7,r7,(LC3_LF8)&0xffff
11536  0000a22c  afa70000	sw	(r29),r7
11537  0000a230  0c0012c4	jal	_printf
11538  0000a234  54000000	nop; not filled.
11539  0000a238  23bd0008	addi	r29,r29,#8
11540  0000a23c          	L130_LF8:
11541  0000a23c  23bdfff8	addi	r29,r29,#-8
11542  0000a240  3c010000	lhi	r1,((_currentPCB)>>16)&0xffff
11543  0000a244  2421f044	addui	r1,r1,(_currentPCB)&0xffff
11544  0000a248  8c210000	lw	r1,(r1)
11545  0000a24c  afa10000	sw	(r29),r1
11546  0000a250  0fffda78	jal	_ProcessKill
11547  0000a254  54000000	nop; not filled.
11548  0000a258  08000910	j	L201_LF8
11549  0000a25c  54000000	nop; not filled.
11550  0000a260          	L132_LF8:
11551  0000a260  23bdfff8	addi	r29,r29,#-8
11552  0000a264  3c020000	lhi	r2,((_debugstr)>>16)&0xffff
11553  0000a268  2442ef7c	addui	r2,r2,(_debugstr)&0xffff
11554  0000a26c  afa20000	sw	(r29),r2
11555  0000a270  20070074	addi	r7,r0,#116
11556  0000a274  afa70004	sw	4(r29),r7
11557  0000a278  0fff9c74	jal	_dindex
11558  0000a27c  54000000	nop; not filled.
11559  0000a280  23bd0008	addi	r29,r29,#8
11560  0000a284  64210000	snei	r1,r1,#0
11561  0000a288  1420002c	bnez	r1,L134_LF8
11562  0000a28c  54000000	nop; not filled.
11563  0000a290  23bdfff8	addi	r29,r29,#-8
11564  0000a294  afa20000	sw	(r29),r2
11565  0000a298  2007002b	addi	r7,r0,#43
11566  0000a29c  afa70004	sw	4(r29),r7
11567  0000a2a0  0fff9c4c	jal	_dindex
11568  0000a2a4  54000000	nop; not filled.
11569  0000a2a8  23bd0008	addi	r29,r29,#8
11570  0000a2ac  64210000	snei	r1,r1,#0
11571  0000a2b0  102008bc	beqz	r1,L181_LF8
11572  0000a2b4  54000000	nop; not filled.
11573  0000a2b8          	L134_LF8:
11574  0000a2b8  23bdfff8	addi	r29,r29,#-8
11575  0000a2bc  3c070001	lhi	r7,((LC4_LF8)>>16)&0xffff
11576  0000a2c0  24e73ca4	addui	r7,r7,(LC4_LF8)&0xffff
11577  0000a2c4  afa70000	sw	(r29),r7
11578  0000a2c8  0c00122c	jal	_printf
11579  0000a2cc  54000000	nop; not filled.
11580  0000a2d0  08000898	j	L201_LF8
11581  0000a2d4  54000000	nop; not filled.
11582  0000a2d8          	L135_LF8:
11583  0000a2d8  23bdfff8	addi	r29,r29,#-8
11584  0000a2dc  3c020000	lhi	r2,((_debugstr)>>16)&0xffff
11585  0000a2e0  2442ef7c	addui	r2,r2,(_debugstr)&0xffff
11586  0000a2e4  afa20000	sw	(r29),r2
11587  0000a2e8  20070074	addi	r7,r0,#116
11588  0000a2ec  afa70004	sw	4(r29),r7
11589  0000a2f0  0fff9bfc	jal	_dindex
11590  0000a2f4  54000000	nop; not filled.
11591  0000a2f8  23bd0008	addi	r29,r29,#8
11592  0000a2fc  64210000	snei	r1,r1,#0
11593  0000a300  1420002c	bnez	r1,L137_LF8
11594  0000a304  54000000	nop; not filled.
11595  0000a308  23bdfff8	addi	r29,r29,#-8
11596  0000a30c  afa20000	sw	(r29),r2
11597  0000a310  2007002b	addi	r7,r0,#43
11598  0000a314  afa70004	sw	4(r29),r7
11599  0000a318  0fff9bd4	jal	_dindex
11600  0000a31c  54000000	nop; not filled.
11601  0000a320  23bd0008	addi	r29,r29,#8
11602  0000a324  64210000	snei	r1,r1,#0
11603  0000a328  10200020	beqz	r1,L136_LF8
11604  0000a32c  54000000	nop; not filled.
11605  0000a330          	L137_LF8:
11606  0000a330  23bdfff8	addi	r29,r29,#-8
11607  0000a334  3c070001	lhi	r7,((LC5_LF8)>>16)&0xffff
11608  0000a338  24e73cb8	addui	r7,r7,(LC5_LF8)&0xffff
11609  0000a33c  afa70000	sw	(r29),r7
11610  0000a340  0c0011b4	jal	_printf
11611  0000a344  54000000	nop; not filled.
11612  0000a348  23bd0008	addi	r29,r29,#8
11613  0000a34c          	L136_LF8:
11614  0000a34c  23bdfff8	addi	r29,r29,#-8
11615  0000a350  3c010000	lhi	r1,((_currentPCB)>>16)&0xffff
11616  0000a354  2421f044	addui	r1,r1,(_currentPCB)&0xffff
11617  0000a358  8c210000	lw	r1,(r1)
11618  0000a35c  afa10000	sw	(r29),r1
11619  0000a360  0fffadd0	jal	_ProcessSuspend
11620  0000a364  54000000	nop; not filled.
11621  0000a368  0fffa8e8	jal	_ProcessSchedule
11622  0000a36c  54000000	nop; not filled.
11623  0000a370  080007f8	j	L201_LF8
11624  0000a374  54000000	nop; not filled.
11625  0000a378          	L138_LF8:
11626  0000a378  23bdfff8	addi	r29,r29,#-8
11627  0000a37c  3c020000	lhi	r2,((_debugstr)>>16)&0xffff
11628  0000a380  2442ef7c	addui	r2,r2,(_debugstr)&0xffff
11629  0000a384  afa20000	sw	(r29),r2
11630  0000a388  20070074	addi	r7,r0,#116
11631  0000a38c  afa70004	sw	4(r29),r7
11632  0000a390  0fff9b5c	jal	_dindex
11633  0000a394  54000000	nop; not filled.
11634  0000a398  23bd0008	addi	r29,r29,#8
11635  0000a39c  64210000	snei	r1,r1,#0
11636  0000a3a0  1420002c	bnez	r1,L140_LF8
11637  0000a3a4  54000000	nop; not filled.
11638  0000a3a8  23bdfff8	addi	r29,r29,#-8
11639  0000a3ac  afa20000	sw	(r29),r2
11640  0000a3b0  2007002b	addi	r7,r0,#43
11641  0000a3b4  afa70004	sw	4(r29),r7
11642  0000a3b8  0fff9b34	jal	_dindex
11643  0000a3bc  54000000	nop; not filled.
11644  0000a3c0  23bd0008	addi	r29,r29,#8
11645  0000a3c4  64210000	snei	r1,r1,#0
11646  0000a3c8  10200020	beqz	r1,L139_LF8
11647  0000a3cc  54000000	nop; not filled.
11648  0000a3d0          	L140_LF8:
11649  0000a3d0  23bdfff8	addi	r29,r29,#-8
11650  0000a3d4  3c070001	lhi	r7,((LC6_LF8)>>16)&0xffff
11651  0000a3d8  24e73cd4	addui	r7,r7,(LC6_LF8)&0xffff
11652  0000a3dc  afa70000	sw	(r29),r7
11653  0000a3e0  0c001114	jal	_printf
11654  0000a3e4  54000000	nop; not filled.
11655  0000a3e8  23bd0008	addi	r29,r29,#8
11656  0000a3ec          	L139_LF8:
11657  0000a3ec  23bdfff8	addi	r29,r29,#-8
11658  0000a3f0  afa30000	sw	(r29),r3
11659  0000a3f4  30a10040	andi	r1,r5,#64
11660  0000a3f8  afa10004	sw	4(r29),r1
11661  0000a3fc  0ffff890	jal	_TrapPrintfHandler_LF8
11662  0000a400  54000000	nop; not filled.
11663  0000a404  08000764	j	L201_LF8
11664  0000a408  54000000	nop; not filled.
11665  0000a40c          	L141_LF8:
11666  0000a40c  30a10040	andi	r1,r5,#64
11667  0000a410  64210000	snei	r1,r1,#0
11668  0000a414  1020001c	beqz	r1,L142_LF8
11669  0000a418  54000000	nop; not filled.
11670  0000a41c  8c670000	lw	r7,(r3)
11671  0000a420  afc7ffe8	sw	-24(r30),r7
11672  0000a424  8c630004	lw	r3,4(r3)
11673  0000a428  afc3ffec	sw	-20(r30),r3
11674  0000a42c  0800006c	j	L143_LF8
11675  0000a430  54000000	nop; not filled.
11676  0000a434          	L142_LF8:
11677  0000a434  23bdfff0	addi	r29,r29,#-16
11678  0000a438  3c020000	lhi	r2,((_currentPCB)>>16)&0xffff
11679  0000a43c  2442f044	addui	r2,r2,(_currentPCB)&0xffff
11680  0000a440  8c470000	lw	r7,(r2)
11681  0000a444  afa70000	sw	(r29),r7
11682  0000a448  afa30004	sw	4(r29),r3
11683  0000a44c  23c1ffe8	addi	r1,r30,#-24
11684  0000a450  afa10008	sw	8(r29),r1
11685  0000a454  20070008	addi	r7,r0,#8
11686  0000a458  afa7000c	sw	12(r29),r7
11687  0000a45c  0fff91b0	jal	_MemoryCopyUserToSystem
11688  0000a460  54000000	nop; not filled.
11689  0000a464  8c420000	lw	r2,(r2)
11690  0000a468  afa20000	sw	(r29),r2
11691  0000a46c  8fc1ffe8	lw	r1,-24(r30)
11692  0000a470  afa10004	sw	4(r29),r1
11693  0000a474  23c2ffc8	addi	r2,r30,#-56
11694  0000a478  afa20008	sw	8(r29),r2
11695  0000a47c  2007001f	addi	r7,r0,#31
11696  0000a480  afa7000c	sw	12(r29),r7
11697  0000a484  0fff9188	jal	_MemoryCopyUserToSystem
11698  0000a488  54000000	nop; not filled.
11699  0000a48c  20070000	addi	r7,r0,(#0x0)&0xff
11700  0000a490  a3c7ffe7	sb	-25(r30),r7
11701  0000a494  afc2ffe8	sw	-24(r30),r2
11702  0000a498  23bd0010	addi	r29,r29,#16
11703  0000a49c          	L143_LF8:
11704  0000a49c  23bdfff8	addi	r29,r29,#-8
11705  0000a4a0  20070000	addi	r7,r0,#0
11706  0000a4a4  afa70000	sw	(r29),r7
11707  0000a4a8  0fff6ddc	jal	_SetIntrs
11708  0000a4ac  54000000	nop; not filled.
11709  0000a4b0  00011020	add	r2,r0,r1
11710  0000a4b4  23bd0008	addi	r29,r29,#8
11711  0000a4b8  23bdfff8	addi	r29,r29,#-8
11712  0000a4bc  3c010000	lhi	r1,((_currentPCB)>>16)&0xffff
11713  0000a4c0  2421f044	addui	r1,r1,(_currentPCB)&0xffff
11714  0000a4c4  8c210000	lw	r1,(r1)
11715  0000a4c8  afa10000	sw	(r29),r1
11716  0000a4cc  8fc1ffec	lw	r1,-20(r30)
11717  0000a4d0  3c070001	lhi	r7,#1
11718  0000a4d4  24e70000	addui	r7,r7,#0
11719  0000a4d8  00270820	add	r1,r1,r7
11720  0000a4dc  afa10004	sw	4(r29),r1
11721  0000a4e0  0fffa73c	jal	_ProcessSetResult
11722  0000a4e4  54000000	nop; not filled.
11723  0000a4e8  23bdfff8	addi	r29,r29,#-8
11724  0000a4ec  3c070001	lhi	r7,((LC7_LF8)>>16)&0xffff
11725  0000a4f0  24e73ce8	addui	r7,r7,(LC7_LF8)&0xffff
11726  0000a4f4  afa70000	sw	(r29),r7
11727  0000a4f8  8fc1ffe8	lw	r1,-24(r30)
11728  0000a4fc  afa10004	sw	4(r29),r1
11729  0000a500  8fc7ffec	lw	r7,-20(r30)
11730  0000a504  afa70008	sw	8(r29),r7
11731  0000a508  0c000fec	jal	_printf
11732  0000a50c  54000000	nop; not filled.
11733  0000a510  23bd0010	addi	r29,r29,#16
11734  0000a514  23bdfff8	addi	r29,r29,#-8
11735  0000a518  afa20000	sw	(r29),r2
11736  0000a51c  0fff6d68	jal	_SetIntrs
11737  0000a520  54000000	nop; not filled.
11738  0000a524  08000644	j	L201_LF8
11739  0000a528  54000000	nop; not filled.
11740  0000a52c          	L146_LF8:
11741  0000a52c  23bdfff8	addi	r29,r29,#-8
11742  0000a530  20070000	addi	r7,r0,#0
11743  0000a534  afa70000	sw	(r29),r7
11744  0000a538  0fff6d4c	jal	_SetIntrs
11745  0000a53c  54000000	nop; not filled.
11746  0000a540  00011020	add	r2,r0,r1
11747  0000a544  23bd0008	addi	r29,r29,#8
11748  0000a548  23bdfff8	addi	r29,r29,#-8
11749  0000a54c  3c010000	lhi	r1,((_currentPCB)>>16)&0xffff
11750  0000a550  2421f044	addui	r1,r1,(_currentPCB)&0xffff
11751  0000a554  8c210000	lw	r1,(r1)
11752  0000a558  afa10000	sw	(r29),r1
11753  0000a55c  2007ffff	addi	r7,r0,#-1
11754  0000a560  afa70004	sw	4(r29),r7
11755  0000a564  0fffa6b8	jal	_ProcessSetResult
11756  0000a568  54000000	nop; not filled.
11757  0000a56c  23bd0008	addi	r29,r29,#8
11758  0000a570  23bdfff8	addi	r29,r29,#-8
11759  0000a574  afa20000	sw	(r29),r2
11760  0000a578  0fff6d0c	jal	_SetIntrs
11761  0000a57c  54000000	nop; not filled.
11762  0000a580  080005e8	j	L201_LF8
11763  0000a584  54000000	nop; not filled.
11764  0000a588          	L149_LF8:
11765  0000a588  23bdfff8	addi	r29,r29,#-8
11766  0000a58c  20070000	addi	r7,r0,#0
11767  0000a590  afa70000	sw	(r29),r7
11768  0000a594  0fff6cf0	jal	_SetIntrs
11769  0000a598  54000000	nop; not filled.
11770  0000a59c  00011020	add	r2,r0,r1
11771  0000a5a0  23bd0008	addi	r29,r29,#8
11772  0000a5a4  23bdfff8	addi	r29,r29,#-8
11773  0000a5a8  3c010000	lhi	r1,((_currentPCB)>>16)&0xffff
11774  0000a5ac  2421f044	addui	r1,r1,(_currentPCB)&0xffff
11775  0000a5b0  8c210000	lw	r1,(r1)
11776  0000a5b4  afa10000	sw	(r29),r1
11777  0000a5b8  2007ffff	addi	r7,r0,#-1
11778  0000a5bc  afa70004	sw	4(r29),r7
11779  0000a5c0  0fffa65c	jal	_ProcessSetResult
11780  0000a5c4  54000000	nop; not filled.
11781  0000a5c8  23bd0008	addi	r29,r29,#8
11782  0000a5cc  23bdfff8	addi	r29,r29,#-8
11783  0000a5d0  afa20000	sw	(r29),r2
11784  0000a5d4  0fff6cb0	jal	_SetIntrs
11785  0000a5d8  54000000	nop; not filled.
11786  0000a5dc  0800058c	j	L201_LF8
11787  0000a5e0  54000000	nop; not filled.
11788  0000a5e4          	L152_LF8:
11789  0000a5e4  23bdfff8	addi	r29,r29,#-8
11790  0000a5e8  20070000	addi	r7,r0,#0
11791  0000a5ec  afa70000	sw	(r29),r7
11792  0000a5f0  0fff6c94	jal	_SetIntrs
11793  0000a5f4  54000000	nop; not filled.
11794  0000a5f8  00011020	add	r2,r0,r1
11795  0000a5fc  23bd0008	addi	r29,r29,#8
11796  0000a600  23bdfff8	addi	r29,r29,#-8
11797  0000a604  3c010000	lhi	r1,((_currentPCB)>>16)&0xffff
11798  0000a608  2421f044	addui	r1,r1,(_currentPCB)&0xffff
11799  0000a60c  8c210000	lw	r1,(r1)
11800  0000a610  afa10000	sw	(r29),r1
11801  0000a614  2007ffff	addi	r7,r0,#-1
11802  0000a618  afa70004	sw	4(r29),r7
11803  0000a61c  0fffa600	jal	_ProcessSetResult
11804  0000a620  54000000	nop; not filled.
11805  0000a624  23bd0008	addi	r29,r29,#8
11806  0000a628  23bdfff8	addi	r29,r29,#-8
11807  0000a62c  afa20000	sw	(r29),r2
11808  0000a630  0fff6c54	jal	_SetIntrs
11809  0000a634  54000000	nop; not filled.
11810  0000a638  08000530	j	L201_LF8
11811  0000a63c  54000000	nop; not filled.
11812  0000a640          	L155_LF8:
11813  0000a640  23bdfff8	addi	r29,r29,#-8
11814  0000a644  20070000	addi	r7,r0,#0
11815  0000a648  afa70000	sw	(r29),r7
11816  0000a64c  0fff6c38	jal	_SetIntrs
11817  0000a650  54000000	nop; not filled.
11818  0000a654  00011020	add	r2,r0,r1
11819  0000a658  23bd0008	addi	r29,r29,#8
11820  0000a65c  23bdfff8	addi	r29,r29,#-8
11821  0000a660  3c010000	lhi	r1,((_currentPCB)>>16)&0xffff
11822  0000a664  2421f044	addui	r1,r1,(_currentPCB)&0xffff
11823  0000a668  8c210000	lw	r1,(r1)
11824  0000a66c  afa10000	sw	(r29),r1
11825  0000a670  2007ffff	addi	r7,r0,#-1
11826  0000a674  afa70004	sw	4(r29),r7
11827  0000a678  0fffa5a4	jal	_ProcessSetResult
11828  0000a67c  54000000	nop; not filled.
11829  0000a680  23bd0008	addi	r29,r29,#8
11830  0000a684  23bdfff8	addi	r29,r29,#-8
11831  0000a688  afa20000	sw	(r29),r2
11832  0000a68c  0fff6bf8	jal	_SetIntrs
11833  0000a690  54000000	nop; not filled.
11834  0000a694  080004d4	j	L201_LF8
11835  0000a698  54000000	nop; not filled.
11836  0000a69c          	L158_LF8:
11837  0000a69c  23bdfff8	addi	r29,r29,#-8
11838  0000a6a0  20070000	addi	r7,r0,#0
11839  0000a6a4  afa70000	sw	(r29),r7
11840  0000a6a8  0fff6bdc	jal	_SetIntrs
11841  0000a6ac  54000000	nop; not filled.
11842  0000a6b0  00011020	add	r2,r0,r1
11843  0000a6b4  23bd0008	addi	r29,r29,#8
11844  0000a6b8  23bdfff8	addi	r29,r29,#-8
11845  0000a6bc  3c010000	lhi	r1,((_currentPCB)>>16)&0xffff
11846  0000a6c0  2421f044	addui	r1,r1,(_currentPCB)&0xffff
11847  0000a6c4  8c210000	lw	r1,(r1)
11848  0000a6c8  afa10000	sw	(r29),r1
11849  0000a6cc  2007ffff	addi	r7,r0,#-1
11850  0000a6d0  afa70004	sw	4(r29),r7
11851  0000a6d4  0fffa548	jal	_ProcessSetResult
11852  0000a6d8  54000000	nop; not filled.
11853  0000a6dc  23bd0008	addi	r29,r29,#8
11854  0000a6e0  23bdfff8	addi	r29,r29,#-8
11855  0000a6e4  afa20000	sw	(r29),r2
11856  0000a6e8  0fff6b9c	jal	_SetIntrs
11857  0000a6ec  54000000	nop; not filled.
11858  0000a6f0  08000478	j	L201_LF8
11859  0000a6f4  54000000	nop; not filled.
11860  0000a6f8          	L161_LF8:
11861  0000a6f8  0fffd418	jal	_GetCurrentPid
11862  0000a6fc  54000000	nop; not filled.
11863  0000a700  00011020	add	r2,r0,r1
11864  0000a704  23bdfff8	addi	r29,r29,#-8
11865  0000a708  3c010000	lhi	r1,((_currentPCB)>>16)&0xffff
11866  0000a70c  2421f044	addui	r1,r1,(_currentPCB)&0xffff
11867  0000a710  8c210000	lw	r1,(r1)
11868  0000a714  afa10000	sw	(r29),r1
11869  0000a718  afa20004	sw	4(r29),r2
11870  0000a71c  0fffa500	jal	_ProcessSetResult
11871  0000a720  54000000	nop; not filled.
11872  0000a724  08000444	j	L201_LF8
11873  0000a728  54000000	nop; not filled.
11874  0000a72c          	L162_LF8:
11875  0000a72c  23bdfff8	addi	r29,r29,#-8
11876  0000a730  afa30000	sw	(r29),r3
11877  0000a734  30a10040	andi	r1,r5,#64
11878  0000a738  afa10004	sw	4(r29),r1
11879  0000a73c  0ffff21c	jal	_TrapProcessCreateHandler_LF8
11880  0000a740  54000000	nop; not filled.
11881  0000a744  08000424	j	L201_LF8
11882  0000a748  54000000	nop; not filled.
11883  0000a74c          	L163_LF8:
11884  0000a74c  30a10040	andi	r1,r5,#64
11885  0000a750  64210000	snei	r1,r1,#0
11886  0000a754  1420003c	bnez	r1,L165_LF8
11887  0000a758  54000000	nop; not filled.
11888  0000a75c  23bdfff0	addi	r29,r29,#-16
11889  0000a760  3c010000	lhi	r1,((_currentPCB)>>16)&0xffff
11890  0000a764  2421f044	addui	r1,r1,(_currentPCB)&0xffff
11891  0000a768  8c210000	lw	r1,(r1)
11892  0000a76c  afa10000	sw	(r29),r1
11893  0000a770  afa30004	sw	4(r29),r3
11894  0000a774  23c1ffc4	addi	r1,r30,#-60
11895  0000a778  afa10008	sw	8(r29),r1
11896  0000a77c  20070004	addi	r7,r0,#4
11897  0000a780  afa7000c	sw	12(r29),r7
11898  0000a784  0fff8e88	jal	_MemoryCopyUserToSystem
11899  0000a788  54000000	nop; not filled.
11900  0000a78c  08000024	j	L202_LF8
11901  0000a790  54000000	nop; not filled.
11902  0000a794          	L165_LF8:
11903  0000a794  23bdfff0	addi	r29,r29,#-16
11904  0000a798  afa30000	sw	(r29),r3
11905  0000a79c  23c1ffc4	addi	r1,r30,#-60
11906  0000a7a0  afa10004	sw	4(r29),r1
11907  0000a7a4  20070004	addi	r7,r0,#4
11908  0000a7a8  afa70008	sw	8(r29),r7
11909  0000a7ac  0fff9ad0	jal	_bcopy
11910  0000a7b0  54000000	nop; not filled.
11911  0000a7b4          	L202_LF8:
11912  0000a7b4  23bd0010	addi	r29,r29,#16
11913  0000a7b8  23bdfff8	addi	r29,r29,#-8
11914  0000a7bc  8fc7ffc4	lw	r7,-60(r30)
11915  0000a7c0  afa70000	sw	(r29),r7
11916  0000a7c4  0fffe5ec	jal	_SemCreate
11917  0000a7c8  54000000	nop; not filled.
11918  0000a7cc  00011020	add	r2,r0,r1
11919  0000a7d0  3c010000	lhi	r1,((_currentPCB)>>16)&0xffff
11920  0000a7d4  2421f044	addui	r1,r1,(_currentPCB)&0xffff
11921  0000a7d8  8c210000	lw	r1,(r1)
11922  0000a7dc  afa10000	sw	(r29),r1
11923  0000a7e0  afa20004	sw	4(r29),r2
11924  0000a7e4  0fffa438	jal	_ProcessSetResult
11925  0000a7e8  54000000	nop; not filled.
11926  0000a7ec  0800037c	j	L201_LF8
11927  0000a7f0  54000000	nop; not filled.
11928  0000a7f4          	L167_LF8:
11929  0000a7f4  30a10040	andi	r1,r5,#64
11930  0000a7f8  64210000	snei	r1,r1,#0
11931  0000a7fc  1420003c	bnez	r1,L169_LF8
11932  0000a800  54000000	nop; not filled.
11933  0000a804  23bdfff0	addi	r29,r29,#-16
11934  0000a808  3c010000	lhi	r1,((_currentPCB)>>16)&0xffff
11935  0000a80c  2421f044	addui	r1,r1,(_currentPCB)&0xffff
11936  0000a810  8c210000	lw	r1,(r1)
11937  0000a814  afa10000	sw	(r29),r1
11938  0000a818  afa30004	sw	4(r29),r3
11939  0000a81c  23c1ffc4	addi	r1,r30,#-60
11940  0000a820  afa10008	sw	8(r29),r1
11941  0000a824  20070004	addi	r7,r0,#4
11942  0000a828  afa7000c	sw	12(r29),r7
11943  0000a82c  0fff8de0	jal	_MemoryCopyUserToSystem
11944  0000a830  54000000	nop; not filled.
11945  0000a834  08000024	j	L203_LF8
11946  0000a838  54000000	nop; not filled.
11947  0000a83c          	L169_LF8:
11948  0000a83c  23bdfff0	addi	r29,r29,#-16
11949  0000a840  afa30000	sw	(r29),r3
11950  0000a844  23c1ffc4	addi	r1,r30,#-60
11951  0000a848  afa10004	sw	4(r29),r1
11952  0000a84c  20070004	addi	r7,r0,#4
11953  0000a850  afa70008	sw	8(r29),r7
11954  0000a854  0fff9a28	jal	_bcopy
11955  0000a858  54000000	nop; not filled.
11956  0000a85c          	L203_LF8:
11957  0000a85c  23bd0010	addi	r29,r29,#16
11958  0000a860  23bdfff8	addi	r29,r29,#-8
11959  0000a864  8fc7ffc4	lw	r7,-60(r30)
11960  0000a868  afa70000	sw	(r29),r7
11961  0000a86c  0fffe8c8	jal	_SemHandleWait
11962  0000a870  54000000	nop; not filled.
11963  0000a874  00011020	add	r2,r0,r1
11964  0000a878  3c010000	lhi	r1,((_currentPCB)>>16)&0xffff
11965  0000a87c  2421f044	addui	r1,r1,(_currentPCB)&0xffff
11966  0000a880  8c210000	lw	r1,(r1)
11967  0000a884  afa10000	sw	(r29),r1
11968  0000a888  afa20004	sw	4(r29),r2
11969  0000a88c  0fffa390	jal	_ProcessSetResult
11970  0000a890  54000000	nop; not filled.
11971  0000a894  080002d4	j	L201_LF8
11972  0000a898  54000000	nop; not filled.
11973  0000a89c          	L171_LF8:
11974  0000a89c  30a10040	andi	r1,r5,#64
11975  0000a8a0  64210000	snei	r1,r1,#0
11976  0000a8a4  1420003c	bnez	r1,L173_LF8
11977  0000a8a8  54000000	nop; not filled.
11978  0000a8ac  23bdfff0	addi	r29,r29,#-16
11979  0000a8b0  3c010000	lhi	r1,((_currentPCB)>>16)&0xffff
11980  0000a8b4  2421f044	addui	r1,r1,(_currentPCB)&0xffff
11981  0000a8b8  8c210000	lw	r1,(r1)
11982  0000a8bc  afa10000	sw	(r29),r1
11983  0000a8c0  afa30004	sw	4(r29),r3
11984  0000a8c4  23c1ffc4	addi	r1,r30,#-60
11985  0000a8c8  afa10008	sw	8(r29),r1
11986  0000a8cc  20070004	addi	r7,r0,#4
11987  0000a8d0  afa7000c	sw	12(r29),r7
11988  0000a8d4  0fff8d38	jal	_MemoryCopyUserToSystem
11989  0000a8d8  54000000	nop; not filled.
11990  0000a8dc  08000024	j	L204_LF8
11991  0000a8e0  54000000	nop; not filled.
11992  0000a8e4          	L173_LF8:
11993  0000a8e4  23bdfff0	addi	r29,r29,#-16
11994  0000a8e8  afa30000	sw	(r29),r3
11995  0000a8ec  23c1ffc4	addi	r1,r30,#-60
11996  0000a8f0  afa10004	sw	4(r29),r1
11997  0000a8f4  20070004	addi	r7,r0,#4
11998  0000a8f8  afa70008	sw	8(r29),r7
11999  0000a8fc  0fff9980	jal	_bcopy
12000  0000a900  54000000	nop; not filled.
12001  0000a904          	L204_LF8:
12002  0000a904  23bd0010	addi	r29,r29,#16
12003  0000a908  23bdfff8	addi	r29,r29,#-8
12004  0000a90c  8fc7ffc4	lw	r7,-60(r30)
12005  0000a910  afa70000	sw	(r29),r7
12006  0000a914  0fffeaac	jal	_SemHandleSignal
12007  0000a918  54000000	nop; not filled.
12008  0000a91c  00011020	add	r2,r0,r1
12009  0000a920  3c010000	lhi	r1,((_currentPCB)>>16)&0xffff
12010  0000a924  2421f044	addui	r1,r1,(_currentPCB)&0xffff
12011  0000a928  8c210000	lw	r1,(r1)
12012  0000a92c  afa10000	sw	(r29),r1
12013  0000a930  afa20004	sw	4(r29),r2
12014  0000a934  0fffa2e8	jal	_ProcessSetResult
12015  0000a938  54000000	nop; not filled.
12016  0000a93c  0800022c	j	L201_LF8
12017  0000a940  54000000	nop; not filled.
12018  0000a944          	L175_LF8:
12019  0000a944  23bdfff8	addi	r29,r29,#-8
12020  0000a948  3c070001	lhi	r7,((LC8_LF8)>>16)&0xffff
12021  0000a94c  24e73d14	addui	r7,r7,(LC8_LF8)&0xffff
12022  0000a950  08000200	j	L205_LF8
12023  0000a954  54000000	nop; not filled.
12024  0000a958          	L124_LF8:
12025  0000a958  60410003	seqi	r1,r2,#3
12026  0000a95c  14200148	bnez	r1,L191_LF8
12027  0000a960  54000000	nop; not filled.
12028  0000a964  6c410003	sgtui	r1,r2,#3
12029  0000a968  14200024	bnez	r1,L197_LF8
12030  0000a96c  54000000	nop; not filled.
12031  0000a970  60410001	seqi	r1,r2,#1
12032  0000a974  1420018c	bnez	r1,L193_LF8
12033  0000a978  54000000	nop; not filled.
12034  0000a97c  60410002	seqi	r1,r2,#2
12035  0000a980  102001c4	beqz	r1,L195_LF8
12036  0000a984  54000000	nop; not filled.
12037  0000a988  08000154	j	L192_LF8
12038  0000a98c  54000000	nop; not filled.
12039  0000a990          	L197_LF8:
12040  0000a990  60410040	seqi	r1,r2,#64
12041  0000a994  14200038	bnez	r1,L183_LF8
12042  0000a998  54000000	nop; not filled.
12043  0000a99c  6c410040	sgtui	r1,r2,#64
12044  0000a9a0  14200018	bnez	r1,L198_LF8
12045  0000a9a4  54000000	nop; not filled.
12046  0000a9a8  60410020	seqi	r1,r2,#32
12047  0000a9ac  10200198	beqz	r1,L195_LF8
12048  0000a9b0  54000000	nop; not filled.
12049  0000a9b4  08000180	j	L194_LF8
12050  0000a9b8  54000000	nop; not filled.
12051  0000a9bc          	L198_LF8:
12052  0000a9bc  60410048	seqi	r1,r2,#72
12053  0000a9c0  10200184	beqz	r1,L195_LF8
12054  0000a9c4  54000000	nop; not filled.
12055  0000a9c8  08000088	j	L186_LF8
12056  0000a9cc  54000000	nop; not filled.
12057  0000a9d0          	L183_LF8:
12058  0000a9d0  23bdfff8	addi	r29,r29,#-8
12059  0000a9d4  3c020000	lhi	r2,((_debugstr)>>16)&0xffff
12060  0000a9d8  2442ef7c	addui	r2,r2,(_debugstr)&0xffff
12061  0000a9dc  afa20000	sw	(r29),r2
12062  0000a9e0  20070074	addi	r7,r0,#116
12063  0000a9e4  afa70004	sw	4(r29),r7
12064  0000a9e8  0fff9504	jal	_dindex
12065  0000a9ec  54000000	nop; not filled.
12066  0000a9f0  23bd0008	addi	r29,r29,#8
12067  0000a9f4  64210000	snei	r1,r1,#0
12068  0000a9f8  1420002c	bnez	r1,L185_LF8
12069  0000a9fc  54000000	nop; not filled.
12070  0000aa00  23bdfff8	addi	r29,r29,#-8
12071  0000aa04  afa20000	sw	(r29),r2
12072  0000aa08  2007002b	addi	r7,r0,#43
12073  0000aa0c  afa70004	sw	4(r29),r7
12074  0000aa10  0fff94dc	jal	_dindex
12075  0000aa14  54000000	nop; not filled.
12076  0000aa18  23bd0008	addi	r29,r29,#8
12077  0000aa1c  64210000	snei	r1,r1,#0
12078  0000aa20  10200020	beqz	r1,L184_LF8
12079  0000aa24  54000000	nop; not filled.
12080  0000aa28          	L185_LF8:
12081  0000aa28  23bdfff8	addi	r29,r29,#-8
12082  0000aa2c  3c070001	lhi	r7,((LC9_LF8)>>16)&0xffff
12083  0000aa30  24e73d40	addui	r7,r7,(LC9_LF8)&0xffff
12084  0000aa34          	L206_LF8:
12085  0000aa34  afa70000	sw	(r29),r7
12086  0000aa38  0c000abc	jal	_printf
12087  0000aa3c  54000000	nop; not filled.
12088  0000aa40  23bd0008	addi	r29,r29,#8
12089  0000aa44          	L184_LF8:
12090  0000aa44  0fffa20c	jal	_ProcessSchedule
12091  0000aa48  54000000	nop; not filled.
12092  0000aa4c  08000120	j	L181_LF8
12093  0000aa50  54000000	nop; not filled.
12094  0000aa54          	L186_LF8:
12095  0000aa54  3c04fff0	lhi	r4,#-16
12096  0000aa58  248401a0	addui	r4,r4,#416
12097  0000aa5c  3c03fff0	lhi	r3,#-16
12098  0000aa60  24630180	addui	r3,r3,#384
12099  0000aa64          	L187_LF8:
12100  0000aa64  8c820000	lw	r2,(r4)
12101  0000aa68  8c610000	lw	r1,(r3)
12102  0000aa6c  23bdfff0	addi	r29,r29,#-16
12103  0000aa70  3c070001	lhi	r7,((LC10_LF8)>>16)&0xffff
12104  0000aa74  24e73d58	addui	r7,r7,(LC10_LF8)&0xffff
12105  0000aa78  afa70000	sw	(r29),r7
12106  0000aa7c  afa10004	sw	4(r29),r1
12107  0000aa80  afa10008	sw	8(r29),r1
12108  0000aa84  afa2000c	sw	12(r29),r2
12109  0000aa88  0c000a6c	jal	_printf
12110  0000aa8c  54000000	nop; not filled.
12111  0000aa90  23bd0010	addi	r29,r29,#16
12112  0000aa94  6c410001	sgti	r1,r2,#1
12113  0000aa98  102000d4	beqz	r1,L181_LF8
12114  0000aa9c  54000000	nop; not filled.
12115  0000aaa0  0bffffc0	j	L187_LF8
12116  0000aaa4  54000000	nop; not filled.
12117  0000aaa8          	L191_LF8:
12118  0000aaa8  23bdfff8	addi	r29,r29,#-8
12119  0000aaac  3c070001	lhi	r7,((LC11_LF8)>>16)&0xffff
12120  0000aab0  24e73d90	addui	r7,r7,(LC11_LF8)&0xffff
12121  0000aab4  afa70000	sw	(r29),r7
12122  0000aab8  0c000a3c	jal	_printf
12123  0000aabc  54000000	nop; not filled.
12124  0000aac0  3c010000	lhi	r1,((_currentPCB)>>16)&0xffff
12125  0000aac4  2421f044	addui	r1,r1,(_currentPCB)&0xffff
12126  0000aac8  8c210000	lw	r1,(r1)
12127  0000aacc  afa10000	sw	(r29),r1
12128  0000aad0  0fffd1f8	jal	_ProcessKill
12129  0000aad4  54000000	nop; not filled.
12130  0000aad8  08000090	j	L201_LF8
12131  0000aadc  54000000	nop; not filled.
12132  0000aae0          	L192_LF8:
12133  0000aae0  23bdfff8	addi	r29,r29,#-8
12134  0000aae4  3c010000	lhi	r1,((_currentPCB)>>16)&0xffff
12135  0000aae8  2421f044	addui	r1,r1,(_currentPCB)&0xffff
12136  0000aaec  8c210000	lw	r1,(r1)
12137  0000aaf0  afa10000	sw	(r29),r1
12138  0000aaf4  0fffa964	jal	_ProcessDestroy
12139  0000aaf8  54000000	nop; not filled.
12140  0000aafc  0800006c	j	L201_LF8
12141  0000ab00  54000000	nop; not filled.
12142  0000ab04          	L193_LF8:
12143  0000ab04  23bdfff0	addi	r29,r29,#-16
12144  0000ab08  3c070001	lhi	r7,((LC12_LF8)>>16)&0xffff
12145  0000ab0c  24e73da8	addui	r7,r7,(LC12_LF8)&0xffff
12146  0000ab10  afa70000	sw	(r29),r7
12147  0000ab14  afa60004	sw	4(r29),r6
12148  0000ab18  afa50008	sw	8(r29),r5
12149  0000ab1c  0c0009d8	jal	_printf
12150  0000ab20  54000000	nop; not filled.
12151  0000ab24  0c0009b8	jal	_exitsim
12152  0000ab28  54000000	nop; not filled.
12153  0000ab2c  23bd0010	addi	r29,r29,#16
12154  0000ab30  0800003c	j	L181_LF8
12155  0000ab34  54000000	nop; not filled.
12156  0000ab38          	L194_LF8:
12157  0000ab38  0fffd31c	jal	_PageFaultHandler
12158  0000ab3c  54000000	nop; not filled.
12159  0000ab40  0800002c	j	L181_LF8
12160  0000ab44  54000000	nop; not filled.
12161  0000ab48          	L195_LF8:
12162  0000ab48  23bdfff8	addi	r29,r29,#-8
12163  0000ab4c  3c070001	lhi	r7,((LC13_LF8)>>16)&0xffff
12164  0000ab50  24e73de4	addui	r7,r7,(LC13_LF8)&0xffff
12165  0000ab54          	L205_LF8:
12166  0000ab54  afa70000	sw	(r29),r7
12167  0000ab58  afa20004	sw	4(r29),r2
12168  0000ab5c  0c000998	jal	_printf
12169  0000ab60  54000000	nop; not filled.
12170  0000ab64  0c000978	jal	_exitsim
12171  0000ab68  54000000	nop; not filled.
12172  0000ab6c          	L201_LF8:
12173  0000ab6c  23bd0008	addi	r29,r29,#8
12174  0000ab70          	L181_LF8:
12175  0000ab70  23bdfff8	addi	r29,r29,#-8
12176  0000ab74  3c020000	lhi	r2,((_debugstr)>>16)&0xffff
12177  0000ab78  2442ef7c	addui	r2,r2,(_debugstr)&0xffff
12178  0000ab7c  afa20000	sw	(r29),r2
12179  0000ab80  20070074	addi	r7,r0,#116
12180  0000ab84  afa70004	sw	4(r29),r7
12181  0000ab88  0fff9364	jal	_dindex
12182  0000ab8c  54000000	nop; not filled.
12183  0000ab90  23bd0008	addi	r29,r29,#8
12184  0000ab94  64210000	snei	r1,r1,#0
12185  0000ab98  1420002c	bnez	r1,L200_LF8
12186  0000ab9c  54000000	nop; not filled.
12187  0000aba0  23bdfff8	addi	r29,r29,#-8
12188  0000aba4  afa20000	sw	(r29),r2
12189  0000aba8  2007002b	addi	r7,r0,#43
12190  0000abac  afa70004	sw	4(r29),r7
12191  0000abb0  0fff933c	jal	_dindex
12192  0000abb4  54000000	nop; not filled.
12193  0000abb8  23bd0008	addi	r29,r29,#8
12194  0000abbc  64210000	snei	r1,r1,#0
12195  0000abc0  10200020	beqz	r1,L199_LF8
12196  0000abc4  54000000	nop; not filled.
12197  0000abc8          	L200_LF8:
12198  0000abc8  23bdfff8	addi	r29,r29,#-8
12199  0000abcc  3c070001	lhi	r7,((LC14_LF8)>>16)&0xffff
12200  0000abd0  24e73e1c	addui	r7,r7,(LC14_LF8)&0xffff
12201  0000abd4  afa70000	sw	(r29),r7
12202  0000abd8  0c00091c	jal	_printf
12203  0000abdc  54000000	nop; not filled.
12204  0000abe0  23bd0008	addi	r29,r29,#8
12205  0000abe4          	L199_LF8:
12206  0000abe4  0fff6580	jal	_intrreturn
12207  0000abe8  54000000	nop; not filled.
12208  0000abec  8fa20000	lw	r2,0(r29)
12209  0000abf0  8fa30004	lw	r3,4(r29)
12210  0000abf4  8fa40008	lw	r4,8(r29)
12211  0000abf8  8fa5000c	lw	r5,12(r29)
12212  0000abfc  8fa60010	lw	r6,16(r29)
12213  0000ac00  8fa70014	lw	r7,20(r29)
12214  0000ac04  8fdffff8	lw	r31,-8(r30)
12215  0000ac08  001ee820	add	r29,r0,r30
12216  0000ac0c  8fdefffc	lw	r30,-4(r30)
12217  0000ac10  4be00000	jr	r31
12218  0000ac14  54000000	nop
12219  0000ac18          	.endproc _dointerrupt
12220                      ; Compiled by GCC
12222  0000ac18          	.align 2
12223  0000ac18          	.proc _isspace
12224  0000ac18          	.global _isspace
12225  0000ac18          	_isspace:
12226                      ;  Function 'isspace'; 0 bytes of locals, 1 regs to save.
12227  0000ac18  afbefffc	sw	-4(r29),r30; push fp
12228  0000ac1c  001df020	add	r30,r0,r29; fp = sp
12229  0000ac20  afbffff8	sw	-8(r29),r31; push ret addr
12230  0000ac24  2fbd0010	subui	r29,r29,#16; alloc local storage
12231  0000ac28  afa20000	sw	0(r29),r2
12232  0000ac2c  83c20003	lb	r2,3(r30)
12233  0000ac30  201f0000	addi	r31,r0,#0
12234  0000ac34  304100ff	andi	r1,r2,#0x00ff
12235  0000ac38  60210020	seqi	r1,r1,#32
12236  0000ac3c  14200018	bnez	r1,L6_LF9
12237  0000ac40  54000000	nop; not filled.
12238  0000ac44  2041fff7	addi	r1,r2,#-9
12239  0000ac48  302100ff	andi	r1,r1,#0x00ff
12240  0000ac4c  70210001	sleui	r1,r1,#1
12241  0000ac50  10200008	beqz	r1,L5_LF9
12242  0000ac54  54000000	nop; not filled.
12243  0000ac58          	L6_LF9:
12244  0000ac58  201f0001	addi	r31,r0,#1
12245  0000ac5c          	L5_LF9:
12246  0000ac5c  001f0820	add	r1,r0,r31
12247  0000ac60  8fa20000	lw	r2,0(r29)
12248  0000ac64  8fdffff8	lw	r31,-8(r30)
12249  0000ac68  001ee820	add	r29,r0,r30
12250  0000ac6c  8fdefffc	lw	r30,-4(r30)
12251  0000ac70  4be00000	jr	r31
12252  0000ac74  54000000	nop
12253  0000ac78          	.endproc _isspace
12254  0000ac78          	.align 2
12255  0000ac78          	.proc _isxdigit
12256  0000ac78          	.global _isxdigit
12257  0000ac78          	_isxdigit:
12258                      ;  Function 'isxdigit'; 0 bytes of locals, 1 regs to save.
12259  0000ac78  afbefffc	sw	-4(r29),r30; push fp
12260  0000ac7c  001df020	add	r30,r0,r29; fp = sp
12261  0000ac80  afbffff8	sw	-8(r29),r31; push ret addr
12262  0000ac84  2fbd0010	subui	r29,r29,#16; alloc local storage
12263  0000ac88  afa20000	sw	0(r29),r2
12264  0000ac8c  83df0003	lb	r31,3(r30)
12265  0000ac90  20020000	addi	r2,r0,#0
12266  0000ac94  23e1ffd0	addi	r1,r31,#-48
12267  0000ac98  302100ff	andi	r1,r1,#0x00ff
12268  0000ac9c  70210009	sleui	r1,r1,#9
12269  0000aca0  14200028	bnez	r1,L12_LF9
12270  0000aca4  54000000	nop; not filled.
12271  0000aca8  23e1ff9f	addi	r1,r31,#-97
12272  0000acac  302100ff	andi	r1,r1,#0x00ff
12273  0000acb0  70210005	sleui	r1,r1,#5
12274  0000acb4  14200014	bnez	r1,L12_LF9
12275  0000acb8  54000000	nop; not filled.
12276  0000acbc  33e100ff	andi	r1,r31,#0x00ff
12277  0000acc0  64210041	snei	r1,r1,#65
12278  0000acc4  14200008	bnez	r1,L11_LF9
12279  0000acc8  54000000	nop; not filled.
12280  0000accc          	L12_LF9:
12281  0000accc  20020001	addi	r2,r0,#1
12282  0000acd0          	L11_LF9:
12283  0000acd0  00020820	add	r1,r0,r2
12284  0000acd4  8fa20000	lw	r2,0(r29)
12285  0000acd8  8fdffff8	lw	r31,-8(r30)
12286  0000acdc  001ee820	add	r29,r0,r30
12287  0000ace0  8fdefffc	lw	r30,-4(r30)
12288  0000ace4  4be00000	jr	r31
12289  0000ace8  54000000	nop
12290  0000acec          	.endproc _isxdigit
12291  0000acec          	.align 2
12292  0000acec          	.proc _DisableIntrs
12293  0000acec          	.global _DisableIntrs
12294  0000acec          	_DisableIntrs:
12295                      ;  Function 'DisableIntrs'; 0 bytes of locals, 1 regs to save.
12296  0000acec  afbefffc	sw	-4(r29),r30; push fp
12297  0000acf0  001df020	add	r30,r0,r29; fp = sp
12298  0000acf4  afbffff8	sw	-8(r29),r31; push ret addr
12299  0000acf8  2fbd0010	subui	r29,r29,#16; alloc local storage
12300  0000acfc  afa20000	sw	0(r29),r2
12301  0000ad00  23bdfff8	addi	r29,r29,#-8
12302  0000ad04  2002000f	addi	r2,r0,#15
12303  0000ad08  afa20000	sw	(r29),r2
12304  0000ad0c  0fff6578	jal	_SetIntrs
12305  0000ad10  54000000	nop; not filled.
12306  0000ad14  23bd0008	addi	r29,r29,#8
12307  0000ad18  8fa20000	lw	r2,0(r29)
12308  0000ad1c  8fdffff8	lw	r31,-8(r30)
12309  0000ad20  001ee820	add	r29,r0,r30
12310  0000ad24  8fdefffc	lw	r30,-4(r30)
12311  0000ad28  4be00000	jr	r31
12312  0000ad2c  54000000	nop
12313  0000ad30          	.endproc _DisableIntrs
12314  0000ad30          	.align 2
12315  0000ad30          	.proc _EnableIntrs
12316  0000ad30          	.global _EnableIntrs
12317  0000ad30          	_EnableIntrs:
12318                      ;  Function 'EnableIntrs'; 0 bytes of locals, 1 regs to save.
12319  0000ad30  afbefffc	sw	-4(r29),r30; push fp
12320  0000ad34  001df020	add	r30,r0,r29; fp = sp
12321  0000ad38  afbffff8	sw	-8(r29),r31; push ret addr
12322  0000ad3c  2fbd0010	subui	r29,r29,#16; alloc local storage
12323  0000ad40  afa20000	sw	0(r29),r2
12324  0000ad44  23bdfff8	addi	r29,r29,#-8
12325  0000ad48  20020000	addi	r2,r0,#0
12326  0000ad4c  afa20000	sw	(r29),r2
12327  0000ad50  0fff6534	jal	_SetIntrs
12328  0000ad54  54000000	nop; not filled.
12329  0000ad58  23bd0008	addi	r29,r29,#8
12330  0000ad5c  8fa20000	lw	r2,0(r29)
12331  0000ad60  8fdffff8	lw	r31,-8(r30)
12332  0000ad64  001ee820	add	r29,r0,r30
12333  0000ad68  8fdefffc	lw	r30,-4(r30)
12334  0000ad6c  4be00000	jr	r31
12335  0000ad70  54000000	nop
12336  0000ad74          	.endproc _EnableIntrs
12337  0000ad74          	.align 2
12338  0000ad74          	.proc _RestoreIntrs
12339  0000ad74          	.global _RestoreIntrs
12340  0000ad74          	_RestoreIntrs:
12341                      ;  Function 'RestoreIntrs'; 0 bytes of locals, 1 regs to save.
12342  0000ad74  afbefffc	sw	-4(r29),r30; push fp
12343  0000ad78  001df020	add	r30,r0,r29; fp = sp
12344  0000ad7c  afbffff8	sw	-8(r29),r31; push ret addr
12345  0000ad80  2fbd0010	subui	r29,r29,#16; alloc local storage
12346  0000ad84  afa20000	sw	0(r29),r2
12347  0000ad88  23bdfff8	addi	r29,r29,#-8
12348  0000ad8c  8fc20000	lw	r2,(r30)
12349  0000ad90  afa20000	sw	(r29),r2
12350  0000ad94  0fff64f0	jal	_SetIntrs
12351  0000ad98  54000000	nop; not filled.
12352  0000ad9c  23bd0008	addi	r29,r29,#8
12353  0000ada0  8fa20000	lw	r2,0(r29)
12354  0000ada4  8fdffff8	lw	r31,-8(r30)
12355  0000ada8  001ee820	add	r29,r0,r30
12356  0000adac  8fdefffc	lw	r30,-4(r30)
12357  0000adb0  4be00000	jr	r31
12358  0000adb4  54000000	nop
12359  0000adb8          	.endproc _RestoreIntrs
12360  0000adb8          	.align 2
12361  0000adb8          	.proc _QueueLinkInit
12362  0000adb8          	.global _QueueLinkInit
12363  0000adb8          	_QueueLinkInit:
12364                      ;  Function 'QueueLinkInit'; 0 bytes of locals, 1 regs to save.
12365  0000adb8  afbefffc	sw	-4(r29),r30; push fp
12366  0000adbc  001df020	add	r30,r0,r29; fp = sp
12367  0000adc0  afbffff8	sw	-8(r29),r31; push ret addr
12368  0000adc4  2fbd0010	subui	r29,r29,#16; alloc local storage
12369  0000adc8  afa20000	sw	0(r29),r2
12370  0000adcc  8fc10000	lw	r1,(r30)
12371  0000add0  8fc20004	lw	r2,4(r30)
12372  0000add4  201f0000	addi	r31,r0,#0
12373  0000add8  ac3f0000	sw	(r1),r31
12374  0000addc  ac22000c	sw	12(r1),r2
12375  0000ade0  8fa20000	lw	r2,0(r29)
12376  0000ade4  8fdffff8	lw	r31,-8(r30)
12377  0000ade8  001ee820	add	r29,r0,r30
12378  0000adec  8fdefffc	lw	r30,-4(r30)
12379  0000adf0  4be00000	jr	r31
12380  0000adf4  54000000	nop
12381  0000adf8          	.endproc _QueueLinkInit
12382  0000adf8          	.align 2
12383  0000adf8          	.proc _QueueNext
12384  0000adf8          	.global _QueueNext
12385  0000adf8          	_QueueNext:
12386                      ;  Function 'QueueNext'; 0 bytes of locals, 0 regs to save.
12387  0000adf8  afbefffc	sw	-4(r29),r30; push fp
12388  0000adfc  001df020	add	r30,r0,r29; fp = sp
12389  0000ae00  afbffff8	sw	-8(r29),r31; push ret addr
12390  0000ae04  2fbd0008	subui	r29,r29,#8; alloc local storage
12391  0000ae08  8fc10000	lw	r1,(r30)
12392  0000ae0c  8c210000	lw	r1,(r1)
12393  0000ae10  8fdffff8	lw	r31,-8(r30)
12394  0000ae14  001ee820	add	r29,r0,r30
12395  0000ae18  8fdefffc	lw	r30,-4(r30)
12396  0000ae1c  4be00000	jr	r31
12397  0000ae20  54000000	nop
12398  0000ae24          	.endproc _QueueNext
12399  0000ae24          	.align 2
12400  0000ae24          	.proc _QueuePrev
12401  0000ae24          	.global _QueuePrev
12402  0000ae24          	_QueuePrev:
12403                      ;  Function 'QueuePrev'; 0 bytes of locals, 0 regs to save.
12404  0000ae24  afbefffc	sw	-4(r29),r30; push fp
12405  0000ae28  001df020	add	r30,r0,r29; fp = sp
12406  0000ae2c  afbffff8	sw	-8(r29),r31; push ret addr
12407  0000ae30  2fbd0008	subui	r29,r29,#8; alloc local storage
12408  0000ae34  8fc10000	lw	r1,(r30)
12409  0000ae38  8c210004	lw	r1,4(r1)
12410  0000ae3c  8fdffff8	lw	r31,-8(r30)
12411  0000ae40  001ee820	add	r29,r0,r30
12412  0000ae44  8fdefffc	lw	r30,-4(r30)
12413  0000ae48  4be00000	jr	r31
12414  0000ae4c  54000000	nop
12415  0000ae50          	.endproc _QueuePrev
12416  0000ae50          	.align 2
12417  0000ae50          	.proc _QueueFirst
12418  0000ae50          	.global _QueueFirst
12419  0000ae50          	_QueueFirst:
12420                      ;  Function 'QueueFirst'; 0 bytes of locals, 0 regs to save.
12421  0000ae50  afbefffc	sw	-4(r29),r30; push fp
12422  0000ae54  001df020	add	r30,r0,r29; fp = sp
12423  0000ae58  afbffff8	sw	-8(r29),r31; push ret addr
12424  0000ae5c  2fbd0008	subui	r29,r29,#8; alloc local storage
12425  0000ae60  8fc10000	lw	r1,(r30)
12426  0000ae64  8c210000	lw	r1,(r1)
12427  0000ae68  8fdffff8	lw	r31,-8(r30)
12428  0000ae6c  001ee820	add	r29,r0,r30
12429  0000ae70  8fdefffc	lw	r30,-4(r30)
12430  0000ae74  4be00000	jr	r31
12431  0000ae78  54000000	nop
12432  0000ae7c          	.endproc _QueueFirst
12433  0000ae7c          	.align 2
12434  0000ae7c          	.proc _QueueLast
12435  0000ae7c          	.global _QueueLast
12436  0000ae7c          	_QueueLast:
12437                      ;  Function 'QueueLast'; 0 bytes of locals, 0 regs to save.
12438  0000ae7c  afbefffc	sw	-4(r29),r30; push fp
12439  0000ae80  001df020	add	r30,r0,r29; fp = sp
12440  0000ae84  afbffff8	sw	-8(r29),r31; push ret addr
12441  0000ae88  2fbd0008	subui	r29,r29,#8; alloc local storage
12442  0000ae8c  8fc10000	lw	r1,(r30)
12443  0000ae90  8c210004	lw	r1,4(r1)
12444  0000ae94  8fdffff8	lw	r31,-8(r30)
12445  0000ae98  001ee820	add	r29,r0,r30
12446  0000ae9c  8fdefffc	lw	r30,-4(r30)
12447  0000aea0  4be00000	jr	r31
12448  0000aea4  54000000	nop
12449  0000aea8          	.endproc _QueueLast
12450  0000aea8          	.align 2
12451  0000aea8          	.proc _QueueInsertAfter
12452  0000aea8          	.global _QueueInsertAfter
12453  0000aea8          	_QueueInsertAfter:
12454                      ;  Function 'QueueInsertAfter'; 0 bytes of locals, 2 regs to save.
12455  0000aea8  afbefffc	sw	-4(r29),r30; push fp
12456  0000aeac  001df020	add	r30,r0,r29; fp = sp
12457  0000aeb0  afbffff8	sw	-8(r29),r31; push ret addr
12458  0000aeb4  2fbd0010	subui	r29,r29,#16; alloc local storage
12459  0000aeb8  afa20000	sw	0(r29),r2
12460  0000aebc  afa30004	sw	4(r29),r3
12461  0000aec0  8fc30000	lw	r3,(r30)
12462  0000aec4  8fc20004	lw	r2,4(r30)
12463  0000aec8  8fc10008	lw	r1,8(r30)
12464  0000aecc  ac230008	sw	8(r1),r3
12465  0000aed0  ac220004	sw	4(r1),r2
12466  0000aed4  8c5f0000	lw	r31,(r2)
12467  0000aed8  ac3f0000	sw	(r1),r31
12468  0000aedc  ac410000	sw	(r2),r1
12469  0000aee0  8c220000	lw	r2,(r1)
12470  0000aee4  ac410004	sw	4(r2),r1
12471  0000aee8  8c610008	lw	r1,8(r3)
12472  0000aeec  20210001	addi	r1,r1,#1
12473  0000aef0  ac610008	sw	8(r3),r1
12474  0000aef4  8fa20000	lw	r2,0(r29)
12475  0000aef8  8fa30004	lw	r3,4(r29)
12476  0000aefc  8fdffff8	lw	r31,-8(r30)
12477  0000af00  001ee820	add	r29,r0,r30
12478  0000af04  8fdefffc	lw	r30,-4(r30)
12479  0000af08  4be00000	jr	r31
12480  0000af0c  54000000	nop
12481  0000af10          	.endproc _QueueInsertAfter
12482  0000af10          	.align 2
12483  0000af10          	.proc _QueueInsertFirst
12484  0000af10          	.global _QueueInsertFirst
12485  0000af10          	_QueueInsertFirst:
12486                      ;  Function 'QueueInsertFirst'; 0 bytes of locals, 2 regs to save.
12487  0000af10  afbefffc	sw	-4(r29),r30; push fp
12488  0000af14  001df020	add	r30,r0,r29; fp = sp
12489  0000af18  afbffff8	sw	-8(r29),r31; push ret addr
12490  0000af1c  2fbd0010	subui	r29,r29,#16; alloc local storage
12491  0000af20  afa20000	sw	0(r29),r2
12492  0000af24  afa30004	sw	4(r29),r3
12493  0000af28  8fc30000	lw	r3,(r30)
12494  0000af2c  8fc10004	lw	r1,4(r30)
12495  0000af30  ac230008	sw	8(r1),r3
12496  0000af34  ac230004	sw	4(r1),r3
12497  0000af38  8c7f0000	lw	r31,(r3)
12498  0000af3c  ac3f0000	sw	(r1),r31
12499  0000af40  ac610000	sw	(r3),r1
12500  0000af44  8c220000	lw	r2,(r1)
12501  0000af48  ac410004	sw	4(r2),r1
12502  0000af4c  8c610008	lw	r1,8(r3)
12503  0000af50  20210001	addi	r1,r1,#1
12504  0000af54  ac610008	sw	8(r3),r1
12505  0000af58  8fa20000	lw	r2,0(r29)
12506  0000af5c  8fa30004	lw	r3,4(r29)
12507  0000af60  8fdffff8	lw	r31,-8(r30)
12508  0000af64  001ee820	add	r29,r0,r30
12509  0000af68  8fdefffc	lw	r30,-4(r30)
12510  0000af6c  4be00000	jr	r31
12511  0000af70  54000000	nop
12512  0000af74          	.endproc _QueueInsertFirst
12513  0000af74          	.align 2
12514  0000af74          	.proc _QueueInsertLast
12515  0000af74          	.global _QueueInsertLast
12516  0000af74          	_QueueInsertLast:
12517                      ;  Function 'QueueInsertLast'; 0 bytes of locals, 2 regs to save.
12518  0000af74  afbefffc	sw	-4(r29),r30; push fp
12519  0000af78  001df020	add	r30,r0,r29; fp = sp
12520  0000af7c  afbffff8	sw	-8(r29),r31; push ret addr
12521  0000af80  2fbd0010	subui	r29,r29,#16; alloc local storage
12522  0000af84  afa20000	sw	0(r29),r2
12523  0000af88  afa30004	sw	4(r29),r3
12524  0000af8c  8fc30000	lw	r3,(r30)
12525  0000af90  8fc10004	lw	r1,4(r30)
12526  0000af94  8c620004	lw	r2,4(r3)
12527  0000af98  ac230008	sw	8(r1),r3
12528  0000af9c  ac220004	sw	4(r1),r2
12529  0000afa0  8c5f0000	lw	r31,(r2)
12530  0000afa4  ac3f0000	sw	(r1),r31
12531  0000afa8  ac410000	sw	(r2),r1
12532  0000afac  8c220000	lw	r2,(r1)
12533  0000afb0  ac410004	sw	4(r2),r1
12534  0000afb4  8c610008	lw	r1,8(r3)
12535  0000afb8  20210001	addi	r1,r1,#1
12536  0000afbc  ac610008	sw	8(r3),r1
12537  0000afc0  8fa20000	lw	r2,0(r29)
12538  0000afc4  8fa30004	lw	r3,4(r29)
12539  0000afc8  8fdffff8	lw	r31,-8(r30)
12540  0000afcc  001ee820	add	r29,r0,r30
12541  0000afd0  8fdefffc	lw	r30,-4(r30)
12542  0000afd4  4be00000	jr	r31
12543  0000afd8  54000000	nop
12544  0000afdc          	.endproc _QueueInsertLast
12545  0000afdc          	.align 2
12546  0000afdc          	.proc _QueueRemove
12547  0000afdc          	.global _QueueRemove
12548  0000afdc          	_QueueRemove:
12549                      ;  Function 'QueueRemove'; 0 bytes of locals, 2 regs to save.
12550  0000afdc  afbefffc	sw	-4(r29),r30; push fp
12551  0000afe0  001df020	add	r30,r0,r29; fp = sp
12552  0000afe4  afbffff8	sw	-8(r29),r31; push ret addr
12553  0000afe8  2fbd0010	subui	r29,r29,#16; alloc local storage
12554  0000afec  afa20000	sw	0(r29),r2
12555  0000aff0  afa30004	sw	4(r29),r3
12556  0000aff4  8fdf0000	lw	r31,(r30)
12557  0000aff8  8fe10008	lw	r1,8(r31)
12558  0000affc  8c210008	lw	r1,8(r1)
12559  0000b000  6c210000	sgti	r1,r1,#0
12560  0000b004  1020002c	beqz	r1,L44_LF9
12561  0000b008  54000000	nop; not filled.
12562  0000b00c  8fe10004	lw	r1,4(r31)
12563  0000b010  8fe30000	lw	r3,(r31)
12564  0000b014  ac230000	sw	(r1),r3
12565  0000b018  8fe10000	lw	r1,(r31)
12566  0000b01c  8fe30004	lw	r3,4(r31)
12567  0000b020  ac230004	sw	4(r1),r3
12568  0000b024  8fe20008	lw	r2,8(r31)
12569  0000b028  8c410008	lw	r1,8(r2)
12570  0000b02c  2021ffff	addi	r1,r1,#-1
12571  0000b030  ac410008	sw	8(r2),r1
12572  0000b034          	L44_LF9:
12573  0000b034  20030000	addi	r3,r0,#0
12574  0000b038  afe30000	sw	(r31),r3
12575  0000b03c  8fa20000	lw	r2,0(r29)
12576  0000b040  8fa30004	lw	r3,4(r29)
12577  0000b044  8fdffff8	lw	r31,-8(r30)
12578  0000b048  001ee820	add	r29,r0,r30
12579  0000b04c  8fdefffc	lw	r30,-4(r30)
12580  0000b050  4be00000	jr	r31
12581  0000b054  54000000	nop
12582  0000b058          	.endproc _QueueRemove
12583  0000b058          	.align 2
12584  0000b058          	.proc _QueueLength
12585  0000b058          	.global _QueueLength
12586  0000b058          	_QueueLength:
12587                      ;  Function 'QueueLength'; 0 bytes of locals, 0 regs to save.
12588  0000b058  afbefffc	sw	-4(r29),r30; push fp
12589  0000b05c  001df020	add	r30,r0,r29; fp = sp
12590  0000b060  afbffff8	sw	-8(r29),r31; push ret addr
12591  0000b064  2fbd0008	subui	r29,r29,#8; alloc local storage
12592  0000b068  8fc10000	lw	r1,(r30)
12593  0000b06c  8c210008	lw	r1,8(r1)
12594  0000b070  8fdffff8	lw	r31,-8(r30)
12595  0000b074  001ee820	add	r29,r0,r30
12596  0000b078  8fdefffc	lw	r30,-4(r30)
12597  0000b07c  4be00000	jr	r31
12598  0000b080  54000000	nop
12599  0000b084          	.endproc _QueueLength
12600  0000b084          	.align 2
12601  0000b084          	.proc _QueueEmpty
12602  0000b084          	.global _QueueEmpty
12603  0000b084          	_QueueEmpty:
12604                      ;  Function 'QueueEmpty'; 0 bytes of locals, 0 regs to save.
12605  0000b084  afbefffc	sw	-4(r29),r30; push fp
12606  0000b088  001df020	add	r30,r0,r29; fp = sp
12607  0000b08c  afbffff8	sw	-8(r29),r31; push ret addr
12608  0000b090  2fbd0008	subui	r29,r29,#8; alloc local storage
12609  0000b094  8fc10000	lw	r1,(r30)
12610  0000b098  8c210008	lw	r1,8(r1)
12611  0000b09c  60210000	seqi	r1,r1,#0
12612  0000b0a0  8fdffff8	lw	r31,-8(r30)
12613  0000b0a4  001ee820	add	r29,r0,r30
12614  0000b0a8  8fdefffc	lw	r30,-4(r30)
12615  0000b0ac  4be00000	jr	r31
12616  0000b0b0  54000000	nop
12617  0000b0b4          	.endproc _QueueEmpty
12618  0000b0b4          	.data
12619  00013e3f          	.align 2
12620  00013e40          	LC0_LF9:
12621  00013e40  50726f63	.ascii "Process #\000"
12621  00013e44  65737320	
12621  00013e48  2300    	
12622  00013e4a          	.align 2
12623  00013e4c          	LC1_LF9:
12624  00013e4c  52756e6e	.ascii "Running process %d (iteration %d)!\n\000"
12624  00013e50  696e6720	
12624  00013e54  70726f63	
12624  00013e58  65737320	
12624  00013e5c  25642028	
12624  00013e60  69746572	
12624  00013e64  6174696f	
12624  00013e68  6e202564	
12624  00013e6c  29210a00	
12625  00013e70          	.text
12626  0000b0b4          	.align 2
12627  0000b0b4          	.proc _doSomething_LF9
12628  0000b0b4          	_doSomething_LF9:
12629                      ;  Function 'doSomething'; 80 bytes of locals, 7 regs to save.
12630  0000b0b4  afbefffc	sw	-4(r29),r30; push fp
12631  0000b0b8  001df020	add	r30,r0,r29; fp = sp
12632  0000b0bc  afbffff8	sw	-8(r29),r31; push ret addr
12633  0000b0c0  2fbd0078	subui	r29,r29,#120; alloc local storage
12634  0000b0c4  afa20000	sw	0(r29),r2
12635  0000b0c8  afa30004	sw	4(r29),r3
12636  0000b0cc  afa40008	sw	8(r29),r4
12637  0000b0d0  afa5000c	sw	12(r29),r5
12638  0000b0d4  afa60010	sw	16(r29),r6
12639  0000b0d8  afa70014	sw	20(r29),r7
12640  0000b0dc  afa80018	sw	24(r29),r8
12641  0000b0e0  8fc60000	lw	r6,(r30)
12642  0000b0e4  2001000a	addi	r1,r0,#10
12643  0000b0e8  00c00035	movi2fp	f0,r6
12644  0000b0ec  00200835	movi2fp	f1,r1
12645  0000b0f0  0401000f	div	f0,f0,f1
12646  0000b0f4  00001034	movfp2i	r2,f0
12647  0000b0f8  50410002	slli	r1,r2,#0x2
12648  0000b0fc  00220820	add	r1,r1,r2
12649  0000b100  50210001	slli	r1,r1,#0x1
12650  0000b104  00c13822	sub	r7,r6,r1
12651  0000b108  70c10063	slei	r1,r6,#99
12652  0000b10c  102000dc	beqz	r1,L52_LF9
12653  0000b110  54000000	nop; not filled.
12654  0000b114  23bdfff8	addi	r29,r29,#-8
12655  0000b118  50e10002	slli	r1,r7,#0x2
12656  0000b11c  00270820	add	r1,r1,r7
12657  0000b120  50210002	slli	r1,r1,#0x2
12658  0000b124  3c080001	lhi	r8,((_mysems_LF9)>>16)&0xffff
12659  0000b128  25083ee4	addui	r8,r8,(_mysems_LF9)&0xffff
12660  0000b12c  00280820	add	r1,r1,r8
12661  0000b130  afa10000	sw	(r29),r1
12662  0000b134  20080001	addi	r8,r0,#1
12663  0000b138  afa80004	sw	4(r29),r8
12664  0000b13c  0fffdc20	jal	_SemInit
12665  0000b140  54000000	nop; not filled.
12666  0000b144  20030001	addi	r3,r0,#1
12667  0000b148  23bd0008	addi	r29,r29,#8
12668  0000b14c  23c4ffd0	addi	r4,r30,#-48
12669  0000b150  23c5ffa8	addi	r5,r30,#-88
12670  0000b154  00061020	add	r2,r0,r6
12671  0000b158          	L56_LF9:
12672  0000b158  23bdfff8	addi	r29,r29,#-8
12673  0000b15c  afa40000	sw	(r29),r4
12674  0000b160  3c080001	lhi	r8,((LC0_LF9)>>16)&0xffff
12675  0000b164  25083e40	addui	r8,r8,(LC0_LF9)&0xffff
12676  0000b168  afa80004	sw	4(r29),r8
12677  0000b16c  0fff88c0	jal	_dstrcpy
12678  0000b170  54000000	nop; not filled.
12679  0000b174  afa30000	sw	(r29),r3
12680  0000b178  afa50004	sw	4(r29),r5
12681  0000b17c  0fff8dec	jal	_ditoa
12682  0000b180  54000000	nop; not filled.
12683  0000b184  afa40000	sw	(r29),r4
12684  0000b188  afa50004	sw	4(r29),r5
12685  0000b18c  0fff8990	jal	_dstrcat
12686  0000b190  54000000	nop; not filled.
12687  0000b194  23bdfff8	addi	r29,r29,#-8
12688  0000b198  3c080000	lhi	r8,((_doSomething_LF9)>>16)&0xffff
12689  0000b19c  2508b0b4	addui	r8,r8,(_doSomething_LF9)&0xffff
12690  0000b1a0  afa80000	sw	(r29),r8
12691  0000b1a4  50410005	slli	r1,r2,#0x5
12692  0000b1a8  00220822	sub	r1,r1,r2
12693  0000b1ac  50210002	slli	r1,r1,#0x2
12694  0000b1b0  00220820	add	r1,r1,r2
12695  0000b1b4  50210003	slli	r1,r1,#0x3
12696  0000b1b8  00260820	add	r1,r1,r6
12697  0000b1bc  afa10004	sw	4(r29),r1
12698  0000b1c0  afa40008	sw	8(r29),r4
12699  0000b1c4  20080000	addi	r8,r0,#0
12700  0000b1c8  afa8000c	sw	12(r29),r8
12701  0000b1cc  0fffa550	jal	_ProcessFork
12702  0000b1d0  54000000	nop; not filled.
12703  0000b1d4  23bd0010	addi	r29,r29,#16
12704  0000b1d8  00461020	add	r2,r2,r6
12705  0000b1dc  20630001	addi	r3,r3,#1
12706  0000b1e0  70610006	slei	r1,r3,#6
12707  0000b1e4  1420ff70	bnez	r1,L56_LF9
12708  0000b1e8  54000000	nop; not filled.
12709  0000b1ec          	L52_LF9:
12710  0000b1ec  23bdfff8	addi	r29,r29,#-8
12711  0000b1f0  50e10002	slli	r1,r7,#0x2
12712  0000b1f4  00270820	add	r1,r1,r7
12713  0000b1f8  50210002	slli	r1,r1,#0x2
12714  0000b1fc  3c080001	lhi	r8,((_mysems_LF9)>>16)&0xffff
12715  0000b200  25083ee4	addui	r8,r8,(_mysems_LF9)&0xffff
12716  0000b204  00280820	add	r1,r1,r8
12717  0000b208  afa10000	sw	(r29),r1
12718  0000b20c  0fffdcac	jal	_SemWait
12719  0000b210  54000000	nop; not filled.
12720  0000b214  20030000	addi	r3,r0,#0
12721  0000b218  23bd0008	addi	r29,r29,#8
12722  0000b21c  50c20001	slli	r2,r6,#0x1
12723  0000b220  0062082a	slt	r1,r3,r2
12724  0000b224  10200070	beqz	r1,L59_LF9
12725  0000b228  54000000	nop; not filled.
12726  0000b22c  200503e8	addi	r5,r0,#1000
12727  0000b230  00022020	add	r4,r0,r2
12728  0000b234          	L61_LF9:
12729  0000b234  00600035	movi2fp	f0,r3
12730  0000b238  00a00835	movi2fp	f1,r5
12731  0000b23c  0401000f	div	f0,f0,f1
12732  0000b240  00001034	movfp2i	r2,f0
12733  0000b244  50410005	slli	r1,r2,#0x5
12734  0000b248  00220822	sub	r1,r1,r2
12735  0000b24c  50210002	slli	r1,r1,#0x2
12736  0000b250  00220820	add	r1,r1,r2
12737  0000b254  50210003	slli	r1,r1,#0x3
12738  0000b258  00610829	sne	r1,r3,r1
12739  0000b25c  14200028	bnez	r1,L62_LF9
12740  0000b260  54000000	nop; not filled.
12741  0000b264  23bdfff0	addi	r29,r29,#-16
12742  0000b268  3c080001	lhi	r8,((LC1_LF9)>>16)&0xffff
12743  0000b26c  25083e4c	addui	r8,r8,(LC1_LF9)&0xffff
12744  0000b270  afa80000	sw	(r29),r8
12745  0000b274  afa60004	sw	4(r29),r6
12746  0000b278  afa30008	sw	8(r29),r3
12747  0000b27c  0c000278	jal	_printf
12748  0000b280  54000000	nop; not filled.
12749  0000b284  23bd0010	addi	r29,r29,#16
12750  0000b288          	L62_LF9:
12751  0000b288  20630001	addi	r3,r3,#1
12752  0000b28c  0064082a	slt	r1,r3,r4
12753  0000b290  1420ffa0	bnez	r1,L61_LF9
12754  0000b294  54000000	nop; not filled.
12755  0000b298          	L59_LF9:
12756  0000b298  23bdfff8	addi	r29,r29,#-8
12757  0000b29c  50e10002	slli	r1,r7,#0x2
12758  0000b2a0  00270820	add	r1,r1,r7
12759  0000b2a4  50210002	slli	r1,r1,#0x2
12760  0000b2a8  3c080001	lhi	r8,((_mysems_LF9)>>16)&0xffff
12761  0000b2ac  25083ee4	addui	r8,r8,(_mysems_LF9)&0xffff
12762  0000b2b0  00280820	add	r1,r1,r8
12763  0000b2b4  afa10000	sw	(r29),r1
12764  0000b2b8  0fffdf10	jal	_SemSignal
12765  0000b2bc  54000000	nop; not filled.
12766  0000b2c0  23bd0008	addi	r29,r29,#8
12767  0000b2c4  8fa20000	lw	r2,0(r29)
12768  0000b2c8  8fa30004	lw	r3,4(r29)
12769  0000b2cc  8fa40008	lw	r4,8(r29)
12770  0000b2d0  8fa5000c	lw	r5,12(r29)
12771  0000b2d4  8fa60010	lw	r6,16(r29)
12772  0000b2d8  8fa70014	lw	r7,20(r29)
12773  0000b2dc  8fa80018	lw	r8,24(r29)
12774  0000b2e0  8fdffff8	lw	r31,-8(r30)
12775  0000b2e4  001ee820	add	r29,r0,r30
12776  0000b2e8  8fdefffc	lw	r30,-4(r30)
12777  0000b2ec  4be00000	jr	r31
12778  0000b2f0  54000000	nop
12779  0000b2f4          	.endproc _doSomething_LF9
12780  0000b2f4          	.data
12781  00013e70          	.align 2
12782  00013e70          	LC2_LF9:
12783  00013e70  63686173	.ascii "chasetail\000"
12783  00013e74  65746169	
12783  00013e78  6c00    	
12784  00013e7a          	.align 2
12785  00013e7c          	LC3_LF9:
12786  00013e7c  43686173	.ascii "Chasing tail %d.\n\000"
12786  00013e80  696e6720	
12786  00013e84  7461696c	
12786  00013e88  2025642e	
12786  00013e8c  0a00    	
12787  00013e8e          	.align 2
12788  00013e90          	LC4_LF9:
12789  00013e90  4f70656e	.ascii "Open of (%s,0x%x) returns 0x%x.\n\000"
12789  00013e94  206f6620	
12789  00013e98  2825732c	
12789  00013e9c  30782578	
12789  00013ea0  29207265	
12789  00013ea4  7475726e	
12789  00013ea8  73203078	
12789  00013eac  25782e0a	
12789  00013eb0  00      	
12790  00013eb1          	.align 2
12791  00013eb4          	LC5_LF9:
12792  00013eb4  43686173	.ascii "ChaseTail\000"
12792  00013eb8  65546169	
12792  00013ebc  6c00    	
12793  00013ebe          	.text
12794  0000b2f4          	.align 2
12795  0000b2f4          	.proc _chaseTail_LF9
12796  0000b2f4          	_chaseTail_LF9:
12797                      ;  Function 'chaseTail'; 0 bytes of locals, 4 regs to save.
12798  0000b2f4  afbefffc	sw	-4(r29),r30; push fp
12799  0000b2f8  001df020	add	r30,r0,r29; fp = sp
12800  0000b2fc  afbffff8	sw	-8(r29),r31; push ret addr
12801  0000b300  2fbd0018	subui	r29,r29,#24; alloc local storage
12802  0000b304  afa20000	sw	0(r29),r2
12803  0000b308  afa30004	sw	4(r29),r3
12804  0000b30c  afa40008	sw	8(r29),r4
12805  0000b310  afa5000c	sw	12(r29),r5
12806  0000b314  8fc40000	lw	r4,(r30)
12807  0000b318  3c030001	lhi	r3,((LC2_LF9)>>16)&0xffff
12808  0000b31c  24633e70	addui	r3,r3,(LC2_LF9)&0xffff
12809  0000b320  23bdfff8	addi	r29,r29,#-8
12810  0000b324  3c050001	lhi	r5,((LC3_LF9)>>16)&0xffff
12811  0000b328  24a53e7c	addui	r5,r5,(LC3_LF9)&0xffff
12812  0000b32c  afa50000	sw	(r29),r5
12813  0000b330  afa40004	sw	4(r29),r4
12814  0000b334  0c0001c0	jal	_printf
12815  0000b338  54000000	nop; not filled.
12816  0000b33c  afa30000	sw	(r29),r3
12817  0000b340  20822000	addi	r2,r4,#8192
12818  0000b344  afa20004	sw	4(r29),r2
12819  0000b348  0c000158	jal	_Open
12820  0000b34c  54000000	nop; not filled.
12821  0000b350  23bdfff8	addi	r29,r29,#-8
12822  0000b354  3c050001	lhi	r5,((LC4_LF9)>>16)&0xffff
12823  0000b358  24a53e90	addui	r5,r5,(LC4_LF9)&0xffff
12824  0000b35c  afa50000	sw	(r29),r5
12825  0000b360  afa30004	sw	4(r29),r3
12826  0000b364  afa20008	sw	8(r29),r2
12827  0000b368  afa1000c	sw	12(r29),r1
12828  0000b36c  0c000188	jal	_printf
12829  0000b370  54000000	nop; not filled.
12830  0000b374  23bd0010	addi	r29,r29,#16
12831  0000b378  70810027	slei	r1,r4,#39
12832  0000b37c  1020003c	beqz	r1,L67_LF9
12833  0000b380  54000000	nop; not filled.
12834  0000b384  23bdfff0	addi	r29,r29,#-16
12835  0000b388  3c050000	lhi	r5,((_chaseTail_LF9)>>16)&0xffff
12836  0000b38c  24a5b2f4	addui	r5,r5,(_chaseTail_LF9)&0xffff
12837  0000b390  afa50000	sw	(r29),r5
12838  0000b394  20810001	addi	r1,r4,#1
12839  0000b398  afa10004	sw	4(r29),r1
12840  0000b39c  3c050001	lhi	r5,((LC5_LF9)>>16)&0xffff
12841  0000b3a0  24a53eb4	addui	r5,r5,(LC5_LF9)&0xffff
12842  0000b3a4  afa50008	sw	8(r29),r5
12843  0000b3a8  20050000	addi	r5,r0,#0
12844  0000b3ac  afa5000c	sw	12(r29),r5
12845  0000b3b0  0fffa36c	jal	_ProcessFork
12846  0000b3b4  54000000	nop; not filled.
12847  0000b3b8  23bd0010	addi	r29,r29,#16
12848  0000b3bc          	L67_LF9:
12849  0000b3bc  8fa20000	lw	r2,0(r29)
12850  0000b3c0  8fa30004	lw	r3,4(r29)
12851  0000b3c4  8fa40008	lw	r4,8(r29)
12852  0000b3c8  8fa5000c	lw	r5,12(r29)
12853  0000b3cc  8fdffff8	lw	r31,-8(r30)
12854  0000b3d0  001ee820	add	r29,r0,r30
12855  0000b3d4  8fdefffc	lw	r30,-4(r30)
12856  0000b3d8  4be00000	jr	r31
12857  0000b3dc  54000000	nop
12858  0000b3e0          	.endproc _chaseTail_LF9
12859  0000b3e0          	.data
12860  00013ebe          	.align 2
12861  00013ec0          	LC6_LF9:
12862  00013ec0  25642000	.ascii "%d \000"
12863  00013ec4          	.align 2
12864  00013ec4          	LC7_LF9:
12865  00013ec4  52616e64	.ascii "Random number %02i is 0x%08x.\n\000"
12865  00013ec8  6f6d206e	
12865  00013ecc  756d6265	
12865  00013ed0  72202530	
12865  00013ed4  32692069	
12865  00013ed8  73203078	
12865  00013edc  25303878	
12865  00013ee0  2e0a00  	
12866  00013ee3          	.text
12867  0000b3e0          	.align 2
12868  0000b3e0          	.proc _SysprocCreateProcesses
12869  0000b3e0          	.global _SysprocCreateProcesses
12870  0000b3e0          	_SysprocCreateProcesses:
12871                      ;  Function 'SysprocCreateProcesses'; 0 bytes of locals, 3 regs to save.
12872  0000b3e0  afbefffc	sw	-4(r29),r30; push fp
12873  0000b3e4  001df020	add	r30,r0,r29; fp = sp
12874  0000b3e8  afbffff8	sw	-8(r29),r31; push ret addr
12875  0000b3ec  2fbd0018	subui	r29,r29,#24; alloc local storage
12876  0000b3f0  afa20000	sw	0(r29),r2
12877  0000b3f4  afa30004	sw	4(r29),r3
12878  0000b3f8  afa40008	sw	8(r29),r4
12879  0000b3fc  3c020001	lhi	r2,((_mysems_LF9)>>16)&0xffff
12880  0000b400  24423ee4	addui	r2,r2,(_mysems_LF9)&0xffff
12881  0000b404  204300b4	addi	r3,r2,#180
12882  0000b408          	L90_LF9:
12883  0000b408  23bdfff8	addi	r29,r29,#-8
12884  0000b40c  afa20000	sw	(r29),r2
12885  0000b410  20040001	addi	r4,r0,#1
12886  0000b414  afa40004	sw	4(r29),r4
12887  0000b418  0fffd944	jal	_SemInit
12888  0000b41c  54000000	nop; not filled.
12889  0000b420  23bd0008	addi	r29,r29,#8
12890  0000b424  20420014	addi	r2,r2,#20
12891  0000b428  0043082c	sle	r1,r2,r3
12892  0000b42c  1420ffd8	bnez	r1,L90_LF9
12893  0000b430  54000000	nop; not filled.
12894  0000b434  8fa20000	lw	r2,0(r29)
12895  0000b438  8fa30004	lw	r3,4(r29)
12896  0000b43c  8fa40008	lw	r4,8(r29)
12897  0000b440  8fdffff8	lw	r31,-8(r30)
12898  0000b444  001ee820	add	r29,r0,r30
12899  0000b448  8fdefffc	lw	r30,-4(r30)
12900  0000b44c  4be00000	jr	r31
12901  0000b450  54000000	nop
12902  0000b454          	.endproc _SysprocCreateProcesses
12903  0000b454          	.data
12904  00013ee3          	.align 2
12905  00013ee4          	_mysems_LF9:
12906  00013ee4          	.space 200
12907                      ;;; This file just includes a single variable that contains the last address
12908                      ;;; in the operating system.  The rest of memory is available for use by
12909                      ;;; processes.
12911  00013fac          	.align 2
12912  00013fac          	.global _lastosaddress
12913  00013fac          	_lastosaddress:
12914  00013fac  00013fb4	.word _lastosaddress+8
12915                      ;;; Ethan L. Miller, 1999.  Released to the public domain
12916                      ;;;
12917                      ;;; Most of the traps are called in files from libtraps.
12919  00013fb0          	.text
12920  0000b454          	.align 2
12921  0000b454          	.proc _exit
12922  0000b454          	.global _exit
12923  0000b454          	_exit:
12924  0000b454  44000300	trap	#0x300
12925  0000b458  4be00000	jr	r31
12926  0000b45c  54000000	nop
12927  0000b460          	.endproc _exit
12929                      ; for the benefit of gcc.
12930  0000b460          	.proc ___main
12931  0000b460          	.global ___main
12932  0000b460          	___main:
12933  0000b460  4be00000	jr	r31
12934  0000b464  54000000	nop
12935  0000b468          	.endproc ___main
12936                      ;;;
12937                      ;;; Stub functions for DLX traps.
12938                      ;;;
12939                      ;;; Ethan L. Miller, 1999.  Released to the public domain.
12940                      ;;;
12941                      ;;; There are two sets of traps here.  The traps such as Open and Close
12942                      ;;; (note the capital letters) are for use by user programs.  The traps
12943                      ;;; with names such as open and close (lower case) are for use by the OS.
12944                      ;;;
12947  0000b468          	.align 2
12948  0000b468          	.proc _open
12949  0000b468          	.global _open
12950  0000b468          	_open:
12951  0000b468  44002013	trap	#0x2013
12952  0000b46c  4be00000	jr	r31
12953  0000b470  54000000	nop
12954  0000b474          	.endproc _open
12956  0000b474          	.proc _close
12957  0000b474          	.global _close
12958  0000b474          	_close:
12959  0000b474  44002014	trap	#0x2014
12960  0000b478  4be00000	jr	r31
12961  0000b47c  54000000	nop
12962  0000b480          	.endproc _close
12964  0000b480          	.proc _read
12965  0000b480          	.global _read
12966  0000b480          	_read:
12967  0000b480  44002010	trap	#0x2010
12968  0000b484  4be00000	jr	r31
12969  0000b488  54000000	nop
12970  0000b48c          	.endproc _read
12972  0000b48c          	.proc _write
12973  0000b48c          	.global _write
12974  0000b48c          	_write:
12975  0000b48c  44002011	trap	#0x2011
12976  0000b490  4be00000	jr	r31
12977  0000b494  54000000	nop
12978  0000b498          	.endproc _write
12980  0000b498          	.proc _lseek
12981  0000b498          	.global _lseek
12982  0000b498          	_lseek:
12983  0000b498  44002012	trap	#0x2012
12984  0000b49c  4be00000	jr	r31
12985  0000b4a0  54000000	nop
12986  0000b4a4          	.endproc _lseek
12988                      ;;; The following are the traps to be used by user-level programs
12989                      ;;;
12991  0000b4a4          	.align 2
12992  0000b4a4          	.proc _Open
12993  0000b4a4          	.global _Open
12994  0000b4a4          	_Open:
12995  0000b4a4  44000213	trap	#0x213
12996  0000b4a8  4be00000	jr	r31
12997  0000b4ac  54000000	nop
12998  0000b4b0          	.endproc _Open
13000  0000b4b0          	.proc _Close
13001  0000b4b0          	.global _Close
13002  0000b4b0          	_Close:
13003  0000b4b0  44000214	trap	#0x214
13004  0000b4b4  4be00000	jr	r31
13005  0000b4b8  54000000	nop
13006  0000b4bc          	.endproc _Close
13008  0000b4bc          	.proc _Read
13009  0000b4bc          	.global _Read
13010  0000b4bc          	_Read:
13011  0000b4bc  44000210	trap	#0x210
13012  0000b4c0  4be00000	jr	r31
13013  0000b4c4  54000000	nop
13014  0000b4c8          	.endproc _Read
13016  0000b4c8          	.proc _Write
13017  0000b4c8          	.global _Write
13018  0000b4c8          	_Write:
13019  0000b4c8  44000211	trap	#0x211
13020  0000b4cc  4be00000	jr	r31
13021  0000b4d0  54000000	nop
13022  0000b4d4          	.endproc _Write
13024  0000b4d4          	.proc _Lseek
13025  0000b4d4          	.global _Lseek
13026  0000b4d4          	_Lseek:
13027  0000b4d4  44000212	trap	#0x212
13028  0000b4d8  4be00000	jr	r31
13029  0000b4dc  54000000	nop
13030  0000b4e0          	.endproc _Lseek
13032                      ;;;
13033                      ;;; Stub functions for DLX traps.
13034                      ;;;
13035                      ;;; Ethan L. Miller, 1999.  Released to the public domain.
13036                      ;;;
13037                      ;;; There are two exit traps.  The first, _exitsim, actually exits the
13038                      ;;; simulator.  The second, _exit, simply calls a regular trap in the
13039                      ;;; DLX simulator, and would be suitable for a user program that wants
13040                      ;;; to signal the OS that it's exiting.
13041                      ;;;
13042                      ;;; IMPORTANT: all code that's run "native" on the simulator - OS code and
13043                      ;;; programs run without an OS - should call exitsim() rather than just
13044                      ;;; falling through to exit.
13045                      ;;;
13048  0000b4e0          	.align 2
13049  0000b4e0          	.proc _exitsim
13050  0000b4e0          	.global _exitsim
13051  0000b4e0          	_exitsim:
13052  0000b4e0  44002f00	trap	#0x2f00
13053  0000b4e4  4be00000	jr	r31
13054  0000b4e8  54000000	nop
13055  0000b4ec          	.endproc _exitsim
13057  0000b4ec          	.proc _exit
13058  0000b4ec          	.global _exit
13059  0000b4ec          	_exit:
13060  0000b4ec  44000300	trap	#0x300
13061  0000b4f0  4be00000	jr	r31
13062  0000b4f4  54000000	nop
13063  0000b4f8          	.endproc _exit
13065                      ;
13066                      ; Stub functions for DLX traps.
13067                      ;
13068                      ; Aaron Sawdey 1996; released to the Public Domain.
13069                      ;
13071  0000b4f8          	.proc _printf
13072  0000b4f8          	.global _printf
13073  0000b4f8          	_printf:
13074  0000b4f8  44002001	trap	#0x2001
13075  0000b4fc  4be00000	jr	r31
13076  0000b500  54000000	nop
13077  0000b504          	.endproc _printf
13079  0000b504          	.text
13080  0000b504          	.global _etext
13081  0000b504          	_etext:
13082  0000b504          	.align 3
13083  0000b508          	.data
13084  00013fb0          	.global _edata
13085  00013fb0          	_edata:
